ARM GAS  C:\Users\214016~1\AppData\Local\Temp\cc8D0TYi.s 			page 1


   1              		.syntax unified
   2              		.cpu cortex-m3
   3              		.fpu softvfp
   4              		.eabi_attribute 20, 1
   5              		.eabi_attribute 21, 1
   6              		.eabi_attribute 23, 3
   7              		.eabi_attribute 24, 1
   8              		.eabi_attribute 25, 1
   9              		.eabi_attribute 26, 1
  10              		.eabi_attribute 30, 1
  11              		.eabi_attribute 34, 1
  12              		.eabi_attribute 18, 4
  13              		.thumb
  14              		.file	"LFSR.c"
  15              		.text
  16              	.Ltext0:
  17              		.cfi_sections	.debug_frame
  18              		.section	.text.LFSR_Enable,"ax",%progbits
  19              		.align	2
  20              		.global	LFSR_Enable
  21              		.thumb
  22              		.thumb_func
  23              		.type	LFSR_Enable, %function
  24              	LFSR_Enable:
  25              	.LFB1:
  26              		.file 1 "Generated_Source\\PSoC5\\LFSR.c"
   1:Generated_Source\PSoC5/LFSR.c **** /*******************************************************************************
   2:Generated_Source\PSoC5/LFSR.c **** * File Name: LFSR.c
   3:Generated_Source\PSoC5/LFSR.c **** * Version 2.40
   4:Generated_Source\PSoC5/LFSR.c **** *
   5:Generated_Source\PSoC5/LFSR.c **** * Description:
   6:Generated_Source\PSoC5/LFSR.c **** *  This file provides the source code to the API for the PRS component
   7:Generated_Source\PSoC5/LFSR.c **** *
   8:Generated_Source\PSoC5/LFSR.c **** * Note:
   9:Generated_Source\PSoC5/LFSR.c **** *  None
  10:Generated_Source\PSoC5/LFSR.c **** *
  11:Generated_Source\PSoC5/LFSR.c **** ********************************************************************************
  12:Generated_Source\PSoC5/LFSR.c **** * Copyright 2008-2013, Cypress Semiconductor Corporation.  All rights reserved.
  13:Generated_Source\PSoC5/LFSR.c **** * You may use this file only in accordance with the license, terms, conditions,
  14:Generated_Source\PSoC5/LFSR.c **** * disclaimers, and limitations in the end user license agreement accompanying
  15:Generated_Source\PSoC5/LFSR.c **** * the software package with which this file was provided.
  16:Generated_Source\PSoC5/LFSR.c **** *******************************************************************************/
  17:Generated_Source\PSoC5/LFSR.c **** 
  18:Generated_Source\PSoC5/LFSR.c **** #include "LFSR.h"
  19:Generated_Source\PSoC5/LFSR.c **** 
  20:Generated_Source\PSoC5/LFSR.c **** uint8 LFSR_initVar = 0u;
  21:Generated_Source\PSoC5/LFSR.c **** 
  22:Generated_Source\PSoC5/LFSR.c **** LFSR_BACKUP_STRUCT LFSR_backup =
  23:Generated_Source\PSoC5/LFSR.c **** {
  24:Generated_Source\PSoC5/LFSR.c ****     0x00u, /* enableState; */
  25:Generated_Source\PSoC5/LFSR.c **** 
  26:Generated_Source\PSoC5/LFSR.c ****     #if (LFSR_WAKEUP_BEHAVIOUR == LFSR__RESUMEWORK)
  27:Generated_Source\PSoC5/LFSR.c ****         /* Save dff register for time mult */
  28:Generated_Source\PSoC5/LFSR.c ****         #if (LFSR_TIME_MULTIPLEXING_ENABLE)
  29:Generated_Source\PSoC5/LFSR.c ****             LFSR_INIT_STATE, /* dffStatus; */
  30:Generated_Source\PSoC5/LFSR.c ****         #endif  /* End LFSR_TIME_MULTIPLEXING_ENABLE */
  31:Generated_Source\PSoC5/LFSR.c **** 
ARM GAS  C:\Users\214016~1\AppData\Local\Temp\cc8D0TYi.s 			page 2


  32:Generated_Source\PSoC5/LFSR.c ****         /* Save A0 and A1 registers are none-retention */
  33:Generated_Source\PSoC5/LFSR.c ****         #if(LFSR_PRS_SIZE <= 32u)
  34:Generated_Source\PSoC5/LFSR.c ****             LFSR_DEFAULT_SEED, /* seed */
  35:Generated_Source\PSoC5/LFSR.c **** 
  36:Generated_Source\PSoC5/LFSR.c ****         #else
  37:Generated_Source\PSoC5/LFSR.c ****             LFSR_DEFAULT_SEED_UPPER, /* seedUpper; */
  38:Generated_Source\PSoC5/LFSR.c ****             LFSR_DEFAULT_SEED_LOWER, /* seedLower; */
  39:Generated_Source\PSoC5/LFSR.c **** 
  40:Generated_Source\PSoC5/LFSR.c ****         #endif  /* End (LFSR_PRS_SIZE <= 32u) */
  41:Generated_Source\PSoC5/LFSR.c **** 
  42:Generated_Source\PSoC5/LFSR.c ****     #endif  /* End (LFSR_WAKEUP_BEHAVIOUR == LFSR__RESUMEWORK) */
  43:Generated_Source\PSoC5/LFSR.c **** };
  44:Generated_Source\PSoC5/LFSR.c **** 
  45:Generated_Source\PSoC5/LFSR.c **** 
  46:Generated_Source\PSoC5/LFSR.c **** /*******************************************************************************
  47:Generated_Source\PSoC5/LFSR.c **** * Function Name: LFSR_Init
  48:Generated_Source\PSoC5/LFSR.c **** ********************************************************************************
  49:Generated_Source\PSoC5/LFSR.c **** *
  50:Generated_Source\PSoC5/LFSR.c **** * Summary:
  51:Generated_Source\PSoC5/LFSR.c **** *  Initializes seed and polynomial registers with initial values.
  52:Generated_Source\PSoC5/LFSR.c **** *
  53:Generated_Source\PSoC5/LFSR.c **** * Parameters:
  54:Generated_Source\PSoC5/LFSR.c **** *  void
  55:Generated_Source\PSoC5/LFSR.c **** *
  56:Generated_Source\PSoC5/LFSR.c **** * Return:
  57:Generated_Source\PSoC5/LFSR.c **** *  void
  58:Generated_Source\PSoC5/LFSR.c **** *
  59:Generated_Source\PSoC5/LFSR.c **** *******************************************************************************/
  60:Generated_Source\PSoC5/LFSR.c **** void LFSR_Init(void) 
  61:Generated_Source\PSoC5/LFSR.c **** {
  62:Generated_Source\PSoC5/LFSR.c ****     /* Writes seed value and ponynom value provided for customizer */
  63:Generated_Source\PSoC5/LFSR.c ****     #if (LFSR_PRS_SIZE <= 32u)
  64:Generated_Source\PSoC5/LFSR.c ****         LFSR_WritePolynomial(LFSR_DEFAULT_POLYNOM);
  65:Generated_Source\PSoC5/LFSR.c ****         LFSR_WriteSeed(LFSR_DEFAULT_SEED);
  66:Generated_Source\PSoC5/LFSR.c ****         #if (LFSR_RUN_MODE == LFSR__CLOCKED)
  67:Generated_Source\PSoC5/LFSR.c ****             LFSR_ResetSeedInit(LFSR_DEFAULT_SEED);
  68:Generated_Source\PSoC5/LFSR.c ****         #endif  /* End (LFSR_RUN_MODE == LFSR__CLOCKED) */
  69:Generated_Source\PSoC5/LFSR.c ****             LFSR_Enable();
  70:Generated_Source\PSoC5/LFSR.c ****     #else
  71:Generated_Source\PSoC5/LFSR.c ****         LFSR_WritePolynomialUpper(LFSR_DEFAULT_POLYNOM_UPPER);
  72:Generated_Source\PSoC5/LFSR.c ****         LFSR_WritePolynomialLower(LFSR_DEFAULT_POLYNOM_LOWER);
  73:Generated_Source\PSoC5/LFSR.c ****         LFSR_WriteSeedUpper(LFSR_DEFAULT_SEED_UPPER);
  74:Generated_Source\PSoC5/LFSR.c ****         LFSR_WriteSeedLower(LFSR_DEFAULT_SEED_LOWER);
  75:Generated_Source\PSoC5/LFSR.c ****         #if (LFSR_RUN_MODE == LFSR__CLOCKED)
  76:Generated_Source\PSoC5/LFSR.c ****             LFSR_ResetSeedInitUpper(LFSR_DEFAULT_SEED_UPPER);
  77:Generated_Source\PSoC5/LFSR.c ****             LFSR_ResetSeedInitLower(LFSR_DEFAULT_SEED_LOWER);
  78:Generated_Source\PSoC5/LFSR.c ****         #endif  /* End (LFSR_RUN_MODE == LFSR__CLOCKED) */
  79:Generated_Source\PSoC5/LFSR.c ****             LFSR_Enable();
  80:Generated_Source\PSoC5/LFSR.c ****     #endif  /* End (LFSR_PRS_SIZE <= 32u) */
  81:Generated_Source\PSoC5/LFSR.c **** }
  82:Generated_Source\PSoC5/LFSR.c **** 
  83:Generated_Source\PSoC5/LFSR.c **** 
  84:Generated_Source\PSoC5/LFSR.c **** /*******************************************************************************
  85:Generated_Source\PSoC5/LFSR.c **** * Function Name: LFSR_Enable
  86:Generated_Source\PSoC5/LFSR.c **** ********************************************************************************
  87:Generated_Source\PSoC5/LFSR.c **** *
  88:Generated_Source\PSoC5/LFSR.c **** * Summary:
ARM GAS  C:\Users\214016~1\AppData\Local\Temp\cc8D0TYi.s 			page 3


  89:Generated_Source\PSoC5/LFSR.c **** *  Starts PRS computation on rising edge of input clock.
  90:Generated_Source\PSoC5/LFSR.c **** *
  91:Generated_Source\PSoC5/LFSR.c **** * Parameters:
  92:Generated_Source\PSoC5/LFSR.c **** *  void
  93:Generated_Source\PSoC5/LFSR.c **** *
  94:Generated_Source\PSoC5/LFSR.c **** * Return:
  95:Generated_Source\PSoC5/LFSR.c **** *  void
  96:Generated_Source\PSoC5/LFSR.c **** *
  97:Generated_Source\PSoC5/LFSR.c **** *******************************************************************************/
  98:Generated_Source\PSoC5/LFSR.c **** void LFSR_Enable(void) 
  99:Generated_Source\PSoC5/LFSR.c **** {
  27              		.loc 1 99 0
  28              		.cfi_startproc
  29              		@ args = 0, pretend = 0, frame = 0
  30              		@ frame_needed = 0, uses_anonymous_args = 0
  31              		@ link register save eliminated.
 100:Generated_Source\PSoC5/LFSR.c ****         LFSR_CONTROL_REG |= LFSR_CTRL_ENABLE;
  32              		.loc 1 100 0
  33 0000 024A     		ldr	r2, .L2
  34 0002 1378     		ldrb	r3, [r2]	@ zero_extendqisi2
  35 0004 43F00103 		orr	r3, r3, #1
  36 0008 1370     		strb	r3, [r2]
  37 000a 7047     		bx	lr
  38              	.L3:
  39              		.align	2
  40              	.L2:
  41 000c 75640040 		.word	1073767541
  42              		.cfi_endproc
  43              	.LFE1:
  44              		.size	LFSR_Enable, .-LFSR_Enable
  45              		.section	.text.LFSR_Stop,"ax",%progbits
  46              		.align	2
  47              		.global	LFSR_Stop
  48              		.thumb
  49              		.thumb_func
  50              		.type	LFSR_Stop, %function
  51              	LFSR_Stop:
  52              	.LFB3:
 101:Generated_Source\PSoC5/LFSR.c **** }
 102:Generated_Source\PSoC5/LFSR.c **** 
 103:Generated_Source\PSoC5/LFSR.c **** 
 104:Generated_Source\PSoC5/LFSR.c **** /*******************************************************************************
 105:Generated_Source\PSoC5/LFSR.c **** * Function Name: LFSR_Start
 106:Generated_Source\PSoC5/LFSR.c **** ********************************************************************************
 107:Generated_Source\PSoC5/LFSR.c **** *
 108:Generated_Source\PSoC5/LFSR.c **** * Summary:
 109:Generated_Source\PSoC5/LFSR.c **** *  Initializes seed and polynomial registers with initial values. Computation
 110:Generated_Source\PSoC5/LFSR.c **** *  of PRS starts on rising edge of input clock.
 111:Generated_Source\PSoC5/LFSR.c **** *
 112:Generated_Source\PSoC5/LFSR.c **** * Parameters:
 113:Generated_Source\PSoC5/LFSR.c **** *  void
 114:Generated_Source\PSoC5/LFSR.c **** *
 115:Generated_Source\PSoC5/LFSR.c **** * Return:
 116:Generated_Source\PSoC5/LFSR.c **** *  void
 117:Generated_Source\PSoC5/LFSR.c **** *
 118:Generated_Source\PSoC5/LFSR.c **** * Global variables:
 119:Generated_Source\PSoC5/LFSR.c **** *  LFSR_initVar: global variable is used to indicate initial
ARM GAS  C:\Users\214016~1\AppData\Local\Temp\cc8D0TYi.s 			page 4


 120:Generated_Source\PSoC5/LFSR.c **** *  configuration of this component.  The variable is initialized to zero and set
 121:Generated_Source\PSoC5/LFSR.c **** *  to 1 the first time LFSR_Start() is called. This allows
 122:Generated_Source\PSoC5/LFSR.c **** *  enable/disable component without re-initialization in all subsequent calls
 123:Generated_Source\PSoC5/LFSR.c **** *  to the LFSR_Start() routine.
 124:Generated_Source\PSoC5/LFSR.c **** *
 125:Generated_Source\PSoC5/LFSR.c **** *******************************************************************************/
 126:Generated_Source\PSoC5/LFSR.c **** void LFSR_Start(void) 
 127:Generated_Source\PSoC5/LFSR.c **** {
 128:Generated_Source\PSoC5/LFSR.c ****     /* Writes seed value and ponynom value provided from customizer */
 129:Generated_Source\PSoC5/LFSR.c ****     if (LFSR_initVar == 0u)
 130:Generated_Source\PSoC5/LFSR.c ****     {
 131:Generated_Source\PSoC5/LFSR.c ****         LFSR_Init();
 132:Generated_Source\PSoC5/LFSR.c ****         LFSR_initVar = 1u;
 133:Generated_Source\PSoC5/LFSR.c ****     }
 134:Generated_Source\PSoC5/LFSR.c **** 
 135:Generated_Source\PSoC5/LFSR.c ****     LFSR_Enable();
 136:Generated_Source\PSoC5/LFSR.c **** }
 137:Generated_Source\PSoC5/LFSR.c **** 
 138:Generated_Source\PSoC5/LFSR.c **** 
 139:Generated_Source\PSoC5/LFSR.c **** /*******************************************************************************
 140:Generated_Source\PSoC5/LFSR.c **** * Function Name: LFSR_Stop
 141:Generated_Source\PSoC5/LFSR.c **** ********************************************************************************
 142:Generated_Source\PSoC5/LFSR.c **** *
 143:Generated_Source\PSoC5/LFSR.c **** * Summary:
 144:Generated_Source\PSoC5/LFSR.c **** *  Stops PRS computation.
 145:Generated_Source\PSoC5/LFSR.c **** *
 146:Generated_Source\PSoC5/LFSR.c **** * Parameters:
 147:Generated_Source\PSoC5/LFSR.c **** *  void
 148:Generated_Source\PSoC5/LFSR.c **** *
 149:Generated_Source\PSoC5/LFSR.c **** * Return:
 150:Generated_Source\PSoC5/LFSR.c **** *  void
 151:Generated_Source\PSoC5/LFSR.c **** *
 152:Generated_Source\PSoC5/LFSR.c **** *******************************************************************************/
 153:Generated_Source\PSoC5/LFSR.c **** void LFSR_Stop(void) 
 154:Generated_Source\PSoC5/LFSR.c **** {
  53              		.loc 1 154 0
  54              		.cfi_startproc
  55              		@ args = 0, pretend = 0, frame = 0
  56              		@ frame_needed = 0, uses_anonymous_args = 0
  57              		@ link register save eliminated.
 155:Generated_Source\PSoC5/LFSR.c ****     LFSR_CONTROL_REG &= ((uint8)~LFSR_CTRL_ENABLE);
  58              		.loc 1 155 0
  59 0000 024A     		ldr	r2, .L5
  60 0002 1378     		ldrb	r3, [r2]	@ zero_extendqisi2
  61 0004 03F0FE03 		and	r3, r3, #254
  62 0008 1370     		strb	r3, [r2]
  63 000a 7047     		bx	lr
  64              	.L6:
  65              		.align	2
  66              	.L5:
  67 000c 75640040 		.word	1073767541
  68              		.cfi_endproc
  69              	.LFE3:
  70              		.size	LFSR_Stop, .-LFSR_Stop
  71              		.section	.text.LFSR_ResetSeedInit,"ax",%progbits
  72              		.align	2
  73              		.global	LFSR_ResetSeedInit
ARM GAS  C:\Users\214016~1\AppData\Local\Temp\cc8D0TYi.s 			page 5


  74              		.thumb
  75              		.thumb_func
  76              		.type	LFSR_ResetSeedInit, %function
  77              	LFSR_ResetSeedInit:
  78              	.LFB4:
 156:Generated_Source\PSoC5/LFSR.c **** }
 157:Generated_Source\PSoC5/LFSR.c **** 
 158:Generated_Source\PSoC5/LFSR.c **** 
 159:Generated_Source\PSoC5/LFSR.c **** #if (LFSR_RUN_MODE == LFSR__APISINGLESTEP)
 160:Generated_Source\PSoC5/LFSR.c ****     /*******************************************************************************
 161:Generated_Source\PSoC5/LFSR.c ****     * FUNCTION NAME: LFSR_Step
 162:Generated_Source\PSoC5/LFSR.c ****     ********************************************************************************
 163:Generated_Source\PSoC5/LFSR.c ****     *
 164:Generated_Source\PSoC5/LFSR.c ****     * Summary:
 165:Generated_Source\PSoC5/LFSR.c ****     *  Increments the PRS by one when API single step mode is used.
 166:Generated_Source\PSoC5/LFSR.c ****     *
 167:Generated_Source\PSoC5/LFSR.c ****     * Parameters:
 168:Generated_Source\PSoC5/LFSR.c ****     *  void
 169:Generated_Source\PSoC5/LFSR.c ****     *
 170:Generated_Source\PSoC5/LFSR.c ****     * Return:
 171:Generated_Source\PSoC5/LFSR.c ****     *  void
 172:Generated_Source\PSoC5/LFSR.c ****     *
 173:Generated_Source\PSoC5/LFSR.c ****     *******************************************************************************/
 174:Generated_Source\PSoC5/LFSR.c ****     void LFSR_Step(void) 
 175:Generated_Source\PSoC5/LFSR.c ****     {
 176:Generated_Source\PSoC5/LFSR.c ****         #if (LFSR_TIME_MULTIPLEXING_ENABLE)
 177:Generated_Source\PSoC5/LFSR.c ****             /* Makes 4 pulse, 4x for Time Mult */
 178:Generated_Source\PSoC5/LFSR.c ****             LFSR_EXECUTE_STEP;
 179:Generated_Source\PSoC5/LFSR.c ****             LFSR_EXECUTE_STEP;
 180:Generated_Source\PSoC5/LFSR.c ****             LFSR_EXECUTE_STEP;
 181:Generated_Source\PSoC5/LFSR.c ****             LFSR_EXECUTE_STEP;
 182:Generated_Source\PSoC5/LFSR.c **** 
 183:Generated_Source\PSoC5/LFSR.c ****         #else
 184:Generated_Source\PSoC5/LFSR.c ****             /* One pulse without Time mult required */
 185:Generated_Source\PSoC5/LFSR.c ****             LFSR_EXECUTE_STEP;
 186:Generated_Source\PSoC5/LFSR.c **** 
 187:Generated_Source\PSoC5/LFSR.c ****         #endif  /* End LFSR_TIME_MULTIPLEXING_ENABLE */
 188:Generated_Source\PSoC5/LFSR.c ****     }
 189:Generated_Source\PSoC5/LFSR.c **** #endif  /* End (LFSR_RUN_MODE == LFSR__APISINGLESTEP) */
 190:Generated_Source\PSoC5/LFSR.c **** 
 191:Generated_Source\PSoC5/LFSR.c **** 
 192:Generated_Source\PSoC5/LFSR.c **** #if (LFSR_RUN_MODE == LFSR__CLOCKED)
 193:Generated_Source\PSoC5/LFSR.c ****     #if (LFSR_PRS_SIZE <= 32u) /* 8-32 bits PRS */
 194:Generated_Source\PSoC5/LFSR.c ****         /*******************************************************************************
 195:Generated_Source\PSoC5/LFSR.c ****         * FUNCTION NAME: LFSR_ResetSeedInit
 196:Generated_Source\PSoC5/LFSR.c ****         ********************************************************************************
 197:Generated_Source\PSoC5/LFSR.c ****         *
 198:Generated_Source\PSoC5/LFSR.c ****         * Summary:
 199:Generated_Source\PSoC5/LFSR.c ****         *  Increments the PRS by one when API single step mode is used.
 200:Generated_Source\PSoC5/LFSR.c ****         *
 201:Generated_Source\PSoC5/LFSR.c ****         * Parameters:
 202:Generated_Source\PSoC5/LFSR.c ****         *  void
 203:Generated_Source\PSoC5/LFSR.c ****         *
 204:Generated_Source\PSoC5/LFSR.c ****         * Return:
 205:Generated_Source\PSoC5/LFSR.c ****         *  void
 206:Generated_Source\PSoC5/LFSR.c ****         *
 207:Generated_Source\PSoC5/LFSR.c ****         *******************************************************************************/
ARM GAS  C:\Users\214016~1\AppData\Local\Temp\cc8D0TYi.s 			page 6


 208:Generated_Source\PSoC5/LFSR.c ****         void LFSR_ResetSeedInit(uint16 seed)
 209:Generated_Source\PSoC5/LFSR.c ****                                             
 210:Generated_Source\PSoC5/LFSR.c ****         {
  79              		.loc 1 210 0
  80              		.cfi_startproc
  81              		@ args = 0, pretend = 0, frame = 0
  82              		@ frame_needed = 0, uses_anonymous_args = 0
  83              	.LVL0:
  84 0000 10B5     		push	{r4, lr}
  85              		.cfi_def_cfa_offset 8
  86              		.cfi_offset 4, -8
  87              		.cfi_offset 14, -4
 211:Generated_Source\PSoC5/LFSR.c ****             uint8 enableInterrupts;
 212:Generated_Source\PSoC5/LFSR.c **** 
 213:Generated_Source\PSoC5/LFSR.c ****             /* Mask the Seed to cut unused bits */
 214:Generated_Source\PSoC5/LFSR.c ****             seed &= LFSR_MASK;
  88              		.loc 1 214 0
  89 0002 C0F30D04 		ubfx	r4, r0, #0, #14
  90              	.LVL1:
 215:Generated_Source\PSoC5/LFSR.c **** 
 216:Generated_Source\PSoC5/LFSR.c ****             /* Change AuxControl reg, need to be safety */
 217:Generated_Source\PSoC5/LFSR.c ****             enableInterrupts = CyEnterCriticalSection();
  91              		.loc 1 217 0
  92 0006 FFF7FEFF 		bl	CyEnterCriticalSection
  93              	.LVL2:
 218:Generated_Source\PSoC5/LFSR.c **** 
 219:Generated_Source\PSoC5/LFSR.c ****             #if (LFSR_TIME_MULTIPLEXING_ENABLE)
 220:Generated_Source\PSoC5/LFSR.c ****                 /* Set FIFOs to single register */
 221:Generated_Source\PSoC5/LFSR.c ****                 LFSR_AUX_CONTROL_A_REG |= LFSR_AUXCTRL_FIFO_SINGLE_REG;
 222:Generated_Source\PSoC5/LFSR.c **** 
 223:Generated_Source\PSoC5/LFSR.c ****                 #if(LFSR_PRS_SIZE > 16u)       /* 17-32 bits PRS */
 224:Generated_Source\PSoC5/LFSR.c ****                     LFSR_AUX_CONTROL_B_REG |= LFSR_AUXCTRL_FIFO_SINGLE_REG;
 225:Generated_Source\PSoC5/LFSR.c ****                 #endif  /* End (LFSR_PRS_SIZE <= 8u) */
 226:Generated_Source\PSoC5/LFSR.c **** 
 227:Generated_Source\PSoC5/LFSR.c ****                 /* AuxControl reg settings are done */
 228:Generated_Source\PSoC5/LFSR.c ****                 CyExitCriticalSection(enableInterrupts);
 229:Generated_Source\PSoC5/LFSR.c **** 
 230:Generated_Source\PSoC5/LFSR.c ****                 /* Write Seed COPY */
 231:Generated_Source\PSoC5/LFSR.c ****                 #if (LFSR_PRS_SIZE <= 16u)          /* 16 bits PRS */
 232:Generated_Source\PSoC5/LFSR.c ****                     LFSR_SEED_COPY_A__A1_REG = HI8(seed);
 233:Generated_Source\PSoC5/LFSR.c ****                     LFSR_SEED_COPY_A__A0_REG = LO8(seed);
 234:Generated_Source\PSoC5/LFSR.c **** 
 235:Generated_Source\PSoC5/LFSR.c ****                 #elif (LFSR_PRS_SIZE <= 24u)        /* 24 bits PRS */
 236:Generated_Source\PSoC5/LFSR.c ****                     LFSR_SEED_COPY_B__A1_REG = LO8(HI16(seed));
 237:Generated_Source\PSoC5/LFSR.c ****                     LFSR_SEED_COPY_B__A0_REG = HI8(seed);
 238:Generated_Source\PSoC5/LFSR.c ****                     LFSR_SEED_COPY_A__A0_REG = LO8(seed);
 239:Generated_Source\PSoC5/LFSR.c **** 
 240:Generated_Source\PSoC5/LFSR.c ****                 #else                                           /* 32 bits PRS */
 241:Generated_Source\PSoC5/LFSR.c ****                     LFSR_SEED_COPY_B__A1_REG = HI8(HI16(seed));
 242:Generated_Source\PSoC5/LFSR.c ****                     LFSR_SEED_COPY_A__A1_REG = LO8(HI16(seed));
 243:Generated_Source\PSoC5/LFSR.c ****                     LFSR_SEED_COPY_B__A0_REG = HI8(seed);
 244:Generated_Source\PSoC5/LFSR.c ****                     LFSR_SEED_COPY_A__A0_REG = LO8(seed);
 245:Generated_Source\PSoC5/LFSR.c ****                 #endif  /* End (LFSR_PRS_SIZE <= 32u) */
 246:Generated_Source\PSoC5/LFSR.c **** 
 247:Generated_Source\PSoC5/LFSR.c ****             #else
 248:Generated_Source\PSoC5/LFSR.c ****                 /* Set FIFOs to single register */
 249:Generated_Source\PSoC5/LFSR.c ****                 #if (LFSR_PRS_SIZE <= 8u)      /* 8 bits PRS */
ARM GAS  C:\Users\214016~1\AppData\Local\Temp\cc8D0TYi.s 			page 7


 250:Generated_Source\PSoC5/LFSR.c ****                     LFSR_AUX_CONTROL_A_REG |= LFSR_AUXCTRL_FIFO_SINGLE_REG;
 251:Generated_Source\PSoC5/LFSR.c **** 
 252:Generated_Source\PSoC5/LFSR.c ****                 #elif (LFSR_PRS_SIZE <= 16u)      /* 16 bits PRS */
 253:Generated_Source\PSoC5/LFSR.c ****                     LFSR_AUX_CONTROL_A_REG  |= LFSR_AUXCTRL_FIFO_SINGLE_REG;
  94              		.loc 1 253 0
  95 000a 074A     		ldr	r2, .L9
  96 000c 1378     		ldrb	r3, [r2]	@ zero_extendqisi2
  97 000e 43F00303 		orr	r3, r3, #3
  98 0012 1370     		strb	r3, [r2]
 254:Generated_Source\PSoC5/LFSR.c ****                     LFSR_AUX_CONTROL_B_REG  |= LFSR_AUXCTRL_FIFO_SINGLE_REG;
  99              		.loc 1 254 0
 100 0014 0132     		adds	r2, r2, #1
 101 0016 1378     		ldrb	r3, [r2]	@ zero_extendqisi2
 102 0018 43F00303 		orr	r3, r3, #3
 103 001c 1370     		strb	r3, [r2]
 255:Generated_Source\PSoC5/LFSR.c **** 
 256:Generated_Source\PSoC5/LFSR.c ****                 #elif (LFSR_PRS_SIZE <= 24u)      /* 24-39 bits PRS */
 257:Generated_Source\PSoC5/LFSR.c ****                     LFSR_AUX_CONTROL_A_REG  |= LFSR_AUXCTRL_FIFO_SINGLE_REG;
 258:Generated_Source\PSoC5/LFSR.c ****                     LFSR_AUX_CONTROL_B_REG  |= LFSR_AUXCTRL_FIFO_SINGLE_REG;
 259:Generated_Source\PSoC5/LFSR.c ****                     LFSR_AUX_CONTROL_C_REG  |= LFSR_AUXCTRL_FIFO_SINGLE_REG;
 260:Generated_Source\PSoC5/LFSR.c **** 
 261:Generated_Source\PSoC5/LFSR.c ****                 #elif (LFSR_PRS_SIZE <= 32u)      /* 40-55 bits PRS */
 262:Generated_Source\PSoC5/LFSR.c ****                     LFSR_AUX_CONTROL_A_REG  |= LFSR_AUXCTRL_FIFO_SINGLE_REG;
 263:Generated_Source\PSoC5/LFSR.c ****                     LFSR_AUX_CONTROL_B_REG  |= LFSR_AUXCTRL_FIFO_SINGLE_REG;
 264:Generated_Source\PSoC5/LFSR.c ****                     LFSR_AUX_CONTROL_C_REG  |= LFSR_AUXCTRL_FIFO_SINGLE_REG;
 265:Generated_Source\PSoC5/LFSR.c ****                     LFSR_AUX_CONTROL_D_REG  |= LFSR_AUXCTRL_FIFO_SINGLE_REG;
 266:Generated_Source\PSoC5/LFSR.c **** 
 267:Generated_Source\PSoC5/LFSR.c ****                 #endif  /* End (LFSR_PRS_SIZE <= 8u) */
 268:Generated_Source\PSoC5/LFSR.c **** 
 269:Generated_Source\PSoC5/LFSR.c ****                 /* AuxControl reg setting are done */
 270:Generated_Source\PSoC5/LFSR.c ****                 CyExitCriticalSection(enableInterrupts);
 104              		.loc 1 270 0
 105 001e FFF7FEFF 		bl	CyExitCriticalSection
 106              	.LVL3:
 271:Generated_Source\PSoC5/LFSR.c **** 
 272:Generated_Source\PSoC5/LFSR.c ****                 /* Write Seed COPY */
 273:Generated_Source\PSoC5/LFSR.c ****                 CY_SET_REG16(LFSR_SEED_COPY_PTR, seed);
 107              		.loc 1 273 0
 108 0022 024B     		ldr	r3, .L9+4
 109 0024 1C80     		strh	r4, [r3]	@ movhi
 110 0026 10BD     		pop	{r4, pc}
 111              	.LVL4:
 112              	.L10:
 113              		.align	2
 114              	.L9:
 115 0028 96640040 		.word	1073767574
 116 002c 46640040 		.word	1073767494
 117              		.cfi_endproc
 118              	.LFE4:
 119              		.size	LFSR_ResetSeedInit, .-LFSR_ResetSeedInit
 120              		.section	.text.LFSR_Read,"ax",%progbits
 121              		.align	2
 122              		.global	LFSR_Read
 123              		.thumb
 124              		.thumb_func
 125              		.type	LFSR_Read, %function
 126              	LFSR_Read:
ARM GAS  C:\Users\214016~1\AppData\Local\Temp\cc8D0TYi.s 			page 8


 127              	.LFB5:
 274:Generated_Source\PSoC5/LFSR.c **** 
 275:Generated_Source\PSoC5/LFSR.c ****             #endif  /* End (LFSR_TIME_MULTIPLEXING_ENABLE) */
 276:Generated_Source\PSoC5/LFSR.c ****         }
 277:Generated_Source\PSoC5/LFSR.c **** 
 278:Generated_Source\PSoC5/LFSR.c ****     #else
 279:Generated_Source\PSoC5/LFSR.c **** 
 280:Generated_Source\PSoC5/LFSR.c ****         /*******************************************************************************
 281:Generated_Source\PSoC5/LFSR.c ****         * FUNCTION NAME: LFSR_ResetSeedInitUpper
 282:Generated_Source\PSoC5/LFSR.c ****         ********************************************************************************
 283:Generated_Source\PSoC5/LFSR.c ****         *
 284:Generated_Source\PSoC5/LFSR.c ****         * Summary:
 285:Generated_Source\PSoC5/LFSR.c ****         *  Increments the PRS by one when API single step mode is used.
 286:Generated_Source\PSoC5/LFSR.c ****         *
 287:Generated_Source\PSoC5/LFSR.c ****         * Parameters:
 288:Generated_Source\PSoC5/LFSR.c ****         *  void
 289:Generated_Source\PSoC5/LFSR.c ****         *
 290:Generated_Source\PSoC5/LFSR.c ****         * Return:
 291:Generated_Source\PSoC5/LFSR.c ****         *  void
 292:Generated_Source\PSoC5/LFSR.c ****         *
 293:Generated_Source\PSoC5/LFSR.c ****         *******************************************************************************/
 294:Generated_Source\PSoC5/LFSR.c ****         void LFSR_ResetSeedInitUpper(uint32 seed) 
 295:Generated_Source\PSoC5/LFSR.c ****         {
 296:Generated_Source\PSoC5/LFSR.c **** 			uint8 enableInterrupts;
 297:Generated_Source\PSoC5/LFSR.c **** 
 298:Generated_Source\PSoC5/LFSR.c **** 			/* Mask the Seed Upper half to cut unused bits */
 299:Generated_Source\PSoC5/LFSR.c ****             seed &= LFSR_MASK;
 300:Generated_Source\PSoC5/LFSR.c **** 
 301:Generated_Source\PSoC5/LFSR.c **** 			/* Change AuxControl reg, need to be safety */
 302:Generated_Source\PSoC5/LFSR.c ****             enableInterrupts = CyEnterCriticalSection();
 303:Generated_Source\PSoC5/LFSR.c **** 
 304:Generated_Source\PSoC5/LFSR.c ****             /* Set FIFOs to single register */
 305:Generated_Source\PSoC5/LFSR.c ****             LFSR_AUX_CONTROL_A_REG |= LFSR_AUXCTRL_FIFO_SINGLE_REG;
 306:Generated_Source\PSoC5/LFSR.c ****             LFSR_AUX_CONTROL_B_REG |= LFSR_AUXCTRL_FIFO_SINGLE_REG;
 307:Generated_Source\PSoC5/LFSR.c ****             LFSR_AUX_CONTROL_C_REG |= LFSR_AUXCTRL_FIFO_SINGLE_REG;
 308:Generated_Source\PSoC5/LFSR.c **** 
 309:Generated_Source\PSoC5/LFSR.c **** 			#if (LFSR_PRS_SIZE > 48u)               /* 49-64 bits PRS */
 310:Generated_Source\PSoC5/LFSR.c ****                 LFSR_AUX_CONTROL_D_REG |= LFSR_AUXCTRL_FIFO_SINGLE_REG;
 311:Generated_Source\PSoC5/LFSR.c ****             #endif  /* End (LFSR_PRS_SIZE <= 8u) */
 312:Generated_Source\PSoC5/LFSR.c **** 
 313:Generated_Source\PSoC5/LFSR.c ****             /* AuxControl reg settings are done */
 314:Generated_Source\PSoC5/LFSR.c ****             CyExitCriticalSection(enableInterrupts);
 315:Generated_Source\PSoC5/LFSR.c **** 
 316:Generated_Source\PSoC5/LFSR.c ****             /* Write Seed Upper COPY */
 317:Generated_Source\PSoC5/LFSR.c ****             #if (LFSR_PRS_SIZE <= 40u)          /* 40 bits PRS */
 318:Generated_Source\PSoC5/LFSR.c ****                 LFSR_SEED_UPPER_COPY_C__A1_REG = LO8(seed);
 319:Generated_Source\PSoC5/LFSR.c **** 
 320:Generated_Source\PSoC5/LFSR.c ****             #elif (LFSR_PRS_SIZE <= 48u)        /* 48 bits PRS */
 321:Generated_Source\PSoC5/LFSR.c ****                 LFSR_SEED_UPPER_COPY_C__A1_REG = HI8(seed);
 322:Generated_Source\PSoC5/LFSR.c ****                 LFSR_SEED_UPPER_COPY_B__A1_REG = LO8(seed);
 323:Generated_Source\PSoC5/LFSR.c **** 
 324:Generated_Source\PSoC5/LFSR.c ****             #elif (LFSR_PRS_SIZE <= 56u)        /* 56 bits PRS */
 325:Generated_Source\PSoC5/LFSR.c ****                 LFSR_SEED_UPPER_COPY_D__A1_REG = LO8(HI16(seed));
 326:Generated_Source\PSoC5/LFSR.c ****                 LFSR_SEED_UPPER_COPY_C__A1_REG = HI8(seed);
 327:Generated_Source\PSoC5/LFSR.c ****                 LFSR_SEED_UPPER_COPY_B__A1_REG = HI8(seed);
 328:Generated_Source\PSoC5/LFSR.c **** 
 329:Generated_Source\PSoC5/LFSR.c ****             #else                                           /* 64 bits PRS */
ARM GAS  C:\Users\214016~1\AppData\Local\Temp\cc8D0TYi.s 			page 9


 330:Generated_Source\PSoC5/LFSR.c ****                 LFSR_SEED_UPPER_COPY_D__A1_REG = HI8(HI16(seed));
 331:Generated_Source\PSoC5/LFSR.c ****                 LFSR_SEED_UPPER_COPY_C__A1_REG = LO8(HI16(seed));
 332:Generated_Source\PSoC5/LFSR.c ****                 LFSR_SEED_UPPER_COPY_B__A1_REG = HI8(seed);
 333:Generated_Source\PSoC5/LFSR.c ****                 LFSR_SEED_UPPER_COPY_A__A1_REG = LO8(seed);
 334:Generated_Source\PSoC5/LFSR.c **** 
 335:Generated_Source\PSoC5/LFSR.c ****             #endif  /* End (LFSR_PRS_SIZE <= 32u) */
 336:Generated_Source\PSoC5/LFSR.c ****         }
 337:Generated_Source\PSoC5/LFSR.c **** 
 338:Generated_Source\PSoC5/LFSR.c **** 
 339:Generated_Source\PSoC5/LFSR.c ****         /*******************************************************************************
 340:Generated_Source\PSoC5/LFSR.c ****         * FUNCTION NAME: LFSR_ResetSeedInitLower
 341:Generated_Source\PSoC5/LFSR.c ****         ********************************************************************************
 342:Generated_Source\PSoC5/LFSR.c ****         *
 343:Generated_Source\PSoC5/LFSR.c ****         * Summary:
 344:Generated_Source\PSoC5/LFSR.c ****         *  Increments the PRS by one when API single step mode is used.
 345:Generated_Source\PSoC5/LFSR.c ****         *
 346:Generated_Source\PSoC5/LFSR.c ****         * Parameters:
 347:Generated_Source\PSoC5/LFSR.c ****         *  void
 348:Generated_Source\PSoC5/LFSR.c ****         *
 349:Generated_Source\PSoC5/LFSR.c ****         * Return:
 350:Generated_Source\PSoC5/LFSR.c ****         *  void
 351:Generated_Source\PSoC5/LFSR.c ****         *
 352:Generated_Source\PSoC5/LFSR.c ****         *******************************************************************************/
 353:Generated_Source\PSoC5/LFSR.c ****         void LFSR_ResetSeedInitLower(uint32 seed) 
 354:Generated_Source\PSoC5/LFSR.c ****         {
 355:Generated_Source\PSoC5/LFSR.c ****             /* Write Seed Lower COPY */
 356:Generated_Source\PSoC5/LFSR.c ****             #if (LFSR_PRS_SIZE <= 40u)          /* 40 bits PRS */
 357:Generated_Source\PSoC5/LFSR.c ****                 LFSR_SEED_LOWER_COPY_B__A1_REG = HI8(HI16(seed));
 358:Generated_Source\PSoC5/LFSR.c ****                 LFSR_SEED_LOWER_COPY_C__A0_REG = LO8(HI16(seed));
 359:Generated_Source\PSoC5/LFSR.c ****                 LFSR_SEED_LOWER_COPY_B__A0_REG = HI8(seed);
 360:Generated_Source\PSoC5/LFSR.c ****                 LFSR_SEED_LOWER_COPY_A__A0_REG = LO8(seed);
 361:Generated_Source\PSoC5/LFSR.c **** 
 362:Generated_Source\PSoC5/LFSR.c ****             #elif (LFSR_PRS_SIZE <= 48u)        /* 48 bits PRS */
 363:Generated_Source\PSoC5/LFSR.c ****                 LFSR_SEED_LOWER_COPY_A__A1_REG = HI8(HI16(seed));
 364:Generated_Source\PSoC5/LFSR.c ****                 LFSR_SEED_LOWER_COPY_C__A0_REG = LO8(HI16(seed));
 365:Generated_Source\PSoC5/LFSR.c ****                 LFSR_SEED_LOWER_COPY_B__A0_REG = HI8(seed);
 366:Generated_Source\PSoC5/LFSR.c ****                 LFSR_SEED_LOWER_COPY_A__A0_REG = LO8(seed);
 367:Generated_Source\PSoC5/LFSR.c **** 
 368:Generated_Source\PSoC5/LFSR.c ****             #else                                           /* 64 bits PRS */
 369:Generated_Source\PSoC5/LFSR.c ****                 LFSR_SEED_LOWER_COPY_D__A0_REG = HI8(HI16(seed));
 370:Generated_Source\PSoC5/LFSR.c ****                 LFSR_SEED_LOWER_COPY_C__A0_REG = LO8(HI16(seed));
 371:Generated_Source\PSoC5/LFSR.c ****                 LFSR_SEED_LOWER_COPY_B__A0_REG = HI8(seed);
 372:Generated_Source\PSoC5/LFSR.c ****                 LFSR_SEED_LOWER_COPY_A__A0_REG = LO8(seed);
 373:Generated_Source\PSoC5/LFSR.c **** 
 374:Generated_Source\PSoC5/LFSR.c ****             #endif  /* End (LFSR_PRS_SIZE <= 32u) */
 375:Generated_Source\PSoC5/LFSR.c ****         }
 376:Generated_Source\PSoC5/LFSR.c **** 
 377:Generated_Source\PSoC5/LFSR.c ****     #endif  /* End (LFSR_PRS_SIZE <= 32u) */
 378:Generated_Source\PSoC5/LFSR.c **** 
 379:Generated_Source\PSoC5/LFSR.c **** #endif  /* End (LFSR_RUN_MODE == LFSR__CLOCKED) */
 380:Generated_Source\PSoC5/LFSR.c **** 
 381:Generated_Source\PSoC5/LFSR.c **** 
 382:Generated_Source\PSoC5/LFSR.c **** #if(LFSR_PRS_SIZE <= 32u) /* 8-32 bits PRS */
 383:Generated_Source\PSoC5/LFSR.c ****     /*******************************************************************************
 384:Generated_Source\PSoC5/LFSR.c ****     * Function Name: LFSR_Read
 385:Generated_Source\PSoC5/LFSR.c ****     ********************************************************************************
 386:Generated_Source\PSoC5/LFSR.c ****     *
ARM GAS  C:\Users\214016~1\AppData\Local\Temp\cc8D0TYi.s 			page 10


 387:Generated_Source\PSoC5/LFSR.c ****     * Summary:
 388:Generated_Source\PSoC5/LFSR.c ****     *  Reads PRS value.
 389:Generated_Source\PSoC5/LFSR.c ****     *
 390:Generated_Source\PSoC5/LFSR.c ****     * Parameters:
 391:Generated_Source\PSoC5/LFSR.c ****     *  void
 392:Generated_Source\PSoC5/LFSR.c ****     *
 393:Generated_Source\PSoC5/LFSR.c ****     * Return:
 394:Generated_Source\PSoC5/LFSR.c ****     *  Returns PRS value.
 395:Generated_Source\PSoC5/LFSR.c ****     *
 396:Generated_Source\PSoC5/LFSR.c ****     * Side Effects:
 397:Generated_Source\PSoC5/LFSR.c ****     *  The seed value is cut according to mask = 2^(Resolution) - 1.
 398:Generated_Source\PSoC5/LFSR.c ****     *  For example if PRS Resolution is 14 bits the mask value is:
 399:Generated_Source\PSoC5/LFSR.c ****     *  mask = 2^(14) - 1 = 0x3FFFu.
 400:Generated_Source\PSoC5/LFSR.c ****     *  The seed value = 0xFFFFu is cut:
 401:Generated_Source\PSoC5/LFSR.c ****     *  seed & mask = 0xFFFFu & 0x3FFFu = 0x3FFFu.
 402:Generated_Source\PSoC5/LFSR.c ****     *
 403:Generated_Source\PSoC5/LFSR.c ****     *******************************************************************************/
 404:Generated_Source\PSoC5/LFSR.c ****     uint16 LFSR_Read(void) 
 405:Generated_Source\PSoC5/LFSR.c ****     {
 128              		.loc 1 405 0
 129              		.cfi_startproc
 130              		@ args = 0, pretend = 0, frame = 0
 131              		@ frame_needed = 0, uses_anonymous_args = 0
 132              		@ link register save eliminated.
 406:Generated_Source\PSoC5/LFSR.c ****         /* Read PRS */
 407:Generated_Source\PSoC5/LFSR.c ****         #if (LFSR_TIME_MULTIPLEXING_ENABLE)
 408:Generated_Source\PSoC5/LFSR.c **** 
 409:Generated_Source\PSoC5/LFSR.c ****             uint16 seed;
 410:Generated_Source\PSoC5/LFSR.c **** 
 411:Generated_Source\PSoC5/LFSR.c ****             #if (LFSR_PRS_SIZE <= 16u)          /* 16 bits PRS */
 412:Generated_Source\PSoC5/LFSR.c ****                 seed = ((uint16) LFSR_SEED_A__A1_REG) << 8u;
 413:Generated_Source\PSoC5/LFSR.c ****                 seed |= LFSR_SEED_A__A0_REG;
 414:Generated_Source\PSoC5/LFSR.c **** 
 415:Generated_Source\PSoC5/LFSR.c ****             #elif (LFSR_PRS_SIZE <= 24u)        /* 24 bits PRS */
 416:Generated_Source\PSoC5/LFSR.c ****                 seed = ((uint32) (LFSR_SEED_B__A1_REG)) << 16u;
 417:Generated_Source\PSoC5/LFSR.c ****                 seed |= ((uint32) (LFSR_SEED_B__A0_REG)) << 8u;
 418:Generated_Source\PSoC5/LFSR.c ****                 seed |= LFSR_SEED_A__A0_REG;
 419:Generated_Source\PSoC5/LFSR.c **** 
 420:Generated_Source\PSoC5/LFSR.c ****             #else                                           /* 32 bits PRS */
 421:Generated_Source\PSoC5/LFSR.c ****                 seed = ((uint32) LFSR_SEED_B__A1_REG) << 24u;
 422:Generated_Source\PSoC5/LFSR.c ****                 seed |= ((uint32) LFSR_SEED_A__A1_REG) << 16u;
 423:Generated_Source\PSoC5/LFSR.c ****                 seed |= ((uint32) LFSR_SEED_B__A0_REG) << 8u;
 424:Generated_Source\PSoC5/LFSR.c ****                 seed |= LFSR_SEED_A__A0_REG;
 425:Generated_Source\PSoC5/LFSR.c **** 
 426:Generated_Source\PSoC5/LFSR.c ****             #endif  /* End (LFSR_PRS_SIZE <= 8u) */
 427:Generated_Source\PSoC5/LFSR.c **** 
 428:Generated_Source\PSoC5/LFSR.c ****             return (seed  & LFSR_MASK);
 429:Generated_Source\PSoC5/LFSR.c **** 
 430:Generated_Source\PSoC5/LFSR.c ****         #else
 431:Generated_Source\PSoC5/LFSR.c **** 
 432:Generated_Source\PSoC5/LFSR.c ****             return (CY_GET_REG16(LFSR_SEED_PTR) & LFSR_MASK);
 133              		.loc 1 432 0
 134 0000 024B     		ldr	r3, .L12
 135 0002 1888     		ldrh	r0, [r3]
 433:Generated_Source\PSoC5/LFSR.c **** 
 434:Generated_Source\PSoC5/LFSR.c ****         #endif  /* End (LFSR_TIME_MULTIPLEXING_ENABLE) */
 435:Generated_Source\PSoC5/LFSR.c ****     }
ARM GAS  C:\Users\214016~1\AppData\Local\Temp\cc8D0TYi.s 			page 11


 136              		.loc 1 435 0
 137 0004 C0F30D00 		ubfx	r0, r0, #0, #14
 138 0008 7047     		bx	lr
 139              	.L13:
 140 000a 00BF     		.align	2
 141              	.L12:
 142 000c 06640040 		.word	1073767430
 143              		.cfi_endproc
 144              	.LFE5:
 145              		.size	LFSR_Read, .-LFSR_Read
 146              		.section	.text.LFSR_WriteSeed,"ax",%progbits
 147              		.align	2
 148              		.global	LFSR_WriteSeed
 149              		.thumb
 150              		.thumb_func
 151              		.type	LFSR_WriteSeed, %function
 152              	LFSR_WriteSeed:
 153              	.LFB6:
 436:Generated_Source\PSoC5/LFSR.c **** 
 437:Generated_Source\PSoC5/LFSR.c **** 
 438:Generated_Source\PSoC5/LFSR.c ****     /*******************************************************************************
 439:Generated_Source\PSoC5/LFSR.c ****     * Function Name: LFSR_WriteSeed
 440:Generated_Source\PSoC5/LFSR.c ****     ********************************************************************************
 441:Generated_Source\PSoC5/LFSR.c ****     *
 442:Generated_Source\PSoC5/LFSR.c ****     * Summary:
 443:Generated_Source\PSoC5/LFSR.c ****     *  Writes seed value.
 444:Generated_Source\PSoC5/LFSR.c ****     *
 445:Generated_Source\PSoC5/LFSR.c ****     * Parameters:
 446:Generated_Source\PSoC5/LFSR.c ****     *  seed:  Seed value.
 447:Generated_Source\PSoC5/LFSR.c ****     *
 448:Generated_Source\PSoC5/LFSR.c ****     * Return:
 449:Generated_Source\PSoC5/LFSR.c ****     *  void
 450:Generated_Source\PSoC5/LFSR.c ****     *
 451:Generated_Source\PSoC5/LFSR.c ****     * Side Effects:
 452:Generated_Source\PSoC5/LFSR.c ****     *  The seed value is cut according to mask = 2^(Resolution) - 1.
 453:Generated_Source\PSoC5/LFSR.c ****     *  For example if PRS Resolution is 14 bits the mask value is:
 454:Generated_Source\PSoC5/LFSR.c ****     *  mask = 2^(14) - 1 = 0x3FFFu.
 455:Generated_Source\PSoC5/LFSR.c ****     *  The seed value = 0xFFFFu is cut:
 456:Generated_Source\PSoC5/LFSR.c ****     *  seed & mask = 0xFFFFu & 0x3FFFu = 0x3FFFu.
 457:Generated_Source\PSoC5/LFSR.c ****     *
 458:Generated_Source\PSoC5/LFSR.c ****     *******************************************************************************/
 459:Generated_Source\PSoC5/LFSR.c ****     void LFSR_WriteSeed(uint16 seed) 
 460:Generated_Source\PSoC5/LFSR.c ****     {
 154              		.loc 1 460 0
 155              		.cfi_startproc
 156              		@ args = 0, pretend = 0, frame = 0
 157              		@ frame_needed = 0, uses_anonymous_args = 0
 158              		@ link register save eliminated.
 159              	.LVL5:
 461:Generated_Source\PSoC5/LFSR.c ****         /* Masks the Seed to cut unused bits */
 462:Generated_Source\PSoC5/LFSR.c ****         seed &= LFSR_MASK;
 160              		.loc 1 462 0
 161 0000 C0F30D00 		ubfx	r0, r0, #0, #14
 162              	.LVL6:
 463:Generated_Source\PSoC5/LFSR.c **** 
 464:Generated_Source\PSoC5/LFSR.c ****         /* Writes Seed */
 465:Generated_Source\PSoC5/LFSR.c ****         #if (LFSR_TIME_MULTIPLEXING_ENABLE)
ARM GAS  C:\Users\214016~1\AppData\Local\Temp\cc8D0TYi.s 			page 12


 466:Generated_Source\PSoC5/LFSR.c **** 
 467:Generated_Source\PSoC5/LFSR.c ****             #if (LFSR_PRS_SIZE <= 16u)          /* 16 bits PRS */
 468:Generated_Source\PSoC5/LFSR.c ****                 LFSR_SEED_A__A1_REG = HI8(seed);
 469:Generated_Source\PSoC5/LFSR.c ****                 LFSR_SEED_A__A0_REG = LO8(seed);
 470:Generated_Source\PSoC5/LFSR.c **** 
 471:Generated_Source\PSoC5/LFSR.c ****             #elif (LFSR_PRS_SIZE <= 24u)        /* 24 bits PRS */
 472:Generated_Source\PSoC5/LFSR.c ****                 LFSR_SEED_B__A1_REG = LO8(HI16(seed));
 473:Generated_Source\PSoC5/LFSR.c ****                 LFSR_SEED_B__A0_REG = HI8(seed);
 474:Generated_Source\PSoC5/LFSR.c ****                 LFSR_SEED_A__A0_REG = LO8(seed);
 475:Generated_Source\PSoC5/LFSR.c **** 
 476:Generated_Source\PSoC5/LFSR.c ****             #else                                           /* 32 bits PRS */
 477:Generated_Source\PSoC5/LFSR.c ****                 LFSR_SEED_B__A1_REG = HI8(HI16(seed));
 478:Generated_Source\PSoC5/LFSR.c ****                 LFSR_SEED_A__A1_REG = LO8(HI16(seed));
 479:Generated_Source\PSoC5/LFSR.c ****                 LFSR_SEED_B__A0_REG = HI8(seed);
 480:Generated_Source\PSoC5/LFSR.c ****                 LFSR_SEED_A__A0_REG = LO8(seed);
 481:Generated_Source\PSoC5/LFSR.c ****             #endif  /* End (LFSR_PRS_SIZE <= 32u) */
 482:Generated_Source\PSoC5/LFSR.c **** 
 483:Generated_Source\PSoC5/LFSR.c ****             /* Resets triggers */
 484:Generated_Source\PSoC5/LFSR.c ****             #if (LFSR_WAKEUP_BEHAVIOUR == LFSR__RESUMEWORK)
 485:Generated_Source\PSoC5/LFSR.c ****                 if((LFSR_sleepState & LFSR_NORMAL_SEQUENCE) != 0u)
 486:Generated_Source\PSoC5/LFSR.c ****                 {
 487:Generated_Source\PSoC5/LFSR.c ****                     LFSR_EXECUTE_DFF_RESET;
 488:Generated_Source\PSoC5/LFSR.c ****                 }
 489:Generated_Source\PSoC5/LFSR.c ****             #else
 490:Generated_Source\PSoC5/LFSR.c ****                 LFSR_EXECUTE_DFF_RESET;
 491:Generated_Source\PSoC5/LFSR.c ****             #endif  /* (LFSR_WAKEUP_BEHAVIOUR == LFSR__RESUMEWORK) */
 492:Generated_Source\PSoC5/LFSR.c **** 
 493:Generated_Source\PSoC5/LFSR.c ****         #else
 494:Generated_Source\PSoC5/LFSR.c **** 
 495:Generated_Source\PSoC5/LFSR.c ****             CY_SET_REG16(LFSR_SEED_PTR, seed);
 163              		.loc 1 495 0
 164 0004 014B     		ldr	r3, .L15
 165 0006 1880     		strh	r0, [r3]	@ movhi
 166 0008 7047     		bx	lr
 167              	.L16:
 168 000a 00BF     		.align	2
 169              	.L15:
 170 000c 06640040 		.word	1073767430
 171              		.cfi_endproc
 172              	.LFE6:
 173              		.size	LFSR_WriteSeed, .-LFSR_WriteSeed
 174              		.section	.text.LFSR_ReadPolynomial,"ax",%progbits
 175              		.align	2
 176              		.global	LFSR_ReadPolynomial
 177              		.thumb
 178              		.thumb_func
 179              		.type	LFSR_ReadPolynomial, %function
 180              	LFSR_ReadPolynomial:
 181              	.LFB7:
 496:Generated_Source\PSoC5/LFSR.c **** 
 497:Generated_Source\PSoC5/LFSR.c ****         #endif  /* End (LFSR_TIME_MULTIPLEXING_ENABLE) */
 498:Generated_Source\PSoC5/LFSR.c ****     }
 499:Generated_Source\PSoC5/LFSR.c **** 
 500:Generated_Source\PSoC5/LFSR.c **** 
 501:Generated_Source\PSoC5/LFSR.c ****     /*******************************************************************************
 502:Generated_Source\PSoC5/LFSR.c ****     * Function Name: LFSR_ReadPolynomial
 503:Generated_Source\PSoC5/LFSR.c ****     ********************************************************************************
ARM GAS  C:\Users\214016~1\AppData\Local\Temp\cc8D0TYi.s 			page 13


 504:Generated_Source\PSoC5/LFSR.c ****     *
 505:Generated_Source\PSoC5/LFSR.c ****     * Summary:
 506:Generated_Source\PSoC5/LFSR.c ****     *  Reads PRS polynomial value.
 507:Generated_Source\PSoC5/LFSR.c ****     *
 508:Generated_Source\PSoC5/LFSR.c ****     * Parameters:
 509:Generated_Source\PSoC5/LFSR.c ****     *  void
 510:Generated_Source\PSoC5/LFSR.c ****     *
 511:Generated_Source\PSoC5/LFSR.c ****     * Return:
 512:Generated_Source\PSoC5/LFSR.c ****     *  Returns PRS polynomial value.
 513:Generated_Source\PSoC5/LFSR.c ****     *
 514:Generated_Source\PSoC5/LFSR.c ****     *******************************************************************************/
 515:Generated_Source\PSoC5/LFSR.c ****     uint16 LFSR_ReadPolynomial(void)
 516:Generated_Source\PSoC5/LFSR.c ****                                 
 517:Generated_Source\PSoC5/LFSR.c ****     {
 182              		.loc 1 517 0
 183              		.cfi_startproc
 184              		@ args = 0, pretend = 0, frame = 0
 185              		@ frame_needed = 0, uses_anonymous_args = 0
 186              		@ link register save eliminated.
 518:Generated_Source\PSoC5/LFSR.c ****         /* Reads polynomial */
 519:Generated_Source\PSoC5/LFSR.c ****         #if (LFSR_TIME_MULTIPLEXING_ENABLE)
 520:Generated_Source\PSoC5/LFSR.c **** 
 521:Generated_Source\PSoC5/LFSR.c ****             uint16 polynomial;
 522:Generated_Source\PSoC5/LFSR.c **** 
 523:Generated_Source\PSoC5/LFSR.c ****             #if (LFSR_PRS_SIZE <= 16u)          /* 16 bits PRS */
 524:Generated_Source\PSoC5/LFSR.c ****                 polynomial = ((uint16) LFSR_POLYNOM_A__D1_REG) << 8u;
 525:Generated_Source\PSoC5/LFSR.c ****                 polynomial |= (LFSR_POLYNOM_A__D0_REG);
 526:Generated_Source\PSoC5/LFSR.c **** 
 527:Generated_Source\PSoC5/LFSR.c ****             #elif (LFSR_PRS_SIZE <= 24u)        /* 24 bits PRS */
 528:Generated_Source\PSoC5/LFSR.c ****                 polynomial = ((uint32) LFSR_POLYNOM_B__D1_REG) << 16u;
 529:Generated_Source\PSoC5/LFSR.c ****                 polynomial |= ((uint32) LFSR_POLYNOM_B__D0_REG) << 8u;
 530:Generated_Source\PSoC5/LFSR.c ****                 polynomial |= LFSR_POLYNOM_A__D0_REG;
 531:Generated_Source\PSoC5/LFSR.c **** 
 532:Generated_Source\PSoC5/LFSR.c ****             #else                                           /* 32 bits PRS */
 533:Generated_Source\PSoC5/LFSR.c ****                 polynomial = ((uint32) LFSR_POLYNOM_B__D1_REG) << 24u;
 534:Generated_Source\PSoC5/LFSR.c ****                 polynomial |= ((uint32) LFSR_POLYNOM_A__D1_REG) << 16u;
 535:Generated_Source\PSoC5/LFSR.c ****                 polynomial |= ((uint32) LFSR_POLYNOM_B__D0_REG) << 8u;
 536:Generated_Source\PSoC5/LFSR.c ****                 polynomial |= LFSR_POLYNOM_A__D0_REG;
 537:Generated_Source\PSoC5/LFSR.c **** 
 538:Generated_Source\PSoC5/LFSR.c ****             #endif  /* End (LFSR_PRS_SIZE <= 32u) */
 539:Generated_Source\PSoC5/LFSR.c **** 
 540:Generated_Source\PSoC5/LFSR.c ****             return polynomial;
 541:Generated_Source\PSoC5/LFSR.c **** 
 542:Generated_Source\PSoC5/LFSR.c ****         #else
 543:Generated_Source\PSoC5/LFSR.c **** 
 544:Generated_Source\PSoC5/LFSR.c ****             return CY_GET_REG16(LFSR_POLYNOM_PTR);
 187              		.loc 1 544 0
 188 0000 014B     		ldr	r3, .L18
 189 0002 1888     		ldrh	r0, [r3]
 545:Generated_Source\PSoC5/LFSR.c **** 
 546:Generated_Source\PSoC5/LFSR.c ****         #endif  /* End (LFSR_TIME_MULTIPLEXING_ENABLE) */
 547:Generated_Source\PSoC5/LFSR.c ****     }
 190              		.loc 1 547 0
 191 0004 80B2     		uxth	r0, r0
 192 0006 7047     		bx	lr
 193              	.L19:
 194              		.align	2
ARM GAS  C:\Users\214016~1\AppData\Local\Temp\cc8D0TYi.s 			page 14


 195              	.L18:
 196 0008 26640040 		.word	1073767462
 197              		.cfi_endproc
 198              	.LFE7:
 199              		.size	LFSR_ReadPolynomial, .-LFSR_ReadPolynomial
 200              		.section	.text.LFSR_WritePolynomial,"ax",%progbits
 201              		.align	2
 202              		.global	LFSR_WritePolynomial
 203              		.thumb
 204              		.thumb_func
 205              		.type	LFSR_WritePolynomial, %function
 206              	LFSR_WritePolynomial:
 207              	.LFB8:
 548:Generated_Source\PSoC5/LFSR.c **** 
 549:Generated_Source\PSoC5/LFSR.c **** 
 550:Generated_Source\PSoC5/LFSR.c ****     /*******************************************************************************
 551:Generated_Source\PSoC5/LFSR.c ****     * Function Name: LFSR_WritePolynomial
 552:Generated_Source\PSoC5/LFSR.c ****     ********************************************************************************
 553:Generated_Source\PSoC5/LFSR.c ****     *
 554:Generated_Source\PSoC5/LFSR.c ****     * Summary:
 555:Generated_Source\PSoC5/LFSR.c ****     *  Writes PRS polynomial value.
 556:Generated_Source\PSoC5/LFSR.c ****     *
 557:Generated_Source\PSoC5/LFSR.c ****     * Parameters:
 558:Generated_Source\PSoC5/LFSR.c ****     *  polynomial:  PRS polynomial.
 559:Generated_Source\PSoC5/LFSR.c ****     *
 560:Generated_Source\PSoC5/LFSR.c ****     * Return:
 561:Generated_Source\PSoC5/LFSR.c ****     *  void
 562:Generated_Source\PSoC5/LFSR.c ****     *
 563:Generated_Source\PSoC5/LFSR.c ****     * Side Effects:
 564:Generated_Source\PSoC5/LFSR.c ****     *  The polynomial value is cut according to mask = 2^(Resolution) - 1.
 565:Generated_Source\PSoC5/LFSR.c ****     *  For example if PRS Resolution is 14 bits the mask value is:
 566:Generated_Source\PSoC5/LFSR.c ****     *  mask = 2^(14) - 1 = 0x3FFFu.
 567:Generated_Source\PSoC5/LFSR.c ****     *  The polynomial value = 0xFFFFu is cut:
 568:Generated_Source\PSoC5/LFSR.c ****     *  polynomial & mask = 0xFFFFu & 0x3FFFu = 0x3FFFu.
 569:Generated_Source\PSoC5/LFSR.c ****     *
 570:Generated_Source\PSoC5/LFSR.c ****     *******************************************************************************/
 571:Generated_Source\PSoC5/LFSR.c ****     void LFSR_WritePolynomial(uint16 polynomial)
 572:Generated_Source\PSoC5/LFSR.c ****                                           
 573:Generated_Source\PSoC5/LFSR.c ****     {
 208              		.loc 1 573 0
 209              		.cfi_startproc
 210              		@ args = 0, pretend = 0, frame = 0
 211              		@ frame_needed = 0, uses_anonymous_args = 0
 212              		@ link register save eliminated.
 213              	.LVL7:
 574:Generated_Source\PSoC5/LFSR.c ****         /* Mask polynomial to cut unused bits */
 575:Generated_Source\PSoC5/LFSR.c ****         polynomial &= LFSR_MASK;
 214              		.loc 1 575 0
 215 0000 C0F30D00 		ubfx	r0, r0, #0, #14
 216              	.LVL8:
 576:Generated_Source\PSoC5/LFSR.c **** 
 577:Generated_Source\PSoC5/LFSR.c ****         /* Write polynomial */
 578:Generated_Source\PSoC5/LFSR.c ****         #if (LFSR_TIME_MULTIPLEXING_ENABLE)
 579:Generated_Source\PSoC5/LFSR.c **** 
 580:Generated_Source\PSoC5/LFSR.c ****             #if (LFSR_PRS_SIZE <= 16u)          /* 16 bits PRS */
 581:Generated_Source\PSoC5/LFSR.c **** 
 582:Generated_Source\PSoC5/LFSR.c ****                 LFSR_POLYNOM_A__D1_REG = HI8(polynomial);
ARM GAS  C:\Users\214016~1\AppData\Local\Temp\cc8D0TYi.s 			page 15


 583:Generated_Source\PSoC5/LFSR.c ****                 LFSR_POLYNOM_A__D0_REG = LO8(polynomial);
 584:Generated_Source\PSoC5/LFSR.c **** 
 585:Generated_Source\PSoC5/LFSR.c ****             #elif (LFSR_PRS_SIZE <= 24u)        /* 24 bits PRS */
 586:Generated_Source\PSoC5/LFSR.c ****                 LFSR_POLYNOM_B__D1_REG = LO8(HI16(polynomial));
 587:Generated_Source\PSoC5/LFSR.c ****                 LFSR_POLYNOM_B__D0_REG = HI8(polynomial);
 588:Generated_Source\PSoC5/LFSR.c ****                 LFSR_POLYNOM_A__D0_REG = LO8(polynomial);
 589:Generated_Source\PSoC5/LFSR.c **** 
 590:Generated_Source\PSoC5/LFSR.c ****             #else                                           /* 32 bits PRS */
 591:Generated_Source\PSoC5/LFSR.c ****                 LFSR_POLYNOM_B__D1_REG = HI8(HI16(polynomial));
 592:Generated_Source\PSoC5/LFSR.c ****                 LFSR_POLYNOM_A__D1_REG = LO8(HI16(polynomial));
 593:Generated_Source\PSoC5/LFSR.c ****                 LFSR_POLYNOM_B__D0_REG = HI8(polynomial);
 594:Generated_Source\PSoC5/LFSR.c ****                 LFSR_POLYNOM_A__D0_REG = LO8(polynomial);
 595:Generated_Source\PSoC5/LFSR.c **** 
 596:Generated_Source\PSoC5/LFSR.c ****             #endif  /* End (LFSR_PRS_SIZE <= 32u) */
 597:Generated_Source\PSoC5/LFSR.c **** 
 598:Generated_Source\PSoC5/LFSR.c ****             /* Resets triggers */
 599:Generated_Source\PSoC5/LFSR.c ****             #if (LFSR_WAKEUP_BEHAVIOUR == LFSR__RESUMEWORK)
 600:Generated_Source\PSoC5/LFSR.c ****                 if((LFSR_sleepState & LFSR_NORMAL_SEQUENCE) != 0u)
 601:Generated_Source\PSoC5/LFSR.c ****                 {
 602:Generated_Source\PSoC5/LFSR.c ****                     LFSR_EXECUTE_DFF_RESET;
 603:Generated_Source\PSoC5/LFSR.c ****                 }
 604:Generated_Source\PSoC5/LFSR.c ****             #else
 605:Generated_Source\PSoC5/LFSR.c ****                 LFSR_EXECUTE_DFF_RESET;
 606:Generated_Source\PSoC5/LFSR.c ****             #endif  /* (LFSR_WAKEUP_BEHAVIOUR == LFSR__RESUMEWORK) */
 607:Generated_Source\PSoC5/LFSR.c **** 
 608:Generated_Source\PSoC5/LFSR.c ****         #else
 609:Generated_Source\PSoC5/LFSR.c **** 
 610:Generated_Source\PSoC5/LFSR.c ****             CY_SET_REG16(LFSR_POLYNOM_PTR, polynomial);
 217              		.loc 1 610 0
 218 0004 014B     		ldr	r3, .L21
 219 0006 1880     		strh	r0, [r3]	@ movhi
 220 0008 7047     		bx	lr
 221              	.L22:
 222 000a 00BF     		.align	2
 223              	.L21:
 224 000c 26640040 		.word	1073767462
 225              		.cfi_endproc
 226              	.LFE8:
 227              		.size	LFSR_WritePolynomial, .-LFSR_WritePolynomial
 228              		.section	.text.LFSR_Init,"ax",%progbits
 229              		.align	2
 230              		.global	LFSR_Init
 231              		.thumb
 232              		.thumb_func
 233              		.type	LFSR_Init, %function
 234              	LFSR_Init:
 235              	.LFB0:
  61:Generated_Source\PSoC5/LFSR.c ****     /* Writes seed value and ponynom value provided for customizer */
 236              		.loc 1 61 0
 237              		.cfi_startproc
 238              		@ args = 0, pretend = 0, frame = 0
 239              		@ frame_needed = 0, uses_anonymous_args = 0
 240 0000 08B5     		push	{r3, lr}
 241              		.cfi_def_cfa_offset 8
 242              		.cfi_offset 3, -8
 243              		.cfi_offset 14, -4
  64:Generated_Source\PSoC5/LFSR.c ****         LFSR_WriteSeed(LFSR_DEFAULT_SEED);
ARM GAS  C:\Users\214016~1\AppData\Local\Temp\cc8D0TYi.s 			page 16


 244              		.loc 1 64 0
 245 0002 4FF45450 		mov	r0, #13568
 246 0006 FFF7FEFF 		bl	LFSR_WritePolynomial
 247              	.LVL9:
  65:Generated_Source\PSoC5/LFSR.c ****         #if (LFSR_RUN_MODE == LFSR__CLOCKED)
 248              		.loc 1 65 0
 249 000a 43F6FF70 		movw	r0, #16383
 250 000e FFF7FEFF 		bl	LFSR_WriteSeed
 251              	.LVL10:
  67:Generated_Source\PSoC5/LFSR.c ****         #endif  /* End (LFSR_RUN_MODE == LFSR__CLOCKED) */
 252              		.loc 1 67 0
 253 0012 43F6FF70 		movw	r0, #16383
 254 0016 FFF7FEFF 		bl	LFSR_ResetSeedInit
 255              	.LVL11:
  69:Generated_Source\PSoC5/LFSR.c ****     #else
 256              		.loc 1 69 0
 257 001a FFF7FEFF 		bl	LFSR_Enable
 258              	.LVL12:
 259 001e 08BD     		pop	{r3, pc}
 260              		.cfi_endproc
 261              	.LFE0:
 262              		.size	LFSR_Init, .-LFSR_Init
 263              		.section	.text.LFSR_Start,"ax",%progbits
 264              		.align	2
 265              		.global	LFSR_Start
 266              		.thumb
 267              		.thumb_func
 268              		.type	LFSR_Start, %function
 269              	LFSR_Start:
 270              	.LFB2:
 127:Generated_Source\PSoC5/LFSR.c ****     /* Writes seed value and ponynom value provided from customizer */
 271              		.loc 1 127 0
 272              		.cfi_startproc
 273              		@ args = 0, pretend = 0, frame = 0
 274              		@ frame_needed = 0, uses_anonymous_args = 0
 275 0000 08B5     		push	{r3, lr}
 276              		.cfi_def_cfa_offset 8
 277              		.cfi_offset 3, -8
 278              		.cfi_offset 14, -4
 129:Generated_Source\PSoC5/LFSR.c ****     {
 279              		.loc 1 129 0
 280 0002 054B     		ldr	r3, .L28
 281 0004 1B78     		ldrb	r3, [r3]	@ zero_extendqisi2
 282 0006 23B9     		cbnz	r3, .L26
 131:Generated_Source\PSoC5/LFSR.c ****         LFSR_initVar = 1u;
 283              		.loc 1 131 0
 284 0008 FFF7FEFF 		bl	LFSR_Init
 285              	.LVL13:
 132:Generated_Source\PSoC5/LFSR.c ****     }
 286              		.loc 1 132 0
 287 000c 0122     		movs	r2, #1
 288 000e 024B     		ldr	r3, .L28
 289 0010 1A70     		strb	r2, [r3]
 290              	.L26:
 135:Generated_Source\PSoC5/LFSR.c **** }
 291              		.loc 1 135 0
 292 0012 FFF7FEFF 		bl	LFSR_Enable
ARM GAS  C:\Users\214016~1\AppData\Local\Temp\cc8D0TYi.s 			page 17


 293              	.LVL14:
 294 0016 08BD     		pop	{r3, pc}
 295              	.L29:
 296              		.align	2
 297              	.L28:
 298 0018 00000000 		.word	.LANCHOR0
 299              		.cfi_endproc
 300              	.LFE2:
 301              		.size	LFSR_Start, .-LFSR_Start
 302              		.global	LFSR_backup
 303              		.global	LFSR_initVar
 304              		.data
 305              		.align	2
 306              		.type	LFSR_backup, %object
 307              		.size	LFSR_backup, 4
 308              	LFSR_backup:
 309 0000 00       		.byte	0
 310 0001 00       		.space	1
 311 0002 FF3F     		.short	16383
 312              		.bss
 313              		.set	.LANCHOR0,. + 0
 314              		.type	LFSR_initVar, %object
 315              		.size	LFSR_initVar, 1
 316              	LFSR_initVar:
 317 0000 00       		.space	1
 318              		.text
 319              	.Letext0:
 320              		.file 2 "Generated_Source\\PSoC5\\cytypes.h"
 321              		.file 3 "Generated_Source\\PSoC5\\LFSR.h"
 322              		.file 4 "Generated_Source\\PSoC5\\CyLib.h"