ARM GAS  C:\Users\214016~1\AppData\Local\Temp\ccbY5ROP.s 			page 1


   1              		.syntax unified
   2              		.cpu cortex-m3
   3              		.fpu softvfp
   4              		.eabi_attribute 20, 1
   5              		.eabi_attribute 21, 1
   6              		.eabi_attribute 23, 3
   7              		.eabi_attribute 24, 1
   8              		.eabi_attribute 25, 1
   9              		.eabi_attribute 26, 1
  10              		.eabi_attribute 30, 1
  11              		.eabi_attribute 34, 1
  12              		.eabi_attribute 18, 4
  13              		.thumb
  14              		.file	"Tri_Divider.c"
  15              		.text
  16              	.Ltext0:
  17              		.cfi_sections	.debug_frame
  18              		.section	.text.Tri_Divider_Enable,"ax",%progbits
  19              		.align	2
  20              		.global	Tri_Divider_Enable
  21              		.thumb
  22              		.thumb_func
  23              		.type	Tri_Divider_Enable, %function
  24              	Tri_Divider_Enable:
  25              	.LFB1:
  26              		.file 1 "Generated_Source\\PSoC5\\Tri_Divider.c"
   1:Generated_Source\PSoC5/Tri_Divider.c **** /*******************************************************************************
   2:Generated_Source\PSoC5/Tri_Divider.c **** * File Name: Tri_Divider.c  
   3:Generated_Source\PSoC5/Tri_Divider.c **** * Version 3.0
   4:Generated_Source\PSoC5/Tri_Divider.c **** *
   5:Generated_Source\PSoC5/Tri_Divider.c **** *  Description:
   6:Generated_Source\PSoC5/Tri_Divider.c **** *     The Counter component consists of a 8, 16, 24 or 32-bit counter with
   7:Generated_Source\PSoC5/Tri_Divider.c **** *     a selectable period between 2 and 2^Width - 1.  
   8:Generated_Source\PSoC5/Tri_Divider.c **** *
   9:Generated_Source\PSoC5/Tri_Divider.c **** *   Note:
  10:Generated_Source\PSoC5/Tri_Divider.c **** *     None
  11:Generated_Source\PSoC5/Tri_Divider.c **** *
  12:Generated_Source\PSoC5/Tri_Divider.c **** ********************************************************************************
  13:Generated_Source\PSoC5/Tri_Divider.c **** * Copyright 2008-2012, Cypress Semiconductor Corporation.  All rights reserved.
  14:Generated_Source\PSoC5/Tri_Divider.c **** * You may use this file only in accordance with the license, terms, conditions, 
  15:Generated_Source\PSoC5/Tri_Divider.c **** * disclaimers, and limitations in the end user license agreement accompanying 
  16:Generated_Source\PSoC5/Tri_Divider.c **** * the software package with which this file was provided.
  17:Generated_Source\PSoC5/Tri_Divider.c **** *******************************************************************************/
  18:Generated_Source\PSoC5/Tri_Divider.c **** 
  19:Generated_Source\PSoC5/Tri_Divider.c **** #include "Tri_Divider.h"
  20:Generated_Source\PSoC5/Tri_Divider.c **** 
  21:Generated_Source\PSoC5/Tri_Divider.c **** uint8 Tri_Divider_initVar = 0u;
  22:Generated_Source\PSoC5/Tri_Divider.c **** 
  23:Generated_Source\PSoC5/Tri_Divider.c **** 
  24:Generated_Source\PSoC5/Tri_Divider.c **** /*******************************************************************************
  25:Generated_Source\PSoC5/Tri_Divider.c **** * Function Name: Tri_Divider_Init
  26:Generated_Source\PSoC5/Tri_Divider.c **** ********************************************************************************
  27:Generated_Source\PSoC5/Tri_Divider.c **** * Summary:
  28:Generated_Source\PSoC5/Tri_Divider.c **** *     Initialize to the schematic state
  29:Generated_Source\PSoC5/Tri_Divider.c **** * 
  30:Generated_Source\PSoC5/Tri_Divider.c **** * Parameters:  
  31:Generated_Source\PSoC5/Tri_Divider.c **** *  void  
ARM GAS  C:\Users\214016~1\AppData\Local\Temp\ccbY5ROP.s 			page 2


  32:Generated_Source\PSoC5/Tri_Divider.c **** *
  33:Generated_Source\PSoC5/Tri_Divider.c **** * Return: 
  34:Generated_Source\PSoC5/Tri_Divider.c **** *  void
  35:Generated_Source\PSoC5/Tri_Divider.c **** *
  36:Generated_Source\PSoC5/Tri_Divider.c **** *******************************************************************************/
  37:Generated_Source\PSoC5/Tri_Divider.c **** void Tri_Divider_Init(void) 
  38:Generated_Source\PSoC5/Tri_Divider.c **** {
  39:Generated_Source\PSoC5/Tri_Divider.c ****         #if (!Tri_Divider_UsingFixedFunction && !Tri_Divider_ControlRegRemoved)
  40:Generated_Source\PSoC5/Tri_Divider.c ****             uint8 ctrl;
  41:Generated_Source\PSoC5/Tri_Divider.c ****         #endif /* (!Tri_Divider_UsingFixedFunction && !Tri_Divider_ControlRegRemoved) */
  42:Generated_Source\PSoC5/Tri_Divider.c ****         
  43:Generated_Source\PSoC5/Tri_Divider.c ****         #if(!Tri_Divider_UsingFixedFunction) 
  44:Generated_Source\PSoC5/Tri_Divider.c ****             /* Interrupt State Backup for Critical Region*/
  45:Generated_Source\PSoC5/Tri_Divider.c ****             uint8 Tri_Divider_interruptState;
  46:Generated_Source\PSoC5/Tri_Divider.c ****         #endif /* (!Tri_Divider_UsingFixedFunction) */
  47:Generated_Source\PSoC5/Tri_Divider.c ****         
  48:Generated_Source\PSoC5/Tri_Divider.c ****         #if (Tri_Divider_UsingFixedFunction)
  49:Generated_Source\PSoC5/Tri_Divider.c ****             /* Clear all bits but the enable bit (if it's already set for Timer operation */
  50:Generated_Source\PSoC5/Tri_Divider.c ****             Tri_Divider_CONTROL &= Tri_Divider_CTRL_ENABLE;
  51:Generated_Source\PSoC5/Tri_Divider.c ****             
  52:Generated_Source\PSoC5/Tri_Divider.c ****             /* Clear the mode bits for continuous run mode */
  53:Generated_Source\PSoC5/Tri_Divider.c ****             #if (CY_PSOC5A)
  54:Generated_Source\PSoC5/Tri_Divider.c ****                 Tri_Divider_CONTROL2 &= ((uint8)(~Tri_Divider_CTRL_MODE_MASK));
  55:Generated_Source\PSoC5/Tri_Divider.c ****             #endif /* (CY_PSOC5A) */
  56:Generated_Source\PSoC5/Tri_Divider.c ****             #if (CY_PSOC3 || CY_PSOC5LP)
  57:Generated_Source\PSoC5/Tri_Divider.c ****                 Tri_Divider_CONTROL3 &= ((uint8)(~Tri_Divider_CTRL_MODE_MASK));                
  58:Generated_Source\PSoC5/Tri_Divider.c ****             #endif /* (CY_PSOC3 || CY_PSOC5LP) */
  59:Generated_Source\PSoC5/Tri_Divider.c ****             /* Check if One Shot mode is enabled i.e. RunMode !=0*/
  60:Generated_Source\PSoC5/Tri_Divider.c ****             #if (Tri_Divider_RunModeUsed != 0x0u)
  61:Generated_Source\PSoC5/Tri_Divider.c ****                 /* Set 3rd bit of Control register to enable one shot mode */
  62:Generated_Source\PSoC5/Tri_Divider.c ****                 Tri_Divider_CONTROL |= Tri_Divider_ONESHOT;
  63:Generated_Source\PSoC5/Tri_Divider.c ****             #endif /* (Tri_Divider_RunModeUsed != 0x0u) */
  64:Generated_Source\PSoC5/Tri_Divider.c ****             
  65:Generated_Source\PSoC5/Tri_Divider.c ****             /* Set the IRQ to use the status register interrupts */
  66:Generated_Source\PSoC5/Tri_Divider.c ****             Tri_Divider_CONTROL2 |= Tri_Divider_CTRL2_IRQ_SEL;
  67:Generated_Source\PSoC5/Tri_Divider.c ****             
  68:Generated_Source\PSoC5/Tri_Divider.c ****             /* Clear and Set SYNCTC and SYNCCMP bits of RT1 register */
  69:Generated_Source\PSoC5/Tri_Divider.c ****             Tri_Divider_RT1 &= ((uint8)(~Tri_Divider_RT1_MASK));
  70:Generated_Source\PSoC5/Tri_Divider.c ****             Tri_Divider_RT1 |= Tri_Divider_SYNC;     
  71:Generated_Source\PSoC5/Tri_Divider.c ****                     
  72:Generated_Source\PSoC5/Tri_Divider.c ****             /*Enable DSI Sync all all inputs of the Timer*/
  73:Generated_Source\PSoC5/Tri_Divider.c ****             Tri_Divider_RT1 &= ((uint8)(~Tri_Divider_SYNCDSI_MASK));
  74:Generated_Source\PSoC5/Tri_Divider.c ****             Tri_Divider_RT1 |= Tri_Divider_SYNCDSI_EN;
  75:Generated_Source\PSoC5/Tri_Divider.c **** 
  76:Generated_Source\PSoC5/Tri_Divider.c ****         #else
  77:Generated_Source\PSoC5/Tri_Divider.c ****             #if(!Tri_Divider_ControlRegRemoved)
  78:Generated_Source\PSoC5/Tri_Divider.c ****             /* Set the default compare mode defined in the parameter */
  79:Generated_Source\PSoC5/Tri_Divider.c ****             ctrl = Tri_Divider_CONTROL & ((uint8)(~Tri_Divider_CTRL_CMPMODE_MASK));
  80:Generated_Source\PSoC5/Tri_Divider.c ****             Tri_Divider_CONTROL = ctrl | Tri_Divider_DEFAULT_COMPARE_MODE;
  81:Generated_Source\PSoC5/Tri_Divider.c ****             
  82:Generated_Source\PSoC5/Tri_Divider.c ****             /* Set the default capture mode defined in the parameter */
  83:Generated_Source\PSoC5/Tri_Divider.c ****             ctrl = Tri_Divider_CONTROL & ((uint8)(~Tri_Divider_CTRL_CAPMODE_MASK));
  84:Generated_Source\PSoC5/Tri_Divider.c ****             
  85:Generated_Source\PSoC5/Tri_Divider.c ****             #if( 0 != Tri_Divider_CAPTURE_MODE_CONF)
  86:Generated_Source\PSoC5/Tri_Divider.c ****                 Tri_Divider_CONTROL = ctrl | Tri_Divider_DEFAULT_CAPTURE_MODE;
  87:Generated_Source\PSoC5/Tri_Divider.c ****             #else
  88:Generated_Source\PSoC5/Tri_Divider.c ****                 Tri_Divider_CONTROL = ctrl;
ARM GAS  C:\Users\214016~1\AppData\Local\Temp\ccbY5ROP.s 			page 3


  89:Generated_Source\PSoC5/Tri_Divider.c ****             #endif /* 0 != Tri_Divider_CAPTURE_MODE */ 
  90:Generated_Source\PSoC5/Tri_Divider.c ****             
  91:Generated_Source\PSoC5/Tri_Divider.c ****             #endif /* (!Tri_Divider_ControlRegRemoved) */
  92:Generated_Source\PSoC5/Tri_Divider.c ****         #endif /* (Tri_Divider_UsingFixedFunction) */
  93:Generated_Source\PSoC5/Tri_Divider.c ****         
  94:Generated_Source\PSoC5/Tri_Divider.c ****         /* Clear all data in the FIFO's */
  95:Generated_Source\PSoC5/Tri_Divider.c ****         #if (!Tri_Divider_UsingFixedFunction)
  96:Generated_Source\PSoC5/Tri_Divider.c ****             Tri_Divider_ClearFIFO();
  97:Generated_Source\PSoC5/Tri_Divider.c ****         #endif /* (!Tri_Divider_UsingFixedFunction) */
  98:Generated_Source\PSoC5/Tri_Divider.c ****         
  99:Generated_Source\PSoC5/Tri_Divider.c ****         /* Set Initial values from Configuration */
 100:Generated_Source\PSoC5/Tri_Divider.c ****         Tri_Divider_WritePeriod(Tri_Divider_INIT_PERIOD_VALUE);
 101:Generated_Source\PSoC5/Tri_Divider.c ****         #if (!(Tri_Divider_UsingFixedFunction && (CY_PSOC5A)))
 102:Generated_Source\PSoC5/Tri_Divider.c ****             Tri_Divider_WriteCounter(Tri_Divider_INIT_COUNTER_VALUE);
 103:Generated_Source\PSoC5/Tri_Divider.c ****         #endif /* (!(Tri_Divider_UsingFixedFunction && (CY_PSOC5A))) */
 104:Generated_Source\PSoC5/Tri_Divider.c ****         Tri_Divider_SetInterruptMode(Tri_Divider_INIT_INTERRUPTS_MASK);
 105:Generated_Source\PSoC5/Tri_Divider.c ****         
 106:Generated_Source\PSoC5/Tri_Divider.c ****         #if (!Tri_Divider_UsingFixedFunction)
 107:Generated_Source\PSoC5/Tri_Divider.c ****             /* Read the status register to clear the unwanted interrupts */
 108:Generated_Source\PSoC5/Tri_Divider.c ****             (void)Tri_Divider_ReadStatusRegister();
 109:Generated_Source\PSoC5/Tri_Divider.c ****             /* Set the compare value (only available to non-fixed function implementation */
 110:Generated_Source\PSoC5/Tri_Divider.c ****             Tri_Divider_WriteCompare(Tri_Divider_INIT_COMPARE_VALUE);
 111:Generated_Source\PSoC5/Tri_Divider.c ****             /* Use the interrupt output of the status register for IRQ output */
 112:Generated_Source\PSoC5/Tri_Divider.c ****             
 113:Generated_Source\PSoC5/Tri_Divider.c ****             /* CyEnterCriticalRegion and CyExitCriticalRegion are used to mark following region cri
 114:Generated_Source\PSoC5/Tri_Divider.c ****             /* Enter Critical Region*/
 115:Generated_Source\PSoC5/Tri_Divider.c ****             Tri_Divider_interruptState = CyEnterCriticalSection();
 116:Generated_Source\PSoC5/Tri_Divider.c ****             
 117:Generated_Source\PSoC5/Tri_Divider.c ****             Tri_Divider_STATUS_AUX_CTRL |= Tri_Divider_STATUS_ACTL_INT_EN_MASK;
 118:Generated_Source\PSoC5/Tri_Divider.c ****             
 119:Generated_Source\PSoC5/Tri_Divider.c ****             /* Exit Critical Region*/
 120:Generated_Source\PSoC5/Tri_Divider.c ****             CyExitCriticalSection(Tri_Divider_interruptState);
 121:Generated_Source\PSoC5/Tri_Divider.c ****             
 122:Generated_Source\PSoC5/Tri_Divider.c ****         #endif /* (!Tri_Divider_UsingFixedFunction) */
 123:Generated_Source\PSoC5/Tri_Divider.c **** }
 124:Generated_Source\PSoC5/Tri_Divider.c **** 
 125:Generated_Source\PSoC5/Tri_Divider.c **** 
 126:Generated_Source\PSoC5/Tri_Divider.c **** /*******************************************************************************
 127:Generated_Source\PSoC5/Tri_Divider.c **** * Function Name: Tri_Divider_Enable
 128:Generated_Source\PSoC5/Tri_Divider.c **** ********************************************************************************
 129:Generated_Source\PSoC5/Tri_Divider.c **** * Summary:
 130:Generated_Source\PSoC5/Tri_Divider.c **** *     Enable the Counter
 131:Generated_Source\PSoC5/Tri_Divider.c **** * 
 132:Generated_Source\PSoC5/Tri_Divider.c **** * Parameters:  
 133:Generated_Source\PSoC5/Tri_Divider.c **** *  void  
 134:Generated_Source\PSoC5/Tri_Divider.c **** *
 135:Generated_Source\PSoC5/Tri_Divider.c **** * Return: 
 136:Generated_Source\PSoC5/Tri_Divider.c **** *  void
 137:Generated_Source\PSoC5/Tri_Divider.c **** *
 138:Generated_Source\PSoC5/Tri_Divider.c **** * Side Effects: 
 139:Generated_Source\PSoC5/Tri_Divider.c **** *   If the Enable mode is set to Hardware only then this function has no effect 
 140:Generated_Source\PSoC5/Tri_Divider.c **** *   on the operation of the counter.
 141:Generated_Source\PSoC5/Tri_Divider.c **** *
 142:Generated_Source\PSoC5/Tri_Divider.c **** *******************************************************************************/
 143:Generated_Source\PSoC5/Tri_Divider.c **** void Tri_Divider_Enable(void) 
 144:Generated_Source\PSoC5/Tri_Divider.c **** {
  27              		.loc 1 144 0
ARM GAS  C:\Users\214016~1\AppData\Local\Temp\ccbY5ROP.s 			page 4


  28              		.cfi_startproc
  29              		@ args = 0, pretend = 0, frame = 0
  30              		@ frame_needed = 0, uses_anonymous_args = 0
  31              		@ link register save eliminated.
 145:Generated_Source\PSoC5/Tri_Divider.c ****     /* Globally Enable the Fixed Function Block chosen */
 146:Generated_Source\PSoC5/Tri_Divider.c ****     #if (Tri_Divider_UsingFixedFunction)
 147:Generated_Source\PSoC5/Tri_Divider.c ****         Tri_Divider_GLOBAL_ENABLE |= Tri_Divider_BLOCK_EN_MASK;
  32              		.loc 1 147 0
  33 0000 084A     		ldr	r2, .L2
  34 0002 1378     		ldrb	r3, [r2]	@ zero_extendqisi2
  35 0004 43F00403 		orr	r3, r3, #4
  36 0008 1370     		strb	r3, [r2]
 148:Generated_Source\PSoC5/Tri_Divider.c ****         Tri_Divider_GLOBAL_STBY_ENABLE |= Tri_Divider_BLOCK_STBY_EN_MASK;
  37              		.loc 1 148 0
  38 000a 1032     		adds	r2, r2, #16
  39 000c 1378     		ldrb	r3, [r2]	@ zero_extendqisi2
  40 000e 43F00403 		orr	r3, r3, #4
  41 0012 1370     		strb	r3, [r2]
 149:Generated_Source\PSoC5/Tri_Divider.c ****     #endif /* (Tri_Divider_UsingFixedFunction) */  
 150:Generated_Source\PSoC5/Tri_Divider.c ****         
 151:Generated_Source\PSoC5/Tri_Divider.c ****     /* Enable the counter from the control register  */
 152:Generated_Source\PSoC5/Tri_Divider.c ****     /* If Fixed Function then make sure Mode is set correctly */
 153:Generated_Source\PSoC5/Tri_Divider.c ****     /* else make sure reset is clear */
 154:Generated_Source\PSoC5/Tri_Divider.c ****     #if(!Tri_Divider_ControlRegRemoved || Tri_Divider_UsingFixedFunction)
 155:Generated_Source\PSoC5/Tri_Divider.c ****         Tri_Divider_CONTROL |= Tri_Divider_CTRL_ENABLE;                
  42              		.loc 1 155 0
  43 0014 02F66532 		addw	r2, r2, #2917
  44 0018 1378     		ldrb	r3, [r2]	@ zero_extendqisi2
  45 001a 43F00103 		orr	r3, r3, #1
  46 001e 1370     		strb	r3, [r2]
  47 0020 7047     		bx	lr
  48              	.L3:
  49 0022 00BF     		.align	2
  50              	.L2:
  51 0024 A3430040 		.word	1073759139
  52              		.cfi_endproc
  53              	.LFE1:
  54              		.size	Tri_Divider_Enable, .-Tri_Divider_Enable
  55              		.section	.text.Tri_Divider_Stop,"ax",%progbits
  56              		.align	2
  57              		.global	Tri_Divider_Stop
  58              		.thumb
  59              		.thumb_func
  60              		.type	Tri_Divider_Stop, %function
  61              	Tri_Divider_Stop:
  62              	.LFB3:
 156:Generated_Source\PSoC5/Tri_Divider.c ****     #endif /* (!Tri_Divider_ControlRegRemoved || Tri_Divider_UsingFixedFunction) */
 157:Generated_Source\PSoC5/Tri_Divider.c ****     
 158:Generated_Source\PSoC5/Tri_Divider.c **** }
 159:Generated_Source\PSoC5/Tri_Divider.c **** 
 160:Generated_Source\PSoC5/Tri_Divider.c **** 
 161:Generated_Source\PSoC5/Tri_Divider.c **** /*******************************************************************************
 162:Generated_Source\PSoC5/Tri_Divider.c **** * Function Name: Tri_Divider_Start
 163:Generated_Source\PSoC5/Tri_Divider.c **** ********************************************************************************
 164:Generated_Source\PSoC5/Tri_Divider.c **** * Summary:
 165:Generated_Source\PSoC5/Tri_Divider.c **** *  Enables the counter for operation 
 166:Generated_Source\PSoC5/Tri_Divider.c **** *
ARM GAS  C:\Users\214016~1\AppData\Local\Temp\ccbY5ROP.s 			page 5


 167:Generated_Source\PSoC5/Tri_Divider.c **** * Parameters:  
 168:Generated_Source\PSoC5/Tri_Divider.c **** *  void  
 169:Generated_Source\PSoC5/Tri_Divider.c **** *
 170:Generated_Source\PSoC5/Tri_Divider.c **** * Return: 
 171:Generated_Source\PSoC5/Tri_Divider.c **** *  void
 172:Generated_Source\PSoC5/Tri_Divider.c **** *
 173:Generated_Source\PSoC5/Tri_Divider.c **** * Global variables:
 174:Generated_Source\PSoC5/Tri_Divider.c **** *  Tri_Divider_initVar: Is modified when this function is called for the  
 175:Generated_Source\PSoC5/Tri_Divider.c **** *   first time. Is used to ensure that initialization happens only once.
 176:Generated_Source\PSoC5/Tri_Divider.c **** *
 177:Generated_Source\PSoC5/Tri_Divider.c **** *******************************************************************************/
 178:Generated_Source\PSoC5/Tri_Divider.c **** void Tri_Divider_Start(void) 
 179:Generated_Source\PSoC5/Tri_Divider.c **** {
 180:Generated_Source\PSoC5/Tri_Divider.c ****     if(Tri_Divider_initVar == 0u)
 181:Generated_Source\PSoC5/Tri_Divider.c ****     {
 182:Generated_Source\PSoC5/Tri_Divider.c ****         Tri_Divider_Init();
 183:Generated_Source\PSoC5/Tri_Divider.c ****         
 184:Generated_Source\PSoC5/Tri_Divider.c ****         Tri_Divider_initVar = 1u; /* Clear this bit for Initialization */        
 185:Generated_Source\PSoC5/Tri_Divider.c ****     }
 186:Generated_Source\PSoC5/Tri_Divider.c ****     
 187:Generated_Source\PSoC5/Tri_Divider.c ****     /* Enable the Counter */
 188:Generated_Source\PSoC5/Tri_Divider.c ****     Tri_Divider_Enable();        
 189:Generated_Source\PSoC5/Tri_Divider.c **** }
 190:Generated_Source\PSoC5/Tri_Divider.c **** 
 191:Generated_Source\PSoC5/Tri_Divider.c **** 
 192:Generated_Source\PSoC5/Tri_Divider.c **** /*******************************************************************************
 193:Generated_Source\PSoC5/Tri_Divider.c **** * Function Name: Tri_Divider_Stop
 194:Generated_Source\PSoC5/Tri_Divider.c **** ********************************************************************************
 195:Generated_Source\PSoC5/Tri_Divider.c **** * Summary:
 196:Generated_Source\PSoC5/Tri_Divider.c **** * Halts the counter, but does not change any modes or disable interrupts.
 197:Generated_Source\PSoC5/Tri_Divider.c **** *
 198:Generated_Source\PSoC5/Tri_Divider.c **** * Parameters:  
 199:Generated_Source\PSoC5/Tri_Divider.c **** *  void  
 200:Generated_Source\PSoC5/Tri_Divider.c **** *
 201:Generated_Source\PSoC5/Tri_Divider.c **** * Return: 
 202:Generated_Source\PSoC5/Tri_Divider.c **** *  void
 203:Generated_Source\PSoC5/Tri_Divider.c **** *
 204:Generated_Source\PSoC5/Tri_Divider.c **** * Side Effects: If the Enable mode is set to Hardware only then this function
 205:Generated_Source\PSoC5/Tri_Divider.c **** *               has no effect on the operation of the counter.
 206:Generated_Source\PSoC5/Tri_Divider.c **** *
 207:Generated_Source\PSoC5/Tri_Divider.c **** *******************************************************************************/
 208:Generated_Source\PSoC5/Tri_Divider.c **** void Tri_Divider_Stop(void) 
 209:Generated_Source\PSoC5/Tri_Divider.c **** {
  63              		.loc 1 209 0
  64              		.cfi_startproc
  65              		@ args = 0, pretend = 0, frame = 0
  66              		@ frame_needed = 0, uses_anonymous_args = 0
  67              		@ link register save eliminated.
 210:Generated_Source\PSoC5/Tri_Divider.c ****     /* Disable Counter */
 211:Generated_Source\PSoC5/Tri_Divider.c ****     #if(!Tri_Divider_ControlRegRemoved || Tri_Divider_UsingFixedFunction)
 212:Generated_Source\PSoC5/Tri_Divider.c ****         Tri_Divider_CONTROL &= ((uint8)(~Tri_Divider_CTRL_ENABLE));        
  68              		.loc 1 212 0
  69 0000 084A     		ldr	r2, .L5
  70 0002 1378     		ldrb	r3, [r2]	@ zero_extendqisi2
  71 0004 03F0FE03 		and	r3, r3, #254
  72 0008 1370     		strb	r3, [r2]
 213:Generated_Source\PSoC5/Tri_Divider.c ****     #endif /* (!Tri_Divider_ControlRegRemoved || Tri_Divider_UsingFixedFunction) */
ARM GAS  C:\Users\214016~1\AppData\Local\Temp\ccbY5ROP.s 			page 6


 214:Generated_Source\PSoC5/Tri_Divider.c ****     
 215:Generated_Source\PSoC5/Tri_Divider.c ****     /* Globally disable the Fixed Function Block chosen */
 216:Generated_Source\PSoC5/Tri_Divider.c ****     #if (Tri_Divider_UsingFixedFunction)
 217:Generated_Source\PSoC5/Tri_Divider.c ****         Tri_Divider_GLOBAL_ENABLE &= ((uint8)(~Tri_Divider_BLOCK_EN_MASK));
  73              		.loc 1 217 0
  74 000a A2F67532 		subw	r2, r2, #2933
  75 000e 1378     		ldrb	r3, [r2]	@ zero_extendqisi2
  76 0010 03F0FB03 		and	r3, r3, #251
  77 0014 1370     		strb	r3, [r2]
 218:Generated_Source\PSoC5/Tri_Divider.c ****         Tri_Divider_GLOBAL_STBY_ENABLE &= ((uint8)(~Tri_Divider_BLOCK_STBY_EN_MASK));
  78              		.loc 1 218 0
  79 0016 1032     		adds	r2, r2, #16
  80 0018 1378     		ldrb	r3, [r2]	@ zero_extendqisi2
  81 001a 03F0FB03 		and	r3, r3, #251
  82 001e 1370     		strb	r3, [r2]
  83 0020 7047     		bx	lr
  84              	.L6:
  85 0022 00BF     		.align	2
  86              	.L5:
  87 0024 184F0040 		.word	1073762072
  88              		.cfi_endproc
  89              	.LFE3:
  90              		.size	Tri_Divider_Stop, .-Tri_Divider_Stop
  91              		.section	.text.Tri_Divider_SetInterruptMode,"ax",%progbits
  92              		.align	2
  93              		.global	Tri_Divider_SetInterruptMode
  94              		.thumb
  95              		.thumb_func
  96              		.type	Tri_Divider_SetInterruptMode, %function
  97              	Tri_Divider_SetInterruptMode:
  98              	.LFB4:
 219:Generated_Source\PSoC5/Tri_Divider.c ****     #endif /* (Tri_Divider_UsingFixedFunction) */
 220:Generated_Source\PSoC5/Tri_Divider.c **** }
 221:Generated_Source\PSoC5/Tri_Divider.c **** 
 222:Generated_Source\PSoC5/Tri_Divider.c **** 
 223:Generated_Source\PSoC5/Tri_Divider.c **** /*******************************************************************************
 224:Generated_Source\PSoC5/Tri_Divider.c **** * Function Name: Tri_Divider_SetInterruptMode
 225:Generated_Source\PSoC5/Tri_Divider.c **** ********************************************************************************
 226:Generated_Source\PSoC5/Tri_Divider.c **** * Summary:
 227:Generated_Source\PSoC5/Tri_Divider.c **** * Configures which interrupt sources are enabled to generate the final interrupt
 228:Generated_Source\PSoC5/Tri_Divider.c **** *
 229:Generated_Source\PSoC5/Tri_Divider.c **** * Parameters:  
 230:Generated_Source\PSoC5/Tri_Divider.c **** *  InterruptsMask: This parameter is an or'd collection of the status bits
 231:Generated_Source\PSoC5/Tri_Divider.c **** *                   which will be allowed to generate the counters interrupt.   
 232:Generated_Source\PSoC5/Tri_Divider.c **** *
 233:Generated_Source\PSoC5/Tri_Divider.c **** * Return: 
 234:Generated_Source\PSoC5/Tri_Divider.c **** *  void
 235:Generated_Source\PSoC5/Tri_Divider.c **** *
 236:Generated_Source\PSoC5/Tri_Divider.c **** *******************************************************************************/
 237:Generated_Source\PSoC5/Tri_Divider.c **** void Tri_Divider_SetInterruptMode(uint8 interruptsMask) 
 238:Generated_Source\PSoC5/Tri_Divider.c **** {
  99              		.loc 1 238 0
 100              		.cfi_startproc
 101              		@ args = 0, pretend = 0, frame = 0
 102              		@ frame_needed = 0, uses_anonymous_args = 0
 103              		@ link register save eliminated.
 104              	.LVL0:
ARM GAS  C:\Users\214016~1\AppData\Local\Temp\ccbY5ROP.s 			page 7


 239:Generated_Source\PSoC5/Tri_Divider.c ****     Tri_Divider_STATUS_MASK = interruptsMask;
 105              		.loc 1 239 0
 106 0000 014B     		ldr	r3, .L8
 107 0002 1870     		strb	r0, [r3]
 108 0004 7047     		bx	lr
 109              	.L9:
 110 0006 00BF     		.align	2
 111              	.L8:
 112 0008 1B4F0040 		.word	1073762075
 113              		.cfi_endproc
 114              	.LFE4:
 115              		.size	Tri_Divider_SetInterruptMode, .-Tri_Divider_SetInterruptMode
 116              		.section	.text.Tri_Divider_ReadStatusRegister,"ax",%progbits
 117              		.align	2
 118              		.global	Tri_Divider_ReadStatusRegister
 119              		.thumb
 120              		.thumb_func
 121              		.type	Tri_Divider_ReadStatusRegister, %function
 122              	Tri_Divider_ReadStatusRegister:
 123              	.LFB5:
 240:Generated_Source\PSoC5/Tri_Divider.c **** }
 241:Generated_Source\PSoC5/Tri_Divider.c **** 
 242:Generated_Source\PSoC5/Tri_Divider.c **** 
 243:Generated_Source\PSoC5/Tri_Divider.c **** /*******************************************************************************
 244:Generated_Source\PSoC5/Tri_Divider.c **** * Function Name: Tri_Divider_ReadStatusRegister
 245:Generated_Source\PSoC5/Tri_Divider.c **** ********************************************************************************
 246:Generated_Source\PSoC5/Tri_Divider.c **** * Summary:
 247:Generated_Source\PSoC5/Tri_Divider.c **** *   Reads the status register and returns it's state. This function should use
 248:Generated_Source\PSoC5/Tri_Divider.c **** *       defined types for the bit-field information as the bits in this
 249:Generated_Source\PSoC5/Tri_Divider.c **** *       register may be permuteable.
 250:Generated_Source\PSoC5/Tri_Divider.c **** *
 251:Generated_Source\PSoC5/Tri_Divider.c **** * Parameters:  
 252:Generated_Source\PSoC5/Tri_Divider.c **** *  void
 253:Generated_Source\PSoC5/Tri_Divider.c **** *
 254:Generated_Source\PSoC5/Tri_Divider.c **** * Return: 
 255:Generated_Source\PSoC5/Tri_Divider.c **** *  (uint8) The contents of the status register
 256:Generated_Source\PSoC5/Tri_Divider.c **** *
 257:Generated_Source\PSoC5/Tri_Divider.c **** * Side Effects:
 258:Generated_Source\PSoC5/Tri_Divider.c **** *   Status register bits may be clear on read. 
 259:Generated_Source\PSoC5/Tri_Divider.c **** *
 260:Generated_Source\PSoC5/Tri_Divider.c **** *******************************************************************************/
 261:Generated_Source\PSoC5/Tri_Divider.c **** uint8   Tri_Divider_ReadStatusRegister(void) 
 262:Generated_Source\PSoC5/Tri_Divider.c **** {
 124              		.loc 1 262 0
 125              		.cfi_startproc
 126              		@ args = 0, pretend = 0, frame = 0
 127              		@ frame_needed = 0, uses_anonymous_args = 0
 128              		@ link register save eliminated.
 263:Generated_Source\PSoC5/Tri_Divider.c ****     return Tri_Divider_STATUS;
 129              		.loc 1 263 0
 130 0000 014B     		ldr	r3, .L11
 131 0002 1878     		ldrb	r0, [r3]	@ zero_extendqisi2
 264:Generated_Source\PSoC5/Tri_Divider.c **** }
 132              		.loc 1 264 0
 133 0004 7047     		bx	lr
 134              	.L12:
 135 0006 00BF     		.align	2
ARM GAS  C:\Users\214016~1\AppData\Local\Temp\ccbY5ROP.s 			page 8


 136              	.L11:
 137 0008 1B4F0040 		.word	1073762075
 138              		.cfi_endproc
 139              	.LFE5:
 140              		.size	Tri_Divider_ReadStatusRegister, .-Tri_Divider_ReadStatusRegister
 141              		.section	.text.Tri_Divider_ReadControlRegister,"ax",%progbits
 142              		.align	2
 143              		.global	Tri_Divider_ReadControlRegister
 144              		.thumb
 145              		.thumb_func
 146              		.type	Tri_Divider_ReadControlRegister, %function
 147              	Tri_Divider_ReadControlRegister:
 148              	.LFB6:
 265:Generated_Source\PSoC5/Tri_Divider.c **** 
 266:Generated_Source\PSoC5/Tri_Divider.c **** 
 267:Generated_Source\PSoC5/Tri_Divider.c **** #if(!Tri_Divider_ControlRegRemoved)
 268:Generated_Source\PSoC5/Tri_Divider.c **** /*******************************************************************************
 269:Generated_Source\PSoC5/Tri_Divider.c **** * Function Name: Tri_Divider_ReadControlRegister
 270:Generated_Source\PSoC5/Tri_Divider.c **** ********************************************************************************
 271:Generated_Source\PSoC5/Tri_Divider.c **** * Summary:
 272:Generated_Source\PSoC5/Tri_Divider.c **** *   Reads the control register and returns it's state. This function should use
 273:Generated_Source\PSoC5/Tri_Divider.c **** *       defined types for the bit-field information as the bits in this
 274:Generated_Source\PSoC5/Tri_Divider.c **** *       register may be permuteable.
 275:Generated_Source\PSoC5/Tri_Divider.c **** *
 276:Generated_Source\PSoC5/Tri_Divider.c **** * Parameters:  
 277:Generated_Source\PSoC5/Tri_Divider.c **** *  void
 278:Generated_Source\PSoC5/Tri_Divider.c **** *
 279:Generated_Source\PSoC5/Tri_Divider.c **** * Return: 
 280:Generated_Source\PSoC5/Tri_Divider.c **** *  (uint8) The contents of the control register
 281:Generated_Source\PSoC5/Tri_Divider.c **** *
 282:Generated_Source\PSoC5/Tri_Divider.c **** *******************************************************************************/
 283:Generated_Source\PSoC5/Tri_Divider.c **** uint8   Tri_Divider_ReadControlRegister(void) 
 284:Generated_Source\PSoC5/Tri_Divider.c **** {
 149              		.loc 1 284 0
 150              		.cfi_startproc
 151              		@ args = 0, pretend = 0, frame = 0
 152              		@ frame_needed = 0, uses_anonymous_args = 0
 153              		@ link register save eliminated.
 285:Generated_Source\PSoC5/Tri_Divider.c ****     return Tri_Divider_CONTROL;
 154              		.loc 1 285 0
 155 0000 014B     		ldr	r3, .L14
 156 0002 1878     		ldrb	r0, [r3]	@ zero_extendqisi2
 286:Generated_Source\PSoC5/Tri_Divider.c **** }
 157              		.loc 1 286 0
 158 0004 7047     		bx	lr
 159              	.L15:
 160 0006 00BF     		.align	2
 161              	.L14:
 162 0008 184F0040 		.word	1073762072
 163              		.cfi_endproc
 164              	.LFE6:
 165              		.size	Tri_Divider_ReadControlRegister, .-Tri_Divider_ReadControlRegister
 166              		.section	.text.Tri_Divider_WriteControlRegister,"ax",%progbits
 167              		.align	2
 168              		.global	Tri_Divider_WriteControlRegister
 169              		.thumb
 170              		.thumb_func
ARM GAS  C:\Users\214016~1\AppData\Local\Temp\ccbY5ROP.s 			page 9


 171              		.type	Tri_Divider_WriteControlRegister, %function
 172              	Tri_Divider_WriteControlRegister:
 173              	.LFB7:
 287:Generated_Source\PSoC5/Tri_Divider.c **** 
 288:Generated_Source\PSoC5/Tri_Divider.c **** 
 289:Generated_Source\PSoC5/Tri_Divider.c **** /*******************************************************************************
 290:Generated_Source\PSoC5/Tri_Divider.c **** * Function Name: Tri_Divider_WriteControlRegister
 291:Generated_Source\PSoC5/Tri_Divider.c **** ********************************************************************************
 292:Generated_Source\PSoC5/Tri_Divider.c **** * Summary:
 293:Generated_Source\PSoC5/Tri_Divider.c **** *   Sets the bit-field of the control register.  This function should use
 294:Generated_Source\PSoC5/Tri_Divider.c **** *       defined types for the bit-field information as the bits in this
 295:Generated_Source\PSoC5/Tri_Divider.c **** *       register may be permuteable.
 296:Generated_Source\PSoC5/Tri_Divider.c **** *
 297:Generated_Source\PSoC5/Tri_Divider.c **** * Parameters:  
 298:Generated_Source\PSoC5/Tri_Divider.c **** *  void
 299:Generated_Source\PSoC5/Tri_Divider.c **** *
 300:Generated_Source\PSoC5/Tri_Divider.c **** * Return: 
 301:Generated_Source\PSoC5/Tri_Divider.c **** *  (uint8) The contents of the control register
 302:Generated_Source\PSoC5/Tri_Divider.c **** *
 303:Generated_Source\PSoC5/Tri_Divider.c **** *******************************************************************************/
 304:Generated_Source\PSoC5/Tri_Divider.c **** void    Tri_Divider_WriteControlRegister(uint8 control) 
 305:Generated_Source\PSoC5/Tri_Divider.c **** {
 174              		.loc 1 305 0
 175              		.cfi_startproc
 176              		@ args = 0, pretend = 0, frame = 0
 177              		@ frame_needed = 0, uses_anonymous_args = 0
 178              		@ link register save eliminated.
 179              	.LVL1:
 306:Generated_Source\PSoC5/Tri_Divider.c ****     Tri_Divider_CONTROL = control;
 180              		.loc 1 306 0
 181 0000 014B     		ldr	r3, .L17
 182 0002 1870     		strb	r0, [r3]
 183 0004 7047     		bx	lr
 184              	.L18:
 185 0006 00BF     		.align	2
 186              	.L17:
 187 0008 184F0040 		.word	1073762072
 188              		.cfi_endproc
 189              	.LFE7:
 190              		.size	Tri_Divider_WriteControlRegister, .-Tri_Divider_WriteControlRegister
 191              		.section	.text.Tri_Divider_WriteCounter,"ax",%progbits
 192              		.align	2
 193              		.global	Tri_Divider_WriteCounter
 194              		.thumb
 195              		.thumb_func
 196              		.type	Tri_Divider_WriteCounter, %function
 197              	Tri_Divider_WriteCounter:
 198              	.LFB8:
 307:Generated_Source\PSoC5/Tri_Divider.c **** }
 308:Generated_Source\PSoC5/Tri_Divider.c **** 
 309:Generated_Source\PSoC5/Tri_Divider.c **** #endif  /* (!Tri_Divider_ControlRegRemoved) */
 310:Generated_Source\PSoC5/Tri_Divider.c **** 
 311:Generated_Source\PSoC5/Tri_Divider.c **** 
 312:Generated_Source\PSoC5/Tri_Divider.c **** #if (!(Tri_Divider_UsingFixedFunction && (CY_PSOC5A)))
 313:Generated_Source\PSoC5/Tri_Divider.c **** /*******************************************************************************
 314:Generated_Source\PSoC5/Tri_Divider.c **** * Function Name: Tri_Divider_WriteCounter
 315:Generated_Source\PSoC5/Tri_Divider.c **** ********************************************************************************
ARM GAS  C:\Users\214016~1\AppData\Local\Temp\ccbY5ROP.s 			page 10


 316:Generated_Source\PSoC5/Tri_Divider.c **** * Summary:
 317:Generated_Source\PSoC5/Tri_Divider.c **** *   This funtion is used to set the counter to a specific value
 318:Generated_Source\PSoC5/Tri_Divider.c **** *
 319:Generated_Source\PSoC5/Tri_Divider.c **** * Parameters:  
 320:Generated_Source\PSoC5/Tri_Divider.c **** *  counter:  New counter value. 
 321:Generated_Source\PSoC5/Tri_Divider.c **** *
 322:Generated_Source\PSoC5/Tri_Divider.c **** * Return: 
 323:Generated_Source\PSoC5/Tri_Divider.c **** *  void 
 324:Generated_Source\PSoC5/Tri_Divider.c **** *
 325:Generated_Source\PSoC5/Tri_Divider.c **** *******************************************************************************/
 326:Generated_Source\PSoC5/Tri_Divider.c **** void Tri_Divider_WriteCounter(uint16 counter) \
 327:Generated_Source\PSoC5/Tri_Divider.c ****                                    
 328:Generated_Source\PSoC5/Tri_Divider.c **** {
 199              		.loc 1 328 0
 200              		.cfi_startproc
 201              		@ args = 0, pretend = 0, frame = 0
 202              		@ frame_needed = 0, uses_anonymous_args = 0
 203              	.LVL2:
 204 0000 10B5     		push	{r4, lr}
 205              		.cfi_def_cfa_offset 8
 206              		.cfi_offset 4, -8
 207              		.cfi_offset 14, -4
 208 0002 0446     		mov	r4, r0
 329:Generated_Source\PSoC5/Tri_Divider.c ****     #if(Tri_Divider_UsingFixedFunction)
 330:Generated_Source\PSoC5/Tri_Divider.c ****         /* assert if block is already enabled */
 331:Generated_Source\PSoC5/Tri_Divider.c ****         CYASSERT (0u == (Tri_Divider_GLOBAL_ENABLE & Tri_Divider_BLOCK_EN_MASK));
 209              		.loc 1 331 0
 210 0004 094B     		ldr	r3, .L22
 211 0006 1B78     		ldrb	r3, [r3]	@ zero_extendqisi2
 212 0008 13F0040F 		tst	r3, #4
 213 000c 02D0     		beq	.L20
 214              		.loc 1 331 0 is_stmt 0 discriminator 1
 215 000e 0020     		movs	r0, #0
 216              	.LVL3:
 217 0010 FFF7FEFF 		bl	CyHalt
 218              	.LVL4:
 219              	.L20:
 332:Generated_Source\PSoC5/Tri_Divider.c ****         /* If block is disabled, enable it and then write the counter */
 333:Generated_Source\PSoC5/Tri_Divider.c ****         Tri_Divider_GLOBAL_ENABLE |= Tri_Divider_BLOCK_EN_MASK;
 220              		.loc 1 333 0 is_stmt 1
 221 0014 054B     		ldr	r3, .L22
 222 0016 1A78     		ldrb	r2, [r3]	@ zero_extendqisi2
 223 0018 42F00402 		orr	r2, r2, #4
 224 001c 1A70     		strb	r2, [r3]
 334:Generated_Source\PSoC5/Tri_Divider.c ****         CY_SET_REG16(Tri_Divider_COUNTER_LSB_PTR, (uint16)counter);
 225              		.loc 1 334 0
 226 001e 044A     		ldr	r2, .L22+4
 227 0020 1480     		strh	r4, [r2]	@ movhi
 335:Generated_Source\PSoC5/Tri_Divider.c ****         Tri_Divider_GLOBAL_ENABLE &= ((uint8)(~Tri_Divider_BLOCK_EN_MASK));
 228              		.loc 1 335 0
 229 0022 1A78     		ldrb	r2, [r3]	@ zero_extendqisi2
 230 0024 02F0FB02 		and	r2, r2, #251
 231 0028 1A70     		strb	r2, [r3]
 232 002a 10BD     		pop	{r4, pc}
 233              	.L23:
 234              		.align	2
 235              	.L22:
ARM GAS  C:\Users\214016~1\AppData\Local\Temp\ccbY5ROP.s 			page 11


 236 002c A3430040 		.word	1073759139
 237 0030 1E4F0040 		.word	1073762078
 238              		.cfi_endproc
 239              	.LFE8:
 240              		.size	Tri_Divider_WriteCounter, .-Tri_Divider_WriteCounter
 241              		.section	.text.Tri_Divider_ReadCounter,"ax",%progbits
 242              		.align	2
 243              		.global	Tri_Divider_ReadCounter
 244              		.thumb
 245              		.thumb_func
 246              		.type	Tri_Divider_ReadCounter, %function
 247              	Tri_Divider_ReadCounter:
 248              	.LFB9:
 336:Generated_Source\PSoC5/Tri_Divider.c ****     #else
 337:Generated_Source\PSoC5/Tri_Divider.c ****         CY_SET_REG16(Tri_Divider_COUNTER_LSB_PTR, counter);
 338:Generated_Source\PSoC5/Tri_Divider.c ****     #endif /* (Tri_Divider_UsingFixedFunction) */
 339:Generated_Source\PSoC5/Tri_Divider.c **** }
 340:Generated_Source\PSoC5/Tri_Divider.c **** #endif /* (!(Tri_Divider_UsingFixedFunction && (CY_PSOC5A))) */
 341:Generated_Source\PSoC5/Tri_Divider.c **** 
 342:Generated_Source\PSoC5/Tri_Divider.c **** 
 343:Generated_Source\PSoC5/Tri_Divider.c **** /*******************************************************************************
 344:Generated_Source\PSoC5/Tri_Divider.c **** * Function Name: Tri_Divider_ReadCounter
 345:Generated_Source\PSoC5/Tri_Divider.c **** ********************************************************************************
 346:Generated_Source\PSoC5/Tri_Divider.c **** * Summary:
 347:Generated_Source\PSoC5/Tri_Divider.c **** * Returns the current value of the counter.  It doesn't matter
 348:Generated_Source\PSoC5/Tri_Divider.c **** * if the counter is enabled or running.
 349:Generated_Source\PSoC5/Tri_Divider.c **** *
 350:Generated_Source\PSoC5/Tri_Divider.c **** * Parameters:  
 351:Generated_Source\PSoC5/Tri_Divider.c **** *  void:  
 352:Generated_Source\PSoC5/Tri_Divider.c **** *
 353:Generated_Source\PSoC5/Tri_Divider.c **** * Return: 
 354:Generated_Source\PSoC5/Tri_Divider.c **** *  (uint16) The present value of the counter.
 355:Generated_Source\PSoC5/Tri_Divider.c **** *
 356:Generated_Source\PSoC5/Tri_Divider.c **** *******************************************************************************/
 357:Generated_Source\PSoC5/Tri_Divider.c **** uint16 Tri_Divider_ReadCounter(void) 
 358:Generated_Source\PSoC5/Tri_Divider.c **** {
 249              		.loc 1 358 0
 250              		.cfi_startproc
 251              		@ args = 0, pretend = 0, frame = 0
 252              		@ frame_needed = 0, uses_anonymous_args = 0
 253              		@ link register save eliminated.
 359:Generated_Source\PSoC5/Tri_Divider.c ****     /* Force capture by reading Accumulator */
 360:Generated_Source\PSoC5/Tri_Divider.c ****     /* Must first do a software capture to be able to read the counter */
 361:Generated_Source\PSoC5/Tri_Divider.c ****     /* It is up to the user code to make sure there isn't already captured data in the FIFO */
 362:Generated_Source\PSoC5/Tri_Divider.c ****     #if(Tri_Divider_UsingFixedFunction)
 363:Generated_Source\PSoC5/Tri_Divider.c **** 		(void)CY_GET_REG16(Tri_Divider_COUNTER_LSB_PTR);
 254              		.loc 1 363 0
 255 0000 024B     		ldr	r3, .L25
 256 0002 1B88     		ldrh	r3, [r3]
 364:Generated_Source\PSoC5/Tri_Divider.c **** 	#else
 365:Generated_Source\PSoC5/Tri_Divider.c **** 		(void)CY_GET_REG8(Tri_Divider_COUNTER_LSB_PTR_8BIT);
 366:Generated_Source\PSoC5/Tri_Divider.c **** 	#endif/* (Tri_Divider_UsingFixedFunction) */
 367:Generated_Source\PSoC5/Tri_Divider.c ****     
 368:Generated_Source\PSoC5/Tri_Divider.c ****     /* Read the data from the FIFO (or capture register for Fixed Function)*/
 369:Generated_Source\PSoC5/Tri_Divider.c ****     #if(Tri_Divider_UsingFixedFunction)
 370:Generated_Source\PSoC5/Tri_Divider.c ****         return ((uint16)CY_GET_REG16(Tri_Divider_STATICCOUNT_LSB_PTR));
 257              		.loc 1 370 0
ARM GAS  C:\Users\214016~1\AppData\Local\Temp\ccbY5ROP.s 			page 12


 258 0004 024B     		ldr	r3, .L25+4
 259 0006 1888     		ldrh	r0, [r3]
 371:Generated_Source\PSoC5/Tri_Divider.c ****     #else
 372:Generated_Source\PSoC5/Tri_Divider.c ****         return (CY_GET_REG16(Tri_Divider_STATICCOUNT_LSB_PTR));
 373:Generated_Source\PSoC5/Tri_Divider.c ****     #endif /* (Tri_Divider_UsingFixedFunction) */
 374:Generated_Source\PSoC5/Tri_Divider.c **** }
 260              		.loc 1 374 0
 261 0008 80B2     		uxth	r0, r0
 262 000a 7047     		bx	lr
 263              	.L26:
 264              		.align	2
 265              	.L25:
 266 000c 1E4F0040 		.word	1073762078
 267 0010 204F0040 		.word	1073762080
 268              		.cfi_endproc
 269              	.LFE9:
 270              		.size	Tri_Divider_ReadCounter, .-Tri_Divider_ReadCounter
 271              		.section	.text.Tri_Divider_ReadCapture,"ax",%progbits
 272              		.align	2
 273              		.global	Tri_Divider_ReadCapture
 274              		.thumb
 275              		.thumb_func
 276              		.type	Tri_Divider_ReadCapture, %function
 277              	Tri_Divider_ReadCapture:
 278              	.LFB10:
 375:Generated_Source\PSoC5/Tri_Divider.c **** 
 376:Generated_Source\PSoC5/Tri_Divider.c **** 
 377:Generated_Source\PSoC5/Tri_Divider.c **** /*******************************************************************************
 378:Generated_Source\PSoC5/Tri_Divider.c **** * Function Name: Tri_Divider_ReadCapture
 379:Generated_Source\PSoC5/Tri_Divider.c **** ********************************************************************************
 380:Generated_Source\PSoC5/Tri_Divider.c **** * Summary:
 381:Generated_Source\PSoC5/Tri_Divider.c **** *   This function returns the last value captured.
 382:Generated_Source\PSoC5/Tri_Divider.c **** *
 383:Generated_Source\PSoC5/Tri_Divider.c **** * Parameters:  
 384:Generated_Source\PSoC5/Tri_Divider.c **** *  void
 385:Generated_Source\PSoC5/Tri_Divider.c **** *
 386:Generated_Source\PSoC5/Tri_Divider.c **** * Return: 
 387:Generated_Source\PSoC5/Tri_Divider.c **** *  (uint16) Present Capture value.
 388:Generated_Source\PSoC5/Tri_Divider.c **** *
 389:Generated_Source\PSoC5/Tri_Divider.c **** *******************************************************************************/
 390:Generated_Source\PSoC5/Tri_Divider.c **** uint16 Tri_Divider_ReadCapture(void) 
 391:Generated_Source\PSoC5/Tri_Divider.c **** {
 279              		.loc 1 391 0
 280              		.cfi_startproc
 281              		@ args = 0, pretend = 0, frame = 0
 282              		@ frame_needed = 0, uses_anonymous_args = 0
 283              		@ link register save eliminated.
 392:Generated_Source\PSoC5/Tri_Divider.c ****     #if(Tri_Divider_UsingFixedFunction)
 393:Generated_Source\PSoC5/Tri_Divider.c ****         return ((uint16)CY_GET_REG16(Tri_Divider_STATICCOUNT_LSB_PTR));
 284              		.loc 1 393 0
 285 0000 014B     		ldr	r3, .L28
 286 0002 1888     		ldrh	r0, [r3]
 394:Generated_Source\PSoC5/Tri_Divider.c ****     #else
 395:Generated_Source\PSoC5/Tri_Divider.c ****         return (CY_GET_REG16(Tri_Divider_STATICCOUNT_LSB_PTR));
 396:Generated_Source\PSoC5/Tri_Divider.c ****     #endif /* (Tri_Divider_UsingFixedFunction) */
 397:Generated_Source\PSoC5/Tri_Divider.c **** }
 287              		.loc 1 397 0
ARM GAS  C:\Users\214016~1\AppData\Local\Temp\ccbY5ROP.s 			page 13


 288 0004 80B2     		uxth	r0, r0
 289 0006 7047     		bx	lr
 290              	.L29:
 291              		.align	2
 292              	.L28:
 293 0008 204F0040 		.word	1073762080
 294              		.cfi_endproc
 295              	.LFE10:
 296              		.size	Tri_Divider_ReadCapture, .-Tri_Divider_ReadCapture
 297              		.section	.text.Tri_Divider_WritePeriod,"ax",%progbits
 298              		.align	2
 299              		.global	Tri_Divider_WritePeriod
 300              		.thumb
 301              		.thumb_func
 302              		.type	Tri_Divider_WritePeriod, %function
 303              	Tri_Divider_WritePeriod:
 304              	.LFB11:
 398:Generated_Source\PSoC5/Tri_Divider.c **** 
 399:Generated_Source\PSoC5/Tri_Divider.c **** 
 400:Generated_Source\PSoC5/Tri_Divider.c **** /*******************************************************************************
 401:Generated_Source\PSoC5/Tri_Divider.c **** * Function Name: Tri_Divider_WritePeriod
 402:Generated_Source\PSoC5/Tri_Divider.c **** ********************************************************************************
 403:Generated_Source\PSoC5/Tri_Divider.c **** * Summary:
 404:Generated_Source\PSoC5/Tri_Divider.c **** * Changes the period of the counter.  The new period 
 405:Generated_Source\PSoC5/Tri_Divider.c **** * will be loaded the next time terminal count is detected.
 406:Generated_Source\PSoC5/Tri_Divider.c **** *
 407:Generated_Source\PSoC5/Tri_Divider.c **** * Parameters:  
 408:Generated_Source\PSoC5/Tri_Divider.c **** *  period: (uint16) A value of 0 will result in
 409:Generated_Source\PSoC5/Tri_Divider.c **** *         the counter remaining at zero.  
 410:Generated_Source\PSoC5/Tri_Divider.c **** *
 411:Generated_Source\PSoC5/Tri_Divider.c **** * Return: 
 412:Generated_Source\PSoC5/Tri_Divider.c **** *  void
 413:Generated_Source\PSoC5/Tri_Divider.c **** *
 414:Generated_Source\PSoC5/Tri_Divider.c **** *******************************************************************************/
 415:Generated_Source\PSoC5/Tri_Divider.c **** void Tri_Divider_WritePeriod(uint16 period) 
 416:Generated_Source\PSoC5/Tri_Divider.c **** {
 305              		.loc 1 416 0
 306              		.cfi_startproc
 307              		@ args = 0, pretend = 0, frame = 0
 308              		@ frame_needed = 0, uses_anonymous_args = 0
 309              		@ link register save eliminated.
 310              	.LVL5:
 417:Generated_Source\PSoC5/Tri_Divider.c ****     #if(Tri_Divider_UsingFixedFunction)
 418:Generated_Source\PSoC5/Tri_Divider.c ****         CY_SET_REG16(Tri_Divider_PERIOD_LSB_PTR,(uint16)period);
 311              		.loc 1 418 0
 312 0000 014B     		ldr	r3, .L31
 313 0002 1880     		strh	r0, [r3]	@ movhi
 314 0004 7047     		bx	lr
 315              	.L32:
 316 0006 00BF     		.align	2
 317              	.L31:
 318 0008 1C4F0040 		.word	1073762076
 319              		.cfi_endproc
 320              	.LFE11:
 321              		.size	Tri_Divider_WritePeriod, .-Tri_Divider_WritePeriod
 322              		.section	.text.Tri_Divider_Init,"ax",%progbits
 323              		.align	2
ARM GAS  C:\Users\214016~1\AppData\Local\Temp\ccbY5ROP.s 			page 14


 324              		.global	Tri_Divider_Init
 325              		.thumb
 326              		.thumb_func
 327              		.type	Tri_Divider_Init, %function
 328              	Tri_Divider_Init:
 329              	.LFB0:
  38:Generated_Source\PSoC5/Tri_Divider.c ****         #if (!Tri_Divider_UsingFixedFunction && !Tri_Divider_ControlRegRemoved)
 330              		.loc 1 38 0
 331              		.cfi_startproc
 332              		@ args = 0, pretend = 0, frame = 0
 333              		@ frame_needed = 0, uses_anonymous_args = 0
 334 0000 08B5     		push	{r3, lr}
 335              		.cfi_def_cfa_offset 8
 336              		.cfi_offset 3, -8
 337              		.cfi_offset 14, -4
  50:Generated_Source\PSoC5/Tri_Divider.c ****             
 338              		.loc 1 50 0
 339 0002 154A     		ldr	r2, .L35
 340 0004 1378     		ldrb	r3, [r2]	@ zero_extendqisi2
 341 0006 03F00103 		and	r3, r3, #1
 342 000a 1370     		strb	r3, [r2]
  57:Generated_Source\PSoC5/Tri_Divider.c ****             #endif /* (CY_PSOC3 || CY_PSOC5LP) */
 343              		.loc 1 57 0
 344 000c 0232     		adds	r2, r2, #2
 345 000e 1378     		ldrb	r3, [r2]	@ zero_extendqisi2
 346 0010 03F0FC03 		and	r3, r3, #252
 347 0014 1370     		strb	r3, [r2]
  66:Generated_Source\PSoC5/Tri_Divider.c ****             
 348              		.loc 1 66 0
 349 0016 013A     		subs	r2, r2, #1
 350 0018 1378     		ldrb	r3, [r2]	@ zero_extendqisi2
 351 001a 43F00103 		orr	r3, r3, #1
 352 001e 1370     		strb	r3, [r2]
  69:Generated_Source\PSoC5/Tri_Divider.c ****             Tri_Divider_RT1 |= Tri_Divider_SYNC;     
 353              		.loc 1 69 0
 354 0020 0E4B     		ldr	r3, .L35+4
 355 0022 1A78     		ldrb	r2, [r3]	@ zero_extendqisi2
 356 0024 02F0CF02 		and	r2, r2, #207
 357 0028 1A70     		strb	r2, [r3]
  70:Generated_Source\PSoC5/Tri_Divider.c ****                     
 358              		.loc 1 70 0
 359 002a 1A78     		ldrb	r2, [r3]	@ zero_extendqisi2
 360 002c 42F03002 		orr	r2, r2, #48
 361 0030 1A70     		strb	r2, [r3]
  73:Generated_Source\PSoC5/Tri_Divider.c ****             Tri_Divider_RT1 |= Tri_Divider_SYNCDSI_EN;
 362              		.loc 1 73 0
 363 0032 1A78     		ldrb	r2, [r3]	@ zero_extendqisi2
 364 0034 02F0F002 		and	r2, r2, #240
 365 0038 1A70     		strb	r2, [r3]
  74:Generated_Source\PSoC5/Tri_Divider.c **** 
 366              		.loc 1 74 0
 367 003a 1A78     		ldrb	r2, [r3]	@ zero_extendqisi2
 368 003c 42F00F02 		orr	r2, r2, #15
 369 0040 1A70     		strb	r2, [r3]
 100:Generated_Source\PSoC5/Tri_Divider.c ****         #if (!(Tri_Divider_UsingFixedFunction && (CY_PSOC5A)))
 370              		.loc 1 100 0
 371 0042 FF20     		movs	r0, #255
ARM GAS  C:\Users\214016~1\AppData\Local\Temp\ccbY5ROP.s 			page 15


 372 0044 FFF7FEFF 		bl	Tri_Divider_WritePeriod
 373              	.LVL6:
 102:Generated_Source\PSoC5/Tri_Divider.c ****         #endif /* (!(Tri_Divider_UsingFixedFunction && (CY_PSOC5A))) */
 374              		.loc 1 102 0
 375 0048 0020     		movs	r0, #0
 376 004a FFF7FEFF 		bl	Tri_Divider_WriteCounter
 377              	.LVL7:
 104:Generated_Source\PSoC5/Tri_Divider.c ****         
 378              		.loc 1 104 0
 379 004e 0020     		movs	r0, #0
 380 0050 FFF7FEFF 		bl	Tri_Divider_SetInterruptMode
 381              	.LVL8:
 382 0054 08BD     		pop	{r3, pc}
 383              	.L36:
 384 0056 00BF     		.align	2
 385              	.L35:
 386 0058 184F0040 		.word	1073762072
 387 005c 234F0040 		.word	1073762083
 388              		.cfi_endproc
 389              	.LFE0:
 390              		.size	Tri_Divider_Init, .-Tri_Divider_Init
 391              		.section	.text.Tri_Divider_Start,"ax",%progbits
 392              		.align	2
 393              		.global	Tri_Divider_Start
 394              		.thumb
 395              		.thumb_func
 396              		.type	Tri_Divider_Start, %function
 397              	Tri_Divider_Start:
 398              	.LFB2:
 179:Generated_Source\PSoC5/Tri_Divider.c ****     if(Tri_Divider_initVar == 0u)
 399              		.loc 1 179 0
 400              		.cfi_startproc
 401              		@ args = 0, pretend = 0, frame = 0
 402              		@ frame_needed = 0, uses_anonymous_args = 0
 403 0000 08B5     		push	{r3, lr}
 404              		.cfi_def_cfa_offset 8
 405              		.cfi_offset 3, -8
 406              		.cfi_offset 14, -4
 180:Generated_Source\PSoC5/Tri_Divider.c ****     {
 407              		.loc 1 180 0
 408 0002 054B     		ldr	r3, .L40
 409 0004 1B78     		ldrb	r3, [r3]	@ zero_extendqisi2
 410 0006 23B9     		cbnz	r3, .L38
 182:Generated_Source\PSoC5/Tri_Divider.c ****         
 411              		.loc 1 182 0
 412 0008 FFF7FEFF 		bl	Tri_Divider_Init
 413              	.LVL9:
 184:Generated_Source\PSoC5/Tri_Divider.c ****     }
 414              		.loc 1 184 0
 415 000c 0122     		movs	r2, #1
 416 000e 024B     		ldr	r3, .L40
 417 0010 1A70     		strb	r2, [r3]
 418              	.L38:
 188:Generated_Source\PSoC5/Tri_Divider.c **** }
 419              		.loc 1 188 0
 420 0012 FFF7FEFF 		bl	Tri_Divider_Enable
 421              	.LVL10:
ARM GAS  C:\Users\214016~1\AppData\Local\Temp\ccbY5ROP.s 			page 16


 422 0016 08BD     		pop	{r3, pc}
 423              	.L41:
 424              		.align	2
 425              	.L40:
 426 0018 00000000 		.word	.LANCHOR0
 427              		.cfi_endproc
 428              	.LFE2:
 429              		.size	Tri_Divider_Start, .-Tri_Divider_Start
 430              		.section	.text.Tri_Divider_ReadPeriod,"ax",%progbits
 431              		.align	2
 432              		.global	Tri_Divider_ReadPeriod
 433              		.thumb
 434              		.thumb_func
 435              		.type	Tri_Divider_ReadPeriod, %function
 436              	Tri_Divider_ReadPeriod:
 437              	.LFB12:
 419:Generated_Source\PSoC5/Tri_Divider.c ****     #else
 420:Generated_Source\PSoC5/Tri_Divider.c ****         CY_SET_REG16(Tri_Divider_PERIOD_LSB_PTR, period);
 421:Generated_Source\PSoC5/Tri_Divider.c ****     #endif /* (Tri_Divider_UsingFixedFunction) */
 422:Generated_Source\PSoC5/Tri_Divider.c **** }
 423:Generated_Source\PSoC5/Tri_Divider.c **** 
 424:Generated_Source\PSoC5/Tri_Divider.c **** 
 425:Generated_Source\PSoC5/Tri_Divider.c **** /*******************************************************************************
 426:Generated_Source\PSoC5/Tri_Divider.c **** * Function Name: Tri_Divider_ReadPeriod
 427:Generated_Source\PSoC5/Tri_Divider.c **** ********************************************************************************
 428:Generated_Source\PSoC5/Tri_Divider.c **** * Summary:
 429:Generated_Source\PSoC5/Tri_Divider.c **** * Reads the current period value without affecting counter operation.
 430:Generated_Source\PSoC5/Tri_Divider.c **** *
 431:Generated_Source\PSoC5/Tri_Divider.c **** * Parameters:  
 432:Generated_Source\PSoC5/Tri_Divider.c **** *  void:  
 433:Generated_Source\PSoC5/Tri_Divider.c **** *
 434:Generated_Source\PSoC5/Tri_Divider.c **** * Return: 
 435:Generated_Source\PSoC5/Tri_Divider.c **** *  (uint16) Present period value.
 436:Generated_Source\PSoC5/Tri_Divider.c **** *
 437:Generated_Source\PSoC5/Tri_Divider.c **** *******************************************************************************/
 438:Generated_Source\PSoC5/Tri_Divider.c **** uint16 Tri_Divider_ReadPeriod(void) 
 439:Generated_Source\PSoC5/Tri_Divider.c **** {
 438              		.loc 1 439 0
 439              		.cfi_startproc
 440              		@ args = 0, pretend = 0, frame = 0
 441              		@ frame_needed = 0, uses_anonymous_args = 0
 442              		@ link register save eliminated.
 440:Generated_Source\PSoC5/Tri_Divider.c ****     #if(Tri_Divider_UsingFixedFunction)
 441:Generated_Source\PSoC5/Tri_Divider.c ****         return ((uint16)CY_GET_REG16(Tri_Divider_PERIOD_LSB_PTR));
 443              		.loc 1 441 0
 444 0000 014B     		ldr	r3, .L43
 445 0002 1888     		ldrh	r0, [r3]
 442:Generated_Source\PSoC5/Tri_Divider.c ****     #else
 443:Generated_Source\PSoC5/Tri_Divider.c ****         return (CY_GET_REG16(Tri_Divider_PERIOD_LSB_PTR));
 444:Generated_Source\PSoC5/Tri_Divider.c ****     #endif /* (Tri_Divider_UsingFixedFunction) */
 445:Generated_Source\PSoC5/Tri_Divider.c **** }
 446              		.loc 1 445 0
 447 0004 80B2     		uxth	r0, r0
 448 0006 7047     		bx	lr
 449              	.L44:
 450              		.align	2
 451              	.L43:
ARM GAS  C:\Users\214016~1\AppData\Local\Temp\ccbY5ROP.s 			page 17


 452 0008 1C4F0040 		.word	1073762076
 453              		.cfi_endproc
 454              	.LFE12:
 455              		.size	Tri_Divider_ReadPeriod, .-Tri_Divider_ReadPeriod
 456              		.global	Tri_Divider_initVar
 457              		.bss
 458              		.set	.LANCHOR0,. + 0
 459              		.type	Tri_Divider_initVar, %object
 460              		.size	Tri_Divider_initVar, 1
 461              	Tri_Divider_initVar:
 462 0000 00       		.space	1
 463              		.text
 464              	.Letext0:
 465              		.file 2 "Generated_Source\\PSoC5\\cytypes.h"
 466              		.file 3 "Generated_Source\\PSoC5\\CyLib.h"