ARM GAS  C:\Users\214016~1\AppData\Local\Temp\ccCw4MGe.s 			page 1


   1              		.syntax unified
   2              		.cpu cortex-m3
   3              		.fpu softvfp
   4              		.eabi_attribute 20, 1
   5              		.eabi_attribute 21, 1
   6              		.eabi_attribute 23, 3
   7              		.eabi_attribute 24, 1
   8              		.eabi_attribute 25, 1
   9              		.eabi_attribute 26, 1
  10              		.eabi_attribute 30, 1
  11              		.eabi_attribute 34, 1
  12              		.eabi_attribute 18, 4
  13              		.thumb
  14              		.file	"USBMIDI_1.c"
  15              		.text
  16              	.Ltext0:
  17              		.cfi_sections	.debug_frame
  18              		.section	.text.USBMIDI_1_Init,"ax",%progbits
  19              		.align	2
  20              		.global	USBMIDI_1_Init
  21              		.thumb
  22              		.thumb_func
  23              		.type	USBMIDI_1_Init, %function
  24              	USBMIDI_1_Init:
  25              	.LFB1:
  26              		.file 1 "Generated_Source\\PSoC5\\USBMIDI_1.c"
   1:Generated_Source\PSoC5/USBMIDI_1.c **** /***************************************************************************//**
   2:Generated_Source\PSoC5/USBMIDI_1.c **** * \file USBMIDI_1.c
   3:Generated_Source\PSoC5/USBMIDI_1.c **** * \version 3.10
   4:Generated_Source\PSoC5/USBMIDI_1.c **** *
   5:Generated_Source\PSoC5/USBMIDI_1.c **** * \brief
   6:Generated_Source\PSoC5/USBMIDI_1.c **** *  This file contains the global USBFS API functions.
   7:Generated_Source\PSoC5/USBMIDI_1.c **** *
   8:Generated_Source\PSoC5/USBMIDI_1.c **** * Note:
   9:Generated_Source\PSoC5/USBMIDI_1.c **** *  Many of the functions use an endpoint number. SRAM arrays are sized with 9
  10:Generated_Source\PSoC5/USBMIDI_1.c **** *  elements, so they are indexed directly by epNumber.  The SIE and ARB
  11:Generated_Source\PSoC5/USBMIDI_1.c **** *  registers are indexed by variations of epNumber - 1.
  12:Generated_Source\PSoC5/USBMIDI_1.c **** *
  13:Generated_Source\PSoC5/USBMIDI_1.c **** ********************************************************************************
  14:Generated_Source\PSoC5/USBMIDI_1.c **** * \copyright
  15:Generated_Source\PSoC5/USBMIDI_1.c **** * Copyright 2008-2016, Cypress Semiconductor Corporation.  All rights reserved.
  16:Generated_Source\PSoC5/USBMIDI_1.c **** * You may use this file only in accordance with the license, terms, conditions,
  17:Generated_Source\PSoC5/USBMIDI_1.c **** * disclaimers, and limitations in the end user license agreement accompanying
  18:Generated_Source\PSoC5/USBMIDI_1.c **** * the software package with which this file was provided.
  19:Generated_Source\PSoC5/USBMIDI_1.c **** *******************************************************************************/
  20:Generated_Source\PSoC5/USBMIDI_1.c **** 
  21:Generated_Source\PSoC5/USBMIDI_1.c **** #include "USBMIDI_1_pvt.h"
  22:Generated_Source\PSoC5/USBMIDI_1.c **** #include "USBMIDI_1_cydmac.h"
  23:Generated_Source\PSoC5/USBMIDI_1.c **** #include "USBMIDI_1_hid.h"
  24:Generated_Source\PSoC5/USBMIDI_1.c **** #include "USBMIDI_1_Dp.h"
  25:Generated_Source\PSoC5/USBMIDI_1.c **** 
  26:Generated_Source\PSoC5/USBMIDI_1.c **** 
  27:Generated_Source\PSoC5/USBMIDI_1.c **** /***************************************
  28:Generated_Source\PSoC5/USBMIDI_1.c **** * Global data allocation
  29:Generated_Source\PSoC5/USBMIDI_1.c **** ***************************************/
  30:Generated_Source\PSoC5/USBMIDI_1.c **** 
  31:Generated_Source\PSoC5/USBMIDI_1.c **** /** Indicates whether the USBFS has been initialized. The variable is
ARM GAS  C:\Users\214016~1\AppData\Local\Temp\ccCw4MGe.s 			page 2


  32:Generated_Source\PSoC5/USBMIDI_1.c **** * initialized to 0 after device reset and set to 1 the first time USBFS_Start()
  33:Generated_Source\PSoC5/USBMIDI_1.c **** * is called. This allows the Component to restart without reinitialization after
  34:Generated_Source\PSoC5/USBMIDI_1.c **** * the first call to the USBFS_Start() routine.
  35:Generated_Source\PSoC5/USBMIDI_1.c **** * If re-initialization of the Component is required, the variable should be set
  36:Generated_Source\PSoC5/USBMIDI_1.c **** * to 0 before the USBFS_Start() routine is called. Alternatively, the USBFS can
  37:Generated_Source\PSoC5/USBMIDI_1.c **** * be reinitialized by calling both USBFS_Init() and USBFS_InitComponent()
  38:Generated_Source\PSoC5/USBMIDI_1.c **** * functions.
  39:Generated_Source\PSoC5/USBMIDI_1.c **** */
  40:Generated_Source\PSoC5/USBMIDI_1.c **** uint8 USBMIDI_1_initVar = 0u;
  41:Generated_Source\PSoC5/USBMIDI_1.c **** 
  42:Generated_Source\PSoC5/USBMIDI_1.c **** #if (USBMIDI_1_EP_MANAGEMENT_DMA)
  43:Generated_Source\PSoC5/USBMIDI_1.c ****     #if (CY_PSOC4)
  44:Generated_Source\PSoC5/USBMIDI_1.c ****         static void USBMIDI_1_InitEpDma(void);
  45:Generated_Source\PSoC5/USBMIDI_1.c **** 
  46:Generated_Source\PSoC5/USBMIDI_1.c ****         /* DMA chanels assigend for endpoints. */
  47:Generated_Source\PSoC5/USBMIDI_1.c ****         const uint8 USBMIDI_1_DmaChan[USBMIDI_1_MAX_EP] =
  48:Generated_Source\PSoC5/USBMIDI_1.c ****         {
  49:Generated_Source\PSoC5/USBMIDI_1.c ****             0u,
  50:Generated_Source\PSoC5/USBMIDI_1.c ****             0u,
  51:Generated_Source\PSoC5/USBMIDI_1.c ****             0u,
  52:Generated_Source\PSoC5/USBMIDI_1.c ****             0u,
  53:Generated_Source\PSoC5/USBMIDI_1.c ****             0u,
  54:Generated_Source\PSoC5/USBMIDI_1.c ****             0u,
  55:Generated_Source\PSoC5/USBMIDI_1.c ****             0u,
  56:Generated_Source\PSoC5/USBMIDI_1.c ****             0u,
  57:Generated_Source\PSoC5/USBMIDI_1.c ****             0u,
  58:Generated_Source\PSoC5/USBMIDI_1.c ****         };        
  59:Generated_Source\PSoC5/USBMIDI_1.c ****     #else
  60:Generated_Source\PSoC5/USBMIDI_1.c ****         /* DMA chanels assigend for endpoints. */
  61:Generated_Source\PSoC5/USBMIDI_1.c ****         uint8 USBMIDI_1_DmaChan[USBMIDI_1_MAX_EP];
  62:Generated_Source\PSoC5/USBMIDI_1.c ****         
  63:Generated_Source\PSoC5/USBMIDI_1.c ****         /* DMA TDs require for PSoC 3/5LP operation. */
  64:Generated_Source\PSoC5/USBMIDI_1.c ****         uint8 USBMIDI_1_DmaTd[USBMIDI_1_MAX_EP];
  65:Generated_Source\PSoC5/USBMIDI_1.c ****     #endif /* (CY_PSOC4) */
  66:Generated_Source\PSoC5/USBMIDI_1.c **** #endif /* (USBMIDI_1_EP_MANAGEMENT_DMA) */
  67:Generated_Source\PSoC5/USBMIDI_1.c **** 
  68:Generated_Source\PSoC5/USBMIDI_1.c **** #if (USBMIDI_1_EP_MANAGEMENT_DMA_AUTO)
  69:Generated_Source\PSoC5/USBMIDI_1.c **** #if (CY_PSOC4)
  70:Generated_Source\PSoC5/USBMIDI_1.c ****     /* Number of DMA bursts. */
  71:Generated_Source\PSoC5/USBMIDI_1.c ****     uint8  USBMIDI_1_DmaEpBurstCnt   [USBMIDI_1_MAX_EP];
  72:Generated_Source\PSoC5/USBMIDI_1.c ****     
  73:Generated_Source\PSoC5/USBMIDI_1.c ****     /* Number of bytes to transfer in last DMA burst. */
  74:Generated_Source\PSoC5/USBMIDI_1.c ****     uint8  USBMIDI_1_DmaEpLastBurstEl[USBMIDI_1_MAX_EP];
  75:Generated_Source\PSoC5/USBMIDI_1.c **** 
  76:Generated_Source\PSoC5/USBMIDI_1.c ****     /* Storage for arrays above. */
  77:Generated_Source\PSoC5/USBMIDI_1.c ****     uint8  USBMIDI_1_DmaEpBurstCntBackup  [USBMIDI_1_MAX_EP];
  78:Generated_Source\PSoC5/USBMIDI_1.c ****     uint32 USBMIDI_1_DmaEpBufferAddrBackup[USBMIDI_1_MAX_EP];
  79:Generated_Source\PSoC5/USBMIDI_1.c ****      
  80:Generated_Source\PSoC5/USBMIDI_1.c ****     /* DMA trigger mux output for usb.dma_req[0-7]. */
  81:Generated_Source\PSoC5/USBMIDI_1.c ****     const uint8 USBMIDI_1_DmaReqOut[USBMIDI_1_MAX_EP] =
  82:Generated_Source\PSoC5/USBMIDI_1.c ****     {
  83:Generated_Source\PSoC5/USBMIDI_1.c ****         0u,
  84:Generated_Source\PSoC5/USBMIDI_1.c ****         USBMIDI_1_ep1_dma__TR_OUTPUT,
  85:Generated_Source\PSoC5/USBMIDI_1.c ****         USBMIDI_1_ep2_dma__TR_OUTPUT,
  86:Generated_Source\PSoC5/USBMIDI_1.c ****         0u,
  87:Generated_Source\PSoC5/USBMIDI_1.c ****         0u,
  88:Generated_Source\PSoC5/USBMIDI_1.c ****         0u,
ARM GAS  C:\Users\214016~1\AppData\Local\Temp\ccCw4MGe.s 			page 3


  89:Generated_Source\PSoC5/USBMIDI_1.c ****         0u,
  90:Generated_Source\PSoC5/USBMIDI_1.c ****         0u,
  91:Generated_Source\PSoC5/USBMIDI_1.c ****         0u,
  92:Generated_Source\PSoC5/USBMIDI_1.c ****     };
  93:Generated_Source\PSoC5/USBMIDI_1.c **** 
  94:Generated_Source\PSoC5/USBMIDI_1.c ****     /* DMA trigger mux output for usb.dma_burstend[0-7]. */
  95:Generated_Source\PSoC5/USBMIDI_1.c ****     const uint8 USBMIDI_1_DmaBurstEndOut[USBMIDI_1_MAX_EP] =
  96:Generated_Source\PSoC5/USBMIDI_1.c ****     {
  97:Generated_Source\PSoC5/USBMIDI_1.c ****         0u,
  98:Generated_Source\PSoC5/USBMIDI_1.c ****         USBMIDI_1_BURSTEND_0_TR_OUTPUT,
  99:Generated_Source\PSoC5/USBMIDI_1.c ****         USBMIDI_1_BURSTEND_1_TR_OUTPUT,
 100:Generated_Source\PSoC5/USBMIDI_1.c ****         USBMIDI_1_BURSTEND_2_TR_OUTPUT,
 101:Generated_Source\PSoC5/USBMIDI_1.c ****         USBMIDI_1_BURSTEND_3_TR_OUTPUT,
 102:Generated_Source\PSoC5/USBMIDI_1.c ****         USBMIDI_1_BURSTEND_4_TR_OUTPUT,
 103:Generated_Source\PSoC5/USBMIDI_1.c ****         USBMIDI_1_BURSTEND_5_TR_OUTPUT,
 104:Generated_Source\PSoC5/USBMIDI_1.c ****         USBMIDI_1_BURSTEND_6_TR_OUTPUT,
 105:Generated_Source\PSoC5/USBMIDI_1.c ****         USBMIDI_1_BURSTEND_7_TR_OUTPUT
 106:Generated_Source\PSoC5/USBMIDI_1.c ****     };
 107:Generated_Source\PSoC5/USBMIDI_1.c ****     
 108:Generated_Source\PSoC5/USBMIDI_1.c **** #else
 109:Generated_Source\PSoC5/USBMIDI_1.c ****     #if (USBMIDI_1_EP_DMA_AUTO_OPT == 0u)
 110:Generated_Source\PSoC5/USBMIDI_1.c ****         static uint8 clearInDataRdyStatus = USBMIDI_1_ARB_EPX_CFG_DEFAULT;
 111:Generated_Source\PSoC5/USBMIDI_1.c ****         uint8 USBMIDI_1_DmaNextTd[USBMIDI_1_MAX_EP];
 112:Generated_Source\PSoC5/USBMIDI_1.c ****         const uint8 USBMIDI_1_epX_TD_TERMOUT_EN[USBMIDI_1_MAX_EP] =
 113:Generated_Source\PSoC5/USBMIDI_1.c ****         {
 114:Generated_Source\PSoC5/USBMIDI_1.c ****             0u,
 115:Generated_Source\PSoC5/USBMIDI_1.c ****             0u,
 116:Generated_Source\PSoC5/USBMIDI_1.c ****             0u,
 117:Generated_Source\PSoC5/USBMIDI_1.c ****             0u,
 118:Generated_Source\PSoC5/USBMIDI_1.c ****             0u,
 119:Generated_Source\PSoC5/USBMIDI_1.c ****             0u,
 120:Generated_Source\PSoC5/USBMIDI_1.c ****             0u,
 121:Generated_Source\PSoC5/USBMIDI_1.c ****             0u,
 122:Generated_Source\PSoC5/USBMIDI_1.c ****             0u,
 123:Generated_Source\PSoC5/USBMIDI_1.c ****         };
 124:Generated_Source\PSoC5/USBMIDI_1.c **** 
 125:Generated_Source\PSoC5/USBMIDI_1.c ****         volatile uint16 USBMIDI_1_inLength[USBMIDI_1_MAX_EP];
 126:Generated_Source\PSoC5/USBMIDI_1.c ****         const uint8 *USBMIDI_1_inDataPointer[USBMIDI_1_MAX_EP];
 127:Generated_Source\PSoC5/USBMIDI_1.c ****         volatile uint8 USBMIDI_1_inBufFull[USBMIDI_1_MAX_EP];
 128:Generated_Source\PSoC5/USBMIDI_1.c ****     #endif /* (USBMIDI_1_EP_DMA_AUTO_OPT == 0u) */
 129:Generated_Source\PSoC5/USBMIDI_1.c **** #endif /* (CY_PSOC4) */
 130:Generated_Source\PSoC5/USBMIDI_1.c **** #endif /* (USBMIDI_1_EP_MANAGEMENT_DMA_AUTO) */
 131:Generated_Source\PSoC5/USBMIDI_1.c **** 
 132:Generated_Source\PSoC5/USBMIDI_1.c **** 
 133:Generated_Source\PSoC5/USBMIDI_1.c **** /*******************************************************************************
 134:Generated_Source\PSoC5/USBMIDI_1.c **** * Function Name: USBMIDI_1_Start
 135:Generated_Source\PSoC5/USBMIDI_1.c **** ****************************************************************************//**
 136:Generated_Source\PSoC5/USBMIDI_1.c **** *
 137:Generated_Source\PSoC5/USBMIDI_1.c **** *   This function performs all required initialization for the USBFS component.
 138:Generated_Source\PSoC5/USBMIDI_1.c **** *   After this function call, the USB device initiates communication with the
 139:Generated_Source\PSoC5/USBMIDI_1.c **** *   host by pull-up D+ line. This is the preferred method to begin component
 140:Generated_Source\PSoC5/USBMIDI_1.c **** *   operation.
 141:Generated_Source\PSoC5/USBMIDI_1.c **** *
 142:Generated_Source\PSoC5/USBMIDI_1.c **** *   Note that global interrupts have to be enabled because interrupts are
 143:Generated_Source\PSoC5/USBMIDI_1.c **** *   required for USBFS component operation.
 144:Generated_Source\PSoC5/USBMIDI_1.c **** *
 145:Generated_Source\PSoC5/USBMIDI_1.c **** *   PSoC 4200L devices: when USBFS component configured to DMA with Automatic
ARM GAS  C:\Users\214016~1\AppData\Local\Temp\ccCw4MGe.s 			page 4


 146:Generated_Source\PSoC5/USBMIDI_1.c **** *   Buffer Management, the DMA interrupt priority is changed to the highest
 147:Generated_Source\PSoC5/USBMIDI_1.c **** *   (priority 0) inside this function.
 148:Generated_Source\PSoC5/USBMIDI_1.c **** *
 149:Generated_Source\PSoC5/USBMIDI_1.c **** *   PSoC 3/PSoC 5LP devices: when USBFS component configured to DMA with
 150:Generated_Source\PSoC5/USBMIDI_1.c **** *   Automatic Buffer Management, the Arbiter interrupt priority is changed to
 151:Generated_Source\PSoC5/USBMIDI_1.c **** *   the highest (priority 0) inside this function.
 152:Generated_Source\PSoC5/USBMIDI_1.c **** *
 153:Generated_Source\PSoC5/USBMIDI_1.c **** *  \param device
 154:Generated_Source\PSoC5/USBMIDI_1.c **** *          Contains the device number of the desired device descriptor.
 155:Generated_Source\PSoC5/USBMIDI_1.c **** *          The device number can be found in the Device Descriptor Tab of
 156:Generated_Source\PSoC5/USBMIDI_1.c **** *          "Configure" dialog, under the settings of desired Device Descriptor,
 157:Generated_Source\PSoC5/USBMIDI_1.c **** *          in the "Device Number" field.
 158:Generated_Source\PSoC5/USBMIDI_1.c **** *  \param mode:
 159:Generated_Source\PSoC5/USBMIDI_1.c **** *   The operating voltage. This determines whether the voltage regulator
 160:Generated_Source\PSoC5/USBMIDI_1.c **** *   is enabled for 5V operation or if pass through mode is used for 3.3V
 161:Generated_Source\PSoC5/USBMIDI_1.c **** *   operation. Symbolic names and their associated values are given in the
 162:Generated_Source\PSoC5/USBMIDI_1.c **** *   following list.
 163:Generated_Source\PSoC5/USBMIDI_1.c **** *
 164:Generated_Source\PSoC5/USBMIDI_1.c **** *       *USBMIDI_1_3V_OPERATION* - Disable voltage regulator and pass-
 165:Generated_Source\PSoC5/USBMIDI_1.c **** *                                      through Vcc for pull-up
 166:Generated_Source\PSoC5/USBMIDI_1.c **** *
 167:Generated_Source\PSoC5/USBMIDI_1.c **** *       *USBMIDI_1_5V_OPERATION* - Enable voltage regulator and use
 168:Generated_Source\PSoC5/USBMIDI_1.c **** *                                      regulator for pull-up
 169:Generated_Source\PSoC5/USBMIDI_1.c **** *
 170:Generated_Source\PSoC5/USBMIDI_1.c **** *       *USBMIDI_1_DWR_POWER_OPERATION* - Enable or disable the voltage
 171:Generated_Source\PSoC5/USBMIDI_1.c **** *                                      regulator depending on the power supply
 172:Generated_Source\PSoC5/USBMIDI_1.c **** *                                      voltage configuration in the DWR tab.
 173:Generated_Source\PSoC5/USBMIDI_1.c **** *                                      For PSoC 3/5LP devices, the VDDD supply
 174:Generated_Source\PSoC5/USBMIDI_1.c **** *                                      voltage is considered and for PSoC 4A-L,
 175:Generated_Source\PSoC5/USBMIDI_1.c **** *                                      the VBUS supply voltage is considered.*
 176:Generated_Source\PSoC5/USBMIDI_1.c **** * \globalvars
 177:Generated_Source\PSoC5/USBMIDI_1.c **** *  \ref USBMIDI_1_initVar
 178:Generated_Source\PSoC5/USBMIDI_1.c **** *
 179:Generated_Source\PSoC5/USBMIDI_1.c **** * \sideeffect
 180:Generated_Source\PSoC5/USBMIDI_1.c **** *   This function will reset all communication states to default.
 181:Generated_Source\PSoC5/USBMIDI_1.c **** *
 182:Generated_Source\PSoC5/USBMIDI_1.c **** * \reentrant
 183:Generated_Source\PSoC5/USBMIDI_1.c **** *  No.
 184:Generated_Source\PSoC5/USBMIDI_1.c **** *
 185:Generated_Source\PSoC5/USBMIDI_1.c **** *******************************************************************************/
 186:Generated_Source\PSoC5/USBMIDI_1.c **** void USBMIDI_1_Start(uint8 device, uint8 mode) 
 187:Generated_Source\PSoC5/USBMIDI_1.c **** {
 188:Generated_Source\PSoC5/USBMIDI_1.c ****     if (0u == USBMIDI_1_initVar)
 189:Generated_Source\PSoC5/USBMIDI_1.c ****     {
 190:Generated_Source\PSoC5/USBMIDI_1.c ****         USBMIDI_1_Init();
 191:Generated_Source\PSoC5/USBMIDI_1.c ****         USBMIDI_1_initVar = 1u;
 192:Generated_Source\PSoC5/USBMIDI_1.c ****     }
 193:Generated_Source\PSoC5/USBMIDI_1.c **** 
 194:Generated_Source\PSoC5/USBMIDI_1.c ****     USBMIDI_1_InitComponent(device, mode);
 195:Generated_Source\PSoC5/USBMIDI_1.c **** }
 196:Generated_Source\PSoC5/USBMIDI_1.c **** 
 197:Generated_Source\PSoC5/USBMIDI_1.c **** 
 198:Generated_Source\PSoC5/USBMIDI_1.c **** /*******************************************************************************
 199:Generated_Source\PSoC5/USBMIDI_1.c **** * Function Name: USBMIDI_1_Init
 200:Generated_Source\PSoC5/USBMIDI_1.c **** ****************************************************************************//**
 201:Generated_Source\PSoC5/USBMIDI_1.c **** *
 202:Generated_Source\PSoC5/USBMIDI_1.c **** * This function initializes or restores the component according to the
ARM GAS  C:\Users\214016~1\AppData\Local\Temp\ccCw4MGe.s 			page 5


 203:Generated_Source\PSoC5/USBMIDI_1.c **** * customizer Configure dialog settings. It is not necessary to call
 204:Generated_Source\PSoC5/USBMIDI_1.c **** * USBMIDI_1_Init() because the USBMIDI_1_Start() routine calls
 205:Generated_Source\PSoC5/USBMIDI_1.c **** * this function and is the preferred method to begin component operation.
 206:Generated_Source\PSoC5/USBMIDI_1.c **** *
 207:Generated_Source\PSoC5/USBMIDI_1.c **** * \reentrant
 208:Generated_Source\PSoC5/USBMIDI_1.c **** *  No.
 209:Generated_Source\PSoC5/USBMIDI_1.c **** *
 210:Generated_Source\PSoC5/USBMIDI_1.c **** *******************************************************************************/
 211:Generated_Source\PSoC5/USBMIDI_1.c **** void USBMIDI_1_Init(void) 
 212:Generated_Source\PSoC5/USBMIDI_1.c **** {
  27              		.loc 1 212 0
  28              		.cfi_startproc
  29              		@ args = 0, pretend = 0, frame = 0
  30              		@ frame_needed = 0, uses_anonymous_args = 0
  31 0000 F8B5     		push	{r3, r4, r5, r6, r7, lr}
  32              		.cfi_def_cfa_offset 24
  33              		.cfi_offset 3, -24
  34              		.cfi_offset 4, -20
  35              		.cfi_offset 5, -16
  36              		.cfi_offset 6, -12
  37              		.cfi_offset 7, -8
  38              		.cfi_offset 14, -4
 213:Generated_Source\PSoC5/USBMIDI_1.c **** #if (CY_PSOC4)
 214:Generated_Source\PSoC5/USBMIDI_1.c ****     /* Enable clock to USB IP. */
 215:Generated_Source\PSoC5/USBMIDI_1.c ****     USBMIDI_1_USB_CLK_EN_REG = USBMIDI_1_USB_CLK_CSR_CLK_EN;
 216:Generated_Source\PSoC5/USBMIDI_1.c **** 
 217:Generated_Source\PSoC5/USBMIDI_1.c ****     /* The internal regulator (CR1.REG_ENABLE) is enabled in
 218:Generated_Source\PSoC5/USBMIDI_1.c ****     * USBMIDI_1_InitComponent() if it is required.
 219:Generated_Source\PSoC5/USBMIDI_1.c ****     */
 220:Generated_Source\PSoC5/USBMIDI_1.c **** 
 221:Generated_Source\PSoC5/USBMIDI_1.c ****     /* Enable USBIO control on drive mode of D+ and D- pins. */
 222:Generated_Source\PSoC5/USBMIDI_1.c ****     USBMIDI_1_USBIO_CR1_REG &= ~ (uint32) USBMIDI_1_USBIO_CR1_IOMODE;
 223:Generated_Source\PSoC5/USBMIDI_1.c **** 
 224:Generated_Source\PSoC5/USBMIDI_1.c ****     /* Set number of LF CLK to detect UBS bus reset. */
 225:Generated_Source\PSoC5/USBMIDI_1.c ****     USBMIDI_1_BUS_RST_CNT_REG = USBMIDI_1_DEFUALT_BUS_RST_CNT;
 226:Generated_Source\PSoC5/USBMIDI_1.c **** 
 227:Generated_Source\PSoC5/USBMIDI_1.c ****     /* Select VBUS detection source and clear PHY isolate. The application level
 228:Generated_Source\PSoC5/USBMIDI_1.c ****     * must ensure that VBUS is valid. There is no need to wait 2us before VBUS is valid.
 229:Generated_Source\PSoC5/USBMIDI_1.c ****     */
 230:Generated_Source\PSoC5/USBMIDI_1.c ****     USBMIDI_1_POWER_CTRL_REG = USBMIDI_1_DEFAULT_POWER_CTRL_VBUS;
 231:Generated_Source\PSoC5/USBMIDI_1.c **** 
 232:Generated_Source\PSoC5/USBMIDI_1.c ****     /* Enable PHY detector and single-ended and differential receivers. */
 233:Generated_Source\PSoC5/USBMIDI_1.c ****     USBMIDI_1_POWER_CTRL_REG |= USBMIDI_1_DEFAULT_POWER_CTRL_PHY;
 234:Generated_Source\PSoC5/USBMIDI_1.c **** 
 235:Generated_Source\PSoC5/USBMIDI_1.c ****     /* Suspend clear sequence. */
 236:Generated_Source\PSoC5/USBMIDI_1.c ****     USBMIDI_1_POWER_CTRL_REG &= (uint32) ~USBMIDI_1_POWER_CTRL_SUSPEND;
 237:Generated_Source\PSoC5/USBMIDI_1.c ****     CyDelayUs(USBMIDI_1_WAIT_SUSPEND_DEL_DISABLE);
 238:Generated_Source\PSoC5/USBMIDI_1.c ****     USBMIDI_1_POWER_CTRL_REG &= (uint32) ~USBMIDI_1_POWER_CTRL_SUSPEND_DEL;
 239:Generated_Source\PSoC5/USBMIDI_1.c **** 
 240:Generated_Source\PSoC5/USBMIDI_1.c ****     /* Sets IMO lock options and clear all other bits. */
 241:Generated_Source\PSoC5/USBMIDI_1.c ****     USBMIDI_1_CR1_REG = USBMIDI_1_DEFUALT_CR1;
 242:Generated_Source\PSoC5/USBMIDI_1.c **** 
 243:Generated_Source\PSoC5/USBMIDI_1.c ****     /* Configure level (hi, lo, med) for each interrupt source. */
 244:Generated_Source\PSoC5/USBMIDI_1.c ****     USBMIDI_1_INTR_LVL_SEL_REG = USBMIDI_1_DEFAULT_INTR_LVL_SEL;
 245:Generated_Source\PSoC5/USBMIDI_1.c **** 
 246:Generated_Source\PSoC5/USBMIDI_1.c ****     /* Configure interrupt sources from: SOF, Bus Reset and EP0. */
 247:Generated_Source\PSoC5/USBMIDI_1.c ****     USBMIDI_1_INTR_SIE_MASK_REG = USBMIDI_1_DEFAULT_INTR_SIE_MASK;
ARM GAS  C:\Users\214016~1\AppData\Local\Temp\ccCw4MGe.s 			page 6


 248:Generated_Source\PSoC5/USBMIDI_1.c **** 
 249:Generated_Source\PSoC5/USBMIDI_1.c **** #else
 250:Generated_Source\PSoC5/USBMIDI_1.c ****     uint8 enableInterrupts = CyEnterCriticalSection();
  39              		.loc 1 250 0
  40 0002 FFF7FEFF 		bl	CyEnterCriticalSection
  41              	.LVL0:
  42 0006 0646     		mov	r6, r0
  43              	.LVL1:
 251:Generated_Source\PSoC5/USBMIDI_1.c **** 
 252:Generated_Source\PSoC5/USBMIDI_1.c **** #if (USBMIDI_1_EP_MANAGEMENT_DMA)
 253:Generated_Source\PSoC5/USBMIDI_1.c ****     uint16 i;
 254:Generated_Source\PSoC5/USBMIDI_1.c **** #endif /* (USBMIDI_1_EP_MANAGEMENT_DMA) */
 255:Generated_Source\PSoC5/USBMIDI_1.c **** 
 256:Generated_Source\PSoC5/USBMIDI_1.c ****     /* Enable USB block. */
 257:Generated_Source\PSoC5/USBMIDI_1.c ****     USBMIDI_1_PM_ACT_CFG_REG |= USBMIDI_1_PM_ACT_EN_FSUSB;
  44              		.loc 1 257 0
  45 0008 3C4A     		ldr	r2, .L3
  46 000a 1378     		ldrb	r3, [r2]	@ zero_extendqisi2
  47 000c 43F00103 		orr	r3, r3, #1
  48 0010 1370     		strb	r3, [r2]
 258:Generated_Source\PSoC5/USBMIDI_1.c ****     /* Enable USB block for Standby Power Mode. */
 259:Generated_Source\PSoC5/USBMIDI_1.c ****     USBMIDI_1_PM_STBY_CFG_REG |= USBMIDI_1_PM_STBY_EN_FSUSB;
  49              		.loc 1 259 0
  50 0012 1032     		adds	r2, r2, #16
  51 0014 1378     		ldrb	r3, [r2]	@ zero_extendqisi2
  52 0016 43F00103 		orr	r3, r3, #1
  53 001a 1370     		strb	r3, [r2]
 260:Generated_Source\PSoC5/USBMIDI_1.c **** 
 261:Generated_Source\PSoC5/USBMIDI_1.c ****     /* Enable core clock. */
 262:Generated_Source\PSoC5/USBMIDI_1.c ****     USBMIDI_1_USB_CLK_EN_REG = USBMIDI_1_USB_CLK_ENABLE;
  54              		.loc 1 262 0
  55 001c 0127     		movs	r7, #1
  56 001e 384B     		ldr	r3, .L3+4
  57 0020 1F70     		strb	r7, [r3]
 263:Generated_Source\PSoC5/USBMIDI_1.c **** 
 264:Generated_Source\PSoC5/USBMIDI_1.c ****     USBMIDI_1_CR1_REG = USBMIDI_1_CR1_ENABLE_LOCK;
  58              		.loc 1 264 0
  59 0022 0225     		movs	r5, #2
  60 0024 943B     		subs	r3, r3, #148
  61 0026 1D70     		strb	r5, [r3]
 265:Generated_Source\PSoC5/USBMIDI_1.c **** 
 266:Generated_Source\PSoC5/USBMIDI_1.c ****     /* ENABLING USBIO PADS IN USB MODE FROM I/O MODE. */
 267:Generated_Source\PSoC5/USBMIDI_1.c ****     /* Ensure USB transmit enable is low (USB_USBIO_CR0.ten). - Manual Transmission - Disabled. */
 268:Generated_Source\PSoC5/USBMIDI_1.c ****     USBMIDI_1_USBIO_CR0_REG &= (uint8) ~USBMIDI_1_USBIO_CR0_TEN;
  62              		.loc 1 268 0
  63 0028 02F5E252 		add	r2, r2, #7232
  64 002c 1B32     		adds	r2, r2, #27
  65 002e 1378     		ldrb	r3, [r2]	@ zero_extendqisi2
  66 0030 03F07F03 		and	r3, r3, #127
  67 0034 1370     		strb	r3, [r2]
 269:Generated_Source\PSoC5/USBMIDI_1.c ****     CyDelayUs(USBMIDI_1_WAIT_REG_STABILITY_50NS);  /* ~50ns delay. */
  68              		.loc 1 269 0
  69 0036 0020     		movs	r0, #0
  70 0038 FFF7FEFF 		bl	CyDelayUs
  71              	.LVL2:
 270:Generated_Source\PSoC5/USBMIDI_1.c ****     /* Disable USBIO by asserting PM.USB_CR0.fsusbio_pd_n(Inverted.
 271:Generated_Source\PSoC5/USBMIDI_1.c ****     *  high. These bits will be set low by the power manager out-of-reset.
ARM GAS  C:\Users\214016~1\AppData\Local\Temp\ccCw4MGe.s 			page 7


 272:Generated_Source\PSoC5/USBMIDI_1.c ****     *  Also confirm USBIO pull-up is disabled.
 273:Generated_Source\PSoC5/USBMIDI_1.c ****     */
 274:Generated_Source\PSoC5/USBMIDI_1.c ****     USBMIDI_1_PM_USB_CR0_REG &= (uint8) ~(USBMIDI_1_PM_USB_CR0_PD_N |
  72              		.loc 1 274 0
  73 003c 314C     		ldr	r4, .L3+8
  74 003e 2378     		ldrb	r3, [r4]	@ zero_extendqisi2
  75 0040 03F0F903 		and	r3, r3, #249
  76 0044 2370     		strb	r3, [r4]
 275:Generated_Source\PSoC5/USBMIDI_1.c ****                                                  USBMIDI_1_PM_USB_CR0_PD_PULLUP_N);
 276:Generated_Source\PSoC5/USBMIDI_1.c **** 
 277:Generated_Source\PSoC5/USBMIDI_1.c ****     /* Select IOMODE to USB mode. */
 278:Generated_Source\PSoC5/USBMIDI_1.c ****     USBMIDI_1_USBIO_CR1_REG &= (uint8) ~USBMIDI_1_USBIO_CR1_IOMODE;
  77              		.loc 1 278 0
  78 0046 304A     		ldr	r2, .L3+12
  79 0048 1378     		ldrb	r3, [r2]	@ zero_extendqisi2
  80 004a 03F0DF03 		and	r3, r3, #223
  81 004e 1370     		strb	r3, [r2]
 279:Generated_Source\PSoC5/USBMIDI_1.c **** 
 280:Generated_Source\PSoC5/USBMIDI_1.c ****     /* Enable USBIO reference by setting PM.USB_CR0.fsusbio_ref_en. */
 281:Generated_Source\PSoC5/USBMIDI_1.c ****     USBMIDI_1_PM_USB_CR0_REG |= USBMIDI_1_PM_USB_CR0_REF_EN;
  82              		.loc 1 281 0
  83 0050 2378     		ldrb	r3, [r4]	@ zero_extendqisi2
  84 0052 3B43     		orrs	r3, r3, r7
  85 0054 2370     		strb	r3, [r4]
 282:Generated_Source\PSoC5/USBMIDI_1.c ****     /* Reference is available for 1us after regulator is enabled. */
 283:Generated_Source\PSoC5/USBMIDI_1.c ****     CyDelayUs(USBMIDI_1_WAIT_REG_STABILITY_1US);
  86              		.loc 1 283 0
  87 0056 3846     		mov	r0, r7
  88 0058 FFF7FEFF 		bl	CyDelayUs
  89              	.LVL3:
 284:Generated_Source\PSoC5/USBMIDI_1.c ****     /* OR 40us after power is restored. */
 285:Generated_Source\PSoC5/USBMIDI_1.c ****     CyDelayUs(USBMIDI_1_WAIT_VREF_RESTORE);
  90              		.loc 1 285 0
  91 005c 2820     		movs	r0, #40
  92 005e FFF7FEFF 		bl	CyDelayUs
  93              	.LVL4:
 286:Generated_Source\PSoC5/USBMIDI_1.c ****     /* Ensure single-ended disable bits are low (PRT15.INP_DIS[7:6])(input receiver enabled). */
 287:Generated_Source\PSoC5/USBMIDI_1.c ****     USBMIDI_1_DM_INP_DIS_REG &= (uint8) ~USBMIDI_1_DM_MASK;
  94              		.loc 1 287 0
  95 0062 2A4B     		ldr	r3, .L3+16
  96 0064 1A78     		ldrb	r2, [r3]	@ zero_extendqisi2
  97 0066 02F07F02 		and	r2, r2, #127
  98 006a 1A70     		strb	r2, [r3]
 288:Generated_Source\PSoC5/USBMIDI_1.c ****     USBMIDI_1_DP_INP_DIS_REG &= (uint8) ~USBMIDI_1_DP_MASK;
  99              		.loc 1 288 0
 100 006c 1A78     		ldrb	r2, [r3]	@ zero_extendqisi2
 101 006e 02F0BF02 		and	r2, r2, #191
 102 0072 1A70     		strb	r2, [r3]
 289:Generated_Source\PSoC5/USBMIDI_1.c **** 
 290:Generated_Source\PSoC5/USBMIDI_1.c ****     /* Enable USBIO. */
 291:Generated_Source\PSoC5/USBMIDI_1.c ****     USBMIDI_1_PM_USB_CR0_REG |= USBMIDI_1_PM_USB_CR0_PD_N;
 103              		.loc 1 291 0
 104 0074 2378     		ldrb	r3, [r4]	@ zero_extendqisi2
 105 0076 2B43     		orrs	r3, r3, r5
 106 0078 2370     		strb	r3, [r4]
 292:Generated_Source\PSoC5/USBMIDI_1.c ****     CyDelayUs(USBMIDI_1_WAIT_PD_PULLUP_N_ENABLE);
 107              		.loc 1 292 0
ARM GAS  C:\Users\214016~1\AppData\Local\Temp\ccCw4MGe.s 			page 8


 108 007a 2846     		mov	r0, r5
 109 007c FFF7FEFF 		bl	CyDelayUs
 110              	.LVL5:
 293:Generated_Source\PSoC5/USBMIDI_1.c ****     /* Set USBIO pull-up enable. */
 294:Generated_Source\PSoC5/USBMIDI_1.c ****     USBMIDI_1_PM_USB_CR0_REG |= USBMIDI_1_PM_USB_CR0_PD_PULLUP_N;
 111              		.loc 1 294 0
 112 0080 2378     		ldrb	r3, [r4]	@ zero_extendqisi2
 113 0082 43F00403 		orr	r3, r3, #4
 114 0086 2370     		strb	r3, [r4]
 295:Generated_Source\PSoC5/USBMIDI_1.c **** 
 296:Generated_Source\PSoC5/USBMIDI_1.c ****     /* Reset Arbiter Write Address register for endpoint 1. */
 297:Generated_Source\PSoC5/USBMIDI_1.c ****     CY_SET_REG8(USBMIDI_1_ARB_RW1_WA_PTR,     0u);
 115              		.loc 1 297 0
 116 0088 0023     		movs	r3, #0
 117 008a 214A     		ldr	r2, .L3+20
 118 008c 1370     		strb	r3, [r2]
 298:Generated_Source\PSoC5/USBMIDI_1.c ****     CY_SET_REG8(USBMIDI_1_ARB_RW1_WA_MSB_PTR, 0u);
 119              		.loc 1 298 0
 120 008e 0132     		adds	r2, r2, #1
 121 0090 1370     		strb	r3, [r2]
 299:Generated_Source\PSoC5/USBMIDI_1.c **** 
 300:Generated_Source\PSoC5/USBMIDI_1.c **** #if (USBMIDI_1_EP_MANAGEMENT_DMA)
 301:Generated_Source\PSoC5/USBMIDI_1.c ****     /* Initialize transfer descriptor. This will be used to detect DMA state - initialized or not. 
 302:Generated_Source\PSoC5/USBMIDI_1.c ****     for (i = 0u; i < USBMIDI_1_MAX_EP; ++i)
 303:Generated_Source\PSoC5/USBMIDI_1.c ****     {
 304:Generated_Source\PSoC5/USBMIDI_1.c ****         USBMIDI_1_DmaTd[i] = DMA_INVALID_TD;
 305:Generated_Source\PSoC5/USBMIDI_1.c **** 
 306:Generated_Source\PSoC5/USBMIDI_1.c ****     #if (USBMIDI_1_EP_MANAGEMENT_DMA_AUTO && (USBMIDI_1_EP_DMA_AUTO_OPT == 0u))
 307:Generated_Source\PSoC5/USBMIDI_1.c ****         USBMIDI_1_DmaNextTd[i] = DMA_INVALID_TD;
 308:Generated_Source\PSoC5/USBMIDI_1.c ****     #endif /* (USBMIDI_1_EP_MANAGEMENT_DMA_AUTO && (USBMIDI_1_EP_DMA_AUTO_OPT == 0u)) */
 309:Generated_Source\PSoC5/USBMIDI_1.c ****     }
 310:Generated_Source\PSoC5/USBMIDI_1.c **** #endif /* (USBMIDI_1_EP_MANAGEMENT_DMA) */
 311:Generated_Source\PSoC5/USBMIDI_1.c **** 
 312:Generated_Source\PSoC5/USBMIDI_1.c ****     CyExitCriticalSection(enableInterrupts);
 122              		.loc 1 312 0
 123 0092 3046     		mov	r0, r6
 124 0094 FFF7FEFF 		bl	CyExitCriticalSection
 125              	.LVL6:
 313:Generated_Source\PSoC5/USBMIDI_1.c **** #endif /* (CY_PSOC4) */
 314:Generated_Source\PSoC5/USBMIDI_1.c **** 
 315:Generated_Source\PSoC5/USBMIDI_1.c ****     /* Configure interrupts from USB block. */
 316:Generated_Source\PSoC5/USBMIDI_1.c **** #if (CY_PSOC4)
 317:Generated_Source\PSoC5/USBMIDI_1.c ****     /* Configure hi_int: set handler and priority. */
 318:Generated_Source\PSoC5/USBMIDI_1.c ****     CyIntSetPriority     (USBMIDI_1_INTR_HI_VECT_NUM,  USBMIDI_1_INTR_HI_PRIORITY);
 319:Generated_Source\PSoC5/USBMIDI_1.c ****     (void) CyIntSetVector(USBMIDI_1_INTR_HI_VECT_NUM, &USBMIDI_1_INTR_HI_ISR);
 320:Generated_Source\PSoC5/USBMIDI_1.c **** 
 321:Generated_Source\PSoC5/USBMIDI_1.c ****     /* Configure lo_int: set handler and priority. */
 322:Generated_Source\PSoC5/USBMIDI_1.c ****     CyIntSetPriority     (USBMIDI_1_INTR_LO_VECT_NUM,  USBMIDI_1_INTR_LO_PRIORITY);
 323:Generated_Source\PSoC5/USBMIDI_1.c ****     (void) CyIntSetVector(USBMIDI_1_INTR_LO_VECT_NUM, &USBMIDI_1_INTR_LO_ISR);
 324:Generated_Source\PSoC5/USBMIDI_1.c **** 
 325:Generated_Source\PSoC5/USBMIDI_1.c ****     /* Configure med_int: set handler and priority (routed through DSI). */
 326:Generated_Source\PSoC5/USBMIDI_1.c ****     CyIntSetPriority     (USBMIDI_1_INTR_MED_VECT_NUM,  USBMIDI_1_INTR_MED_PRIORITY);
 327:Generated_Source\PSoC5/USBMIDI_1.c ****     (void) CyIntSetVector(USBMIDI_1_INTR_MED_VECT_NUM, &USBMIDI_1_INTR_MED_ISR);
 328:Generated_Source\PSoC5/USBMIDI_1.c **** 
 329:Generated_Source\PSoC5/USBMIDI_1.c **** #else
 330:Generated_Source\PSoC5/USBMIDI_1.c ****     /* Set bus reset interrupt. */
 331:Generated_Source\PSoC5/USBMIDI_1.c ****     CyIntSetPriority(USBMIDI_1_BUS_RESET_VECT_NUM, USBMIDI_1_BUS_RESET_PRIOR);
ARM GAS  C:\Users\214016~1\AppData\Local\Temp\ccCw4MGe.s 			page 9


 126              		.loc 1 331 0
 127 0098 1720     		movs	r0, #23
 128 009a 0721     		movs	r1, #7
 129 009c FFF7FEFF 		bl	CyIntSetPriority
 130              	.LVL7:
 332:Generated_Source\PSoC5/USBMIDI_1.c ****     (void) CyIntSetVector(USBMIDI_1_BUS_RESET_VECT_NUM,   &USBMIDI_1_BUS_RESET_ISR);
 131              		.loc 1 332 0
 132 00a0 1720     		movs	r0, #23
 133 00a2 1C49     		ldr	r1, .L3+24
 134 00a4 FFF7FEFF 		bl	CyIntSetVector
 135              	.LVL8:
 333:Generated_Source\PSoC5/USBMIDI_1.c **** 
 334:Generated_Source\PSoC5/USBMIDI_1.c ****     /* Set Control Endpoint Interrupt. */
 335:Generated_Source\PSoC5/USBMIDI_1.c ****     CyIntSetPriority(USBMIDI_1_EP_0_VECT_NUM, USBMIDI_1_EP_0_PRIOR);
 136              		.loc 1 335 0
 137 00a8 1820     		movs	r0, #24
 138 00aa 0721     		movs	r1, #7
 139 00ac FFF7FEFF 		bl	CyIntSetPriority
 140              	.LVL9:
 336:Generated_Source\PSoC5/USBMIDI_1.c ****     (void) CyIntSetVector(USBMIDI_1_EP_0_VECT_NUM,   &USBMIDI_1_EP_0_ISR);
 141              		.loc 1 336 0
 142 00b0 1820     		movs	r0, #24
 143 00b2 1949     		ldr	r1, .L3+28
 144 00b4 FFF7FEFF 		bl	CyIntSetVector
 145              	.LVL10:
 337:Generated_Source\PSoC5/USBMIDI_1.c **** 
 338:Generated_Source\PSoC5/USBMIDI_1.c ****     /* Set SOF interrupt. */
 339:Generated_Source\PSoC5/USBMIDI_1.c ****     #if (USBMIDI_1_SOF_ISR_ACTIVE)
 340:Generated_Source\PSoC5/USBMIDI_1.c ****         CyIntSetPriority     (USBMIDI_1_SOF_VECT_NUM,  USBMIDI_1_SOF_PRIOR);
 146              		.loc 1 340 0
 147 00b8 1520     		movs	r0, #21
 148 00ba 0721     		movs	r1, #7
 149 00bc FFF7FEFF 		bl	CyIntSetPriority
 150              	.LVL11:
 341:Generated_Source\PSoC5/USBMIDI_1.c ****         (void) CyIntSetVector(USBMIDI_1_SOF_VECT_NUM, &USBMIDI_1_SOF_ISR);
 151              		.loc 1 341 0
 152 00c0 1520     		movs	r0, #21
 153 00c2 1649     		ldr	r1, .L3+32
 154 00c4 FFF7FEFF 		bl	CyIntSetVector
 155              	.LVL12:
 342:Generated_Source\PSoC5/USBMIDI_1.c ****     #endif /* (USBMIDI_1_SOF_ISR_ACTIVE) */
 343:Generated_Source\PSoC5/USBMIDI_1.c **** 
 344:Generated_Source\PSoC5/USBMIDI_1.c ****     /* Set Data Endpoint 1 Interrupt. */
 345:Generated_Source\PSoC5/USBMIDI_1.c ****     #if (USBMIDI_1_EP1_ISR_ACTIVE)
 346:Generated_Source\PSoC5/USBMIDI_1.c ****         CyIntSetPriority     (USBMIDI_1_EP_1_VECT_NUM,  USBMIDI_1_EP_1_PRIOR);
 156              		.loc 1 346 0
 157 00c8 2846     		mov	r0, r5
 158 00ca 0721     		movs	r1, #7
 159 00cc FFF7FEFF 		bl	CyIntSetPriority
 160              	.LVL13:
 347:Generated_Source\PSoC5/USBMIDI_1.c ****         (void) CyIntSetVector(USBMIDI_1_EP_1_VECT_NUM,  &USBMIDI_1_EP_1_ISR);
 161              		.loc 1 347 0
 162 00d0 2846     		mov	r0, r5
 163 00d2 1349     		ldr	r1, .L3+36
 164 00d4 FFF7FEFF 		bl	CyIntSetVector
 165              	.LVL14:
 348:Generated_Source\PSoC5/USBMIDI_1.c ****     #endif /* (USBMIDI_1_EP1_ISR_ACTIVE) */
ARM GAS  C:\Users\214016~1\AppData\Local\Temp\ccCw4MGe.s 			page 10


 349:Generated_Source\PSoC5/USBMIDI_1.c **** 
 350:Generated_Source\PSoC5/USBMIDI_1.c ****     /* Set Data Endpoint 2 Interrupt. */
 351:Generated_Source\PSoC5/USBMIDI_1.c ****     #if (USBMIDI_1_EP2_ISR_ACTIVE)
 352:Generated_Source\PSoC5/USBMIDI_1.c ****         CyIntSetPriority     (USBMIDI_1_EP_2_VECT_NUM,  USBMIDI_1_EP_2_PRIOR);
 166              		.loc 1 352 0
 167 00d8 0320     		movs	r0, #3
 168 00da 0721     		movs	r1, #7
 169 00dc FFF7FEFF 		bl	CyIntSetPriority
 170              	.LVL15:
 353:Generated_Source\PSoC5/USBMIDI_1.c ****         (void) CyIntSetVector(USBMIDI_1_EP_2_VECT_NUM, &USBMIDI_1_EP_2_ISR);
 171              		.loc 1 353 0
 172 00e0 0320     		movs	r0, #3
 173 00e2 1049     		ldr	r1, .L3+40
 174 00e4 FFF7FEFF 		bl	CyIntSetVector
 175              	.LVL16:
 354:Generated_Source\PSoC5/USBMIDI_1.c ****     #endif /* (USBMIDI_1_EP2_ISR_ACTIVE) */
 355:Generated_Source\PSoC5/USBMIDI_1.c **** 
 356:Generated_Source\PSoC5/USBMIDI_1.c ****     /* Set Data Endpoint 3 Interrupt. */
 357:Generated_Source\PSoC5/USBMIDI_1.c ****     #if (USBMIDI_1_EP3_ISR_ACTIVE)
 358:Generated_Source\PSoC5/USBMIDI_1.c ****         CyIntSetPriority     (USBMIDI_1_EP_3_VECT_NUM,  USBMIDI_1_EP_3_PRIOR);
 359:Generated_Source\PSoC5/USBMIDI_1.c ****         (void) CyIntSetVector(USBMIDI_1_EP_3_VECT_NUM, &USBMIDI_1_EP_3_ISR);
 360:Generated_Source\PSoC5/USBMIDI_1.c ****     #endif /* (USBMIDI_1_EP3_ISR_ACTIVE) */
 361:Generated_Source\PSoC5/USBMIDI_1.c **** 
 362:Generated_Source\PSoC5/USBMIDI_1.c ****     /* Set Data Endpoint 4 Interrupt. */
 363:Generated_Source\PSoC5/USBMIDI_1.c ****     #if (USBMIDI_1_EP4_ISR_ACTIVE)
 364:Generated_Source\PSoC5/USBMIDI_1.c ****         CyIntSetPriority     (USBMIDI_1_EP_4_VECT_NUM,  USBMIDI_1_EP_4_PRIOR);
 365:Generated_Source\PSoC5/USBMIDI_1.c ****         (void) CyIntSetVector(USBMIDI_1_EP_4_VECT_NUM, &USBMIDI_1_EP_4_ISR);
 366:Generated_Source\PSoC5/USBMIDI_1.c ****     #endif /* (USBMIDI_1_EP4_ISR_ACTIVE) */
 367:Generated_Source\PSoC5/USBMIDI_1.c **** 
 368:Generated_Source\PSoC5/USBMIDI_1.c ****     /* Set Data Endpoint 5 Interrupt. */
 369:Generated_Source\PSoC5/USBMIDI_1.c ****     #if (USBMIDI_1_EP5_ISR_ACTIVE)
 370:Generated_Source\PSoC5/USBMIDI_1.c ****         CyIntSetPriority     (USBMIDI_1_EP_5_VECT_NUM,  USBMIDI_1_EP_5_PRIOR);
 371:Generated_Source\PSoC5/USBMIDI_1.c ****         (void) CyIntSetVector(USBMIDI_1_EP_5_VECT_NUM, &USBMIDI_1_EP_5_ISR);
 372:Generated_Source\PSoC5/USBMIDI_1.c ****     #endif /* (USBMIDI_1_EP5_ISR_ACTIVE) */
 373:Generated_Source\PSoC5/USBMIDI_1.c **** 
 374:Generated_Source\PSoC5/USBMIDI_1.c ****     /* Set Data Endpoint 6 Interrupt. */
 375:Generated_Source\PSoC5/USBMIDI_1.c ****     #if (USBMIDI_1_EP6_ISR_ACTIVE)
 376:Generated_Source\PSoC5/USBMIDI_1.c ****         CyIntSetPriority     (USBMIDI_1_EP_6_VECT_NUM,  USBMIDI_1_EP_6_PRIOR);
 377:Generated_Source\PSoC5/USBMIDI_1.c ****         (void) CyIntSetVector(USBMIDI_1_EP_6_VECT_NUM, &USBMIDI_1_EP_6_ISR);
 378:Generated_Source\PSoC5/USBMIDI_1.c ****     #endif /* (USBMIDI_1_EP6_ISR_ACTIVE) */
 379:Generated_Source\PSoC5/USBMIDI_1.c **** 
 380:Generated_Source\PSoC5/USBMIDI_1.c ****      /* Set Data Endpoint 7 Interrupt. */
 381:Generated_Source\PSoC5/USBMIDI_1.c ****     #if (USBMIDI_1_EP7_ISR_ACTIVE)
 382:Generated_Source\PSoC5/USBMIDI_1.c ****         CyIntSetPriority     (USBMIDI_1_EP_7_VECT_NUM,  USBMIDI_1_EP_7_PRIOR);
 383:Generated_Source\PSoC5/USBMIDI_1.c ****         (void) CyIntSetVector(USBMIDI_1_EP_7_VECT_NUM, &USBMIDI_1_EP_7_ISR);
 384:Generated_Source\PSoC5/USBMIDI_1.c ****     #endif /* (USBMIDI_1_EP7_ISR_ACTIVE) */
 385:Generated_Source\PSoC5/USBMIDI_1.c **** 
 386:Generated_Source\PSoC5/USBMIDI_1.c ****     /* Set Data Endpoint 8 Interrupt. */
 387:Generated_Source\PSoC5/USBMIDI_1.c ****     #if (USBMIDI_1_EP8_ISR_ACTIVE)
 388:Generated_Source\PSoC5/USBMIDI_1.c ****         CyIntSetPriority     (USBMIDI_1_EP_8_VECT_NUM,  USBMIDI_1_EP_8_PRIOR);
 389:Generated_Source\PSoC5/USBMIDI_1.c ****         (void) CyIntSetVector(USBMIDI_1_EP_8_VECT_NUM, &USBMIDI_1_EP_8_ISR);
 390:Generated_Source\PSoC5/USBMIDI_1.c ****     #endif /* (USBMIDI_1_EP8_ISR_ACTIVE) */
 391:Generated_Source\PSoC5/USBMIDI_1.c **** 
 392:Generated_Source\PSoC5/USBMIDI_1.c ****     /* Set ARB Interrupt. */
 393:Generated_Source\PSoC5/USBMIDI_1.c ****     #if (USBMIDI_1_EP_MANAGEMENT_DMA && USBMIDI_1_ARB_ISR_ACTIVE)
 394:Generated_Source\PSoC5/USBMIDI_1.c ****         CyIntSetPriority     (USBMIDI_1_ARB_VECT_NUM,  USBMIDI_1_ARB_PRIOR);
 395:Generated_Source\PSoC5/USBMIDI_1.c ****         (void) CyIntSetVector(USBMIDI_1_ARB_VECT_NUM, &USBMIDI_1_ARB_ISR);
ARM GAS  C:\Users\214016~1\AppData\Local\Temp\ccCw4MGe.s 			page 11


 396:Generated_Source\PSoC5/USBMIDI_1.c ****     #endif /* (USBMIDI_1_EP_MANAGEMENT_DMA && USBMIDI_1_ARB_ISR_ACTIVE) */
 397:Generated_Source\PSoC5/USBMIDI_1.c **** #endif /* (CY_PSOC4) */
 398:Generated_Source\PSoC5/USBMIDI_1.c **** 
 399:Generated_Source\PSoC5/USBMIDI_1.c ****     /* Common: Configure GPIO interrupt for wakeup. */
 400:Generated_Source\PSoC5/USBMIDI_1.c **** #if (USBMIDI_1_DP_ISR_ACTIVE)
 401:Generated_Source\PSoC5/USBMIDI_1.c ****     CyIntSetPriority     (USBMIDI_1_DP_INTC_VECT_NUM,  USBMIDI_1_DP_INTC_PRIORITY);
 176              		.loc 1 401 0
 177 00e8 0C20     		movs	r0, #12
 178 00ea 0721     		movs	r1, #7
 179 00ec FFF7FEFF 		bl	CyIntSetPriority
 180              	.LVL17:
 402:Generated_Source\PSoC5/USBMIDI_1.c ****     (void) CyIntSetVector(USBMIDI_1_DP_INTC_VECT_NUM, &USBMIDI_1_DP_ISR);
 181              		.loc 1 402 0
 182 00f0 0C20     		movs	r0, #12
 183 00f2 0D49     		ldr	r1, .L3+44
 184 00f4 FFF7FEFF 		bl	CyIntSetVector
 185              	.LVL18:
 186 00f8 F8BD     		pop	{r3, r4, r5, r6, r7, pc}
 187              	.LVL19:
 188              	.L4:
 189 00fa 00BF     		.align	2
 190              	.L3:
 191 00fc A5430040 		.word	1073759141
 192 0100 9D600040 		.word	1073766557
 193 0104 94430040 		.word	1073759124
 194 0108 12600040 		.word	1073766418
 195 010c F8510040 		.word	1073762808
 196 0110 84600040 		.word	1073766532
 197 0114 00000000 		.word	USBMIDI_1_BUS_RESET_ISR
 198 0118 00000000 		.word	USBMIDI_1_EP_0_ISR
 199 011c 00000000 		.word	USBMIDI_1_SOF_ISR
 200 0120 00000000 		.word	USBMIDI_1_EP_1_ISR
 201 0124 00000000 		.word	USBMIDI_1_EP_2_ISR
 202 0128 00000000 		.word	USBMIDI_1_DP_ISR
 203              		.cfi_endproc
 204              	.LFE1:
 205              		.size	USBMIDI_1_Init, .-USBMIDI_1_Init
 206              		.section	.text.USBMIDI_1_InitComponent,"ax",%progbits
 207              		.align	2
 208              		.global	USBMIDI_1_InitComponent
 209              		.thumb
 210              		.thumb_func
 211              		.type	USBMIDI_1_InitComponent, %function
 212              	USBMIDI_1_InitComponent:
 213              	.LFB2:
 403:Generated_Source\PSoC5/USBMIDI_1.c **** #endif /* (USBMIDI_1_DP_ISR_ACTIVE) */
 404:Generated_Source\PSoC5/USBMIDI_1.c **** 
 405:Generated_Source\PSoC5/USBMIDI_1.c **** #if (USBMIDI_1_EP_MANAGEMENT_DMA && CY_PSOC4)
 406:Generated_Source\PSoC5/USBMIDI_1.c ****     /* Initialize DMA channels. */
 407:Generated_Source\PSoC5/USBMIDI_1.c ****     USBMIDI_1_InitEpDma();
 408:Generated_Source\PSoC5/USBMIDI_1.c **** #endif /* (USBMIDI_1_EP_MANAGEMENT_DMA && CY_PSOC4) */
 409:Generated_Source\PSoC5/USBMIDI_1.c **** }
 410:Generated_Source\PSoC5/USBMIDI_1.c **** 
 411:Generated_Source\PSoC5/USBMIDI_1.c **** 
 412:Generated_Source\PSoC5/USBMIDI_1.c **** /*******************************************************************************
 413:Generated_Source\PSoC5/USBMIDI_1.c **** * Function Name: USBMIDI_1_InitComponent
 414:Generated_Source\PSoC5/USBMIDI_1.c **** ****************************************************************************//**
ARM GAS  C:\Users\214016~1\AppData\Local\Temp\ccCw4MGe.s 			page 12


 415:Generated_Source\PSoC5/USBMIDI_1.c **** *
 416:Generated_Source\PSoC5/USBMIDI_1.c **** *   This function initializes the component’s global variables and initiates
 417:Generated_Source\PSoC5/USBMIDI_1.c **** *   communication with the host by pull-up D+ line.
 418:Generated_Source\PSoC5/USBMIDI_1.c **** *
 419:Generated_Source\PSoC5/USBMIDI_1.c **** * \param device:
 420:Generated_Source\PSoC5/USBMIDI_1.c **** *   Contains the device number of the desired device descriptor. The device
 421:Generated_Source\PSoC5/USBMIDI_1.c **** *   number can be found in the Device Descriptor Tab of "Configure" dialog,
 422:Generated_Source\PSoC5/USBMIDI_1.c **** *   under the settings of desired Device Descriptor, in the *Device Number*
 423:Generated_Source\PSoC5/USBMIDI_1.c **** *   field.
 424:Generated_Source\PSoC5/USBMIDI_1.c **** *  \param mode:
 425:Generated_Source\PSoC5/USBMIDI_1.c **** *   The operating voltage. This determines whether the voltage regulator
 426:Generated_Source\PSoC5/USBMIDI_1.c **** *   is enabled for 5V operation or if pass through mode is used for 3.3V
 427:Generated_Source\PSoC5/USBMIDI_1.c **** *   operation. Symbolic names and their associated values are given in the
 428:Generated_Source\PSoC5/USBMIDI_1.c **** *   following list.
 429:Generated_Source\PSoC5/USBMIDI_1.c **** *
 430:Generated_Source\PSoC5/USBMIDI_1.c **** *       *USBMIDI_1_3V_OPERATION* - Disable voltage regulator and pass-
 431:Generated_Source\PSoC5/USBMIDI_1.c **** *                                      through Vcc for pull-up
 432:Generated_Source\PSoC5/USBMIDI_1.c **** *
 433:Generated_Source\PSoC5/USBMIDI_1.c **** *       *USBMIDI_1_5V_OPERATION* - Enable voltage regulator and use
 434:Generated_Source\PSoC5/USBMIDI_1.c **** *                                      regulator for pull-up
 435:Generated_Source\PSoC5/USBMIDI_1.c **** *
 436:Generated_Source\PSoC5/USBMIDI_1.c **** *       *USBMIDI_1_DWR_POWER_OPERATION* - Enable or disable the voltage
 437:Generated_Source\PSoC5/USBMIDI_1.c **** *                                      regulator depending on the power supply
 438:Generated_Source\PSoC5/USBMIDI_1.c **** *                                      voltage configuration in the DWR tab.
 439:Generated_Source\PSoC5/USBMIDI_1.c **** *                                      For PSoC 3/5LP devices, the VDDD supply
 440:Generated_Source\PSoC5/USBMIDI_1.c **** *                                      voltage is considered and for PSoC 4A-L,
 441:Generated_Source\PSoC5/USBMIDI_1.c **** *                                      the VBUS supply voltage is considered.
 442:Generated_Source\PSoC5/USBMIDI_1.c **** *
 443:Generated_Source\PSoC5/USBMIDI_1.c **** * \globalvars
 444:Generated_Source\PSoC5/USBMIDI_1.c **** *   \ref USBMIDI_1_device
 445:Generated_Source\PSoC5/USBMIDI_1.c **** *   \ref USBMIDI_1_transferState
 446:Generated_Source\PSoC5/USBMIDI_1.c **** *   \ref USBMIDI_1_configuration
 447:Generated_Source\PSoC5/USBMIDI_1.c **** *   \ref USBMIDI_1_deviceStatus
 448:Generated_Source\PSoC5/USBMIDI_1.c **** *
 449:Generated_Source\PSoC5/USBMIDI_1.c **** *   \ref USBMIDI_1_deviceAddress - Contains the current device address. This
 450:Generated_Source\PSoC5/USBMIDI_1.c **** *       variable is initialized to zero in this API. The Host starts to communicate
 451:Generated_Source\PSoC5/USBMIDI_1.c **** *      to the device with address 0 and then sets it to a whatever value using a
 452:Generated_Source\PSoC5/USBMIDI_1.c **** *      SET_ADDRESS request.
 453:Generated_Source\PSoC5/USBMIDI_1.c **** *
 454:Generated_Source\PSoC5/USBMIDI_1.c **** *   \ref USBMIDI_1_lastPacketSize - Initialized to 0;
 455:Generated_Source\PSoC5/USBMIDI_1.c **** *
 456:Generated_Source\PSoC5/USBMIDI_1.c **** * \reentrant
 457:Generated_Source\PSoC5/USBMIDI_1.c **** *  No.
 458:Generated_Source\PSoC5/USBMIDI_1.c **** *
 459:Generated_Source\PSoC5/USBMIDI_1.c **** *******************************************************************************/
 460:Generated_Source\PSoC5/USBMIDI_1.c **** void USBMIDI_1_InitComponent(uint8 device, uint8 mode) 
 461:Generated_Source\PSoC5/USBMIDI_1.c **** {
 214              		.loc 1 461 0
 215              		.cfi_startproc
 216              		@ args = 0, pretend = 0, frame = 0
 217              		@ frame_needed = 0, uses_anonymous_args = 0
 218              	.LVL20:
 219 0000 08B5     		push	{r3, lr}
 220              		.cfi_def_cfa_offset 8
 221              		.cfi_offset 3, -8
 222              		.cfi_offset 14, -4
 462:Generated_Source\PSoC5/USBMIDI_1.c ****     /* Initialize _hidProtocol variable to comply with
ARM GAS  C:\Users\214016~1\AppData\Local\Temp\ccCw4MGe.s 			page 13


 463:Generated_Source\PSoC5/USBMIDI_1.c ****     *  HID 7.2.6 Set_Protocol Request:
 464:Generated_Source\PSoC5/USBMIDI_1.c ****     *  "When initialized, all devices default to report protocol."
 465:Generated_Source\PSoC5/USBMIDI_1.c ****     */
 466:Generated_Source\PSoC5/USBMIDI_1.c **** #if defined(USBMIDI_1_ENABLE_HID_CLASS)
 467:Generated_Source\PSoC5/USBMIDI_1.c ****     uint8 i;
 468:Generated_Source\PSoC5/USBMIDI_1.c **** 
 469:Generated_Source\PSoC5/USBMIDI_1.c ****     for (i = 0u; i < USBMIDI_1_MAX_INTERFACES_NUMBER; i++)
 470:Generated_Source\PSoC5/USBMIDI_1.c ****     {
 471:Generated_Source\PSoC5/USBMIDI_1.c ****         USBMIDI_1_hidProtocol[i] = USBMIDI_1_PROTOCOL_REPORT;
 472:Generated_Source\PSoC5/USBMIDI_1.c ****     }
 473:Generated_Source\PSoC5/USBMIDI_1.c **** #endif /* USBMIDI_1_ENABLE_HID_CLASS */
 474:Generated_Source\PSoC5/USBMIDI_1.c **** 
 475:Generated_Source\PSoC5/USBMIDI_1.c ****     /* Store device number to access descriptor. */
 476:Generated_Source\PSoC5/USBMIDI_1.c ****     USBMIDI_1_device = device;
 223              		.loc 1 476 0
 224 0002 204B     		ldr	r3, .L12
 225 0004 1870     		strb	r0, [r3]
 477:Generated_Source\PSoC5/USBMIDI_1.c **** 
 478:Generated_Source\PSoC5/USBMIDI_1.c ****     /* Reset component internal variables. */
 479:Generated_Source\PSoC5/USBMIDI_1.c ****     USBMIDI_1_transferState   = USBMIDI_1_TRANS_STATE_IDLE;
 226              		.loc 1 479 0
 227 0006 0023     		movs	r3, #0
 228 0008 1F4A     		ldr	r2, .L12+4
 229 000a 1370     		strb	r3, [r2]
 480:Generated_Source\PSoC5/USBMIDI_1.c ****     USBMIDI_1_configurationChanged = 0u;
 230              		.loc 1 480 0
 231 000c 1F4A     		ldr	r2, .L12+8
 232 000e 1370     		strb	r3, [r2]
 481:Generated_Source\PSoC5/USBMIDI_1.c ****     USBMIDI_1_configuration   = 0u;
 233              		.loc 1 481 0
 234 0010 1F4A     		ldr	r2, .L12+12
 235 0012 1370     		strb	r3, [r2]
 482:Generated_Source\PSoC5/USBMIDI_1.c ****     USBMIDI_1_interfaceNumber = 0u;
 236              		.loc 1 482 0
 237 0014 1F4A     		ldr	r2, .L12+16
 238 0016 1370     		strb	r3, [r2]
 483:Generated_Source\PSoC5/USBMIDI_1.c ****     USBMIDI_1_deviceAddress   = 0u;
 239              		.loc 1 483 0
 240 0018 1F4A     		ldr	r2, .L12+20
 241 001a 1370     		strb	r3, [r2]
 484:Generated_Source\PSoC5/USBMIDI_1.c ****     USBMIDI_1_deviceStatus    = 0u;
 242              		.loc 1 484 0
 243 001c 1F4A     		ldr	r2, .L12+24
 244 001e 1370     		strb	r3, [r2]
 485:Generated_Source\PSoC5/USBMIDI_1.c ****     USBMIDI_1_lastPacketSize  = 0u;
 245              		.loc 1 485 0
 246 0020 1F4A     		ldr	r2, .L12+28
 247 0022 1370     		strb	r3, [r2]
 486:Generated_Source\PSoC5/USBMIDI_1.c **** 
 487:Generated_Source\PSoC5/USBMIDI_1.c ****     /* Enable component interrupts. */
 488:Generated_Source\PSoC5/USBMIDI_1.c **** #if (CY_PSOC4)
 489:Generated_Source\PSoC5/USBMIDI_1.c ****     CyIntEnable(USBMIDI_1_INTR_HI_VECT_NUM);
 490:Generated_Source\PSoC5/USBMIDI_1.c ****     CyIntEnable(USBMIDI_1_INTR_MED_VECT_NUM);
 491:Generated_Source\PSoC5/USBMIDI_1.c ****     CyIntEnable(USBMIDI_1_INTR_LO_VECT_NUM);
 492:Generated_Source\PSoC5/USBMIDI_1.c **** #else
 493:Generated_Source\PSoC5/USBMIDI_1.c ****     CyIntEnable(USBMIDI_1_BUS_RESET_VECT_NUM);
 248              		.loc 1 493 0
ARM GAS  C:\Users\214016~1\AppData\Local\Temp\ccCw4MGe.s 			page 14


 249 0024 1F4B     		ldr	r3, .L12+32
 250 0026 4FF40002 		mov	r2, #8388608
 251 002a 1A60     		str	r2, [r3]
 494:Generated_Source\PSoC5/USBMIDI_1.c ****     CyIntEnable(USBMIDI_1_EP_0_VECT_NUM);
 252              		.loc 1 494 0
 253 002c 4FF08072 		mov	r2, #16777216
 254 0030 1A60     		str	r2, [r3]
 495:Generated_Source\PSoC5/USBMIDI_1.c **** 
 496:Generated_Source\PSoC5/USBMIDI_1.c ****     #if (USBMIDI_1_SOF_ISR_ACTIVE)
 497:Generated_Source\PSoC5/USBMIDI_1.c ****         CyIntEnable(USBMIDI_1_SOF_VECT_NUM);
 255              		.loc 1 497 0
 256 0032 4FF40012 		mov	r2, #2097152
 257 0036 1A60     		str	r2, [r3]
 498:Generated_Source\PSoC5/USBMIDI_1.c ****     #endif /* (USBMIDI_1_SOF_ISR_ACTIVE) */
 499:Generated_Source\PSoC5/USBMIDI_1.c **** 
 500:Generated_Source\PSoC5/USBMIDI_1.c ****     #if (USBMIDI_1_EP1_ISR_ACTIVE)
 501:Generated_Source\PSoC5/USBMIDI_1.c ****         CyIntEnable(USBMIDI_1_EP_1_VECT_NUM);
 258              		.loc 1 501 0
 259 0038 0422     		movs	r2, #4
 260 003a 1A60     		str	r2, [r3]
 502:Generated_Source\PSoC5/USBMIDI_1.c ****     #endif /* (USBMIDI_1_EP1_ISR_ACTIVE) */
 503:Generated_Source\PSoC5/USBMIDI_1.c **** 
 504:Generated_Source\PSoC5/USBMIDI_1.c ****     #if (USBMIDI_1_EP2_ISR_ACTIVE)
 505:Generated_Source\PSoC5/USBMIDI_1.c ****         CyIntEnable(USBMIDI_1_EP_2_VECT_NUM);
 261              		.loc 1 505 0
 262 003c 0822     		movs	r2, #8
 263 003e 1A60     		str	r2, [r3]
 506:Generated_Source\PSoC5/USBMIDI_1.c ****     #endif /* (USBMIDI_1_EP5_ISR_ACTIVE) */
 507:Generated_Source\PSoC5/USBMIDI_1.c **** 
 508:Generated_Source\PSoC5/USBMIDI_1.c ****     #if (USBMIDI_1_EP3_ISR_ACTIVE)
 509:Generated_Source\PSoC5/USBMIDI_1.c ****         CyIntEnable(USBMIDI_1_EP_3_VECT_NUM);
 510:Generated_Source\PSoC5/USBMIDI_1.c ****     #endif /* (USBMIDI_1_EP5_ISR_ACTIVE) */
 511:Generated_Source\PSoC5/USBMIDI_1.c **** 
 512:Generated_Source\PSoC5/USBMIDI_1.c ****     #if (USBMIDI_1_EP4_ISR_ACTIVE)
 513:Generated_Source\PSoC5/USBMIDI_1.c ****         CyIntEnable(USBMIDI_1_EP_4_VECT_NUM);
 514:Generated_Source\PSoC5/USBMIDI_1.c ****     #endif /* (USBMIDI_1_EP5_ISR_ACTIVE) */
 515:Generated_Source\PSoC5/USBMIDI_1.c **** 
 516:Generated_Source\PSoC5/USBMIDI_1.c ****     #if (USBMIDI_1_EP5_ISR_ACTIVE)
 517:Generated_Source\PSoC5/USBMIDI_1.c ****         CyIntEnable(USBMIDI_1_EP_5_VECT_NUM);
 518:Generated_Source\PSoC5/USBMIDI_1.c ****     #endif /* (USBMIDI_1_EP5_ISR_ACTIVE) */
 519:Generated_Source\PSoC5/USBMIDI_1.c **** 
 520:Generated_Source\PSoC5/USBMIDI_1.c ****     #if (USBMIDI_1_EP6_ISR_ACTIVE)
 521:Generated_Source\PSoC5/USBMIDI_1.c ****         CyIntEnable(USBMIDI_1_EP_6_VECT_NUM);
 522:Generated_Source\PSoC5/USBMIDI_1.c ****     #endif /* USBMIDI_1_EP6_ISR_REMOVE */
 523:Generated_Source\PSoC5/USBMIDI_1.c **** 
 524:Generated_Source\PSoC5/USBMIDI_1.c ****     #if (USBMIDI_1_EP7_ISR_ACTIVE)
 525:Generated_Source\PSoC5/USBMIDI_1.c ****         CyIntEnable(USBMIDI_1_EP_7_VECT_NUM);
 526:Generated_Source\PSoC5/USBMIDI_1.c ****     #endif /* (USBMIDI_1_EP7_ISR_ACTIVE) */
 527:Generated_Source\PSoC5/USBMIDI_1.c **** 
 528:Generated_Source\PSoC5/USBMIDI_1.c ****     #if (USBMIDI_1_EP8_ISR_ACTIVE)
 529:Generated_Source\PSoC5/USBMIDI_1.c ****         CyIntEnable(USBMIDI_1_EP_8_VECT_NUM);
 530:Generated_Source\PSoC5/USBMIDI_1.c ****     #endif /* (USBMIDI_1_EP8_ISR_ACTIVE) */
 531:Generated_Source\PSoC5/USBMIDI_1.c **** #endif /* (CY_PSOC4) */
 532:Generated_Source\PSoC5/USBMIDI_1.c **** 
 533:Generated_Source\PSoC5/USBMIDI_1.c **** #if (USBMIDI_1_EP_MANAGEMENT_DMA && USBMIDI_1_ARB_ISR_ACTIVE)
 534:Generated_Source\PSoC5/USBMIDI_1.c ****     /* Enable ARB EP interrupt sources. */
 535:Generated_Source\PSoC5/USBMIDI_1.c ****     USBMIDI_1_ARB_INT_EN_REG = USBMIDI_1_DEFAULT_ARB_INT_EN;
ARM GAS  C:\Users\214016~1\AppData\Local\Temp\ccCw4MGe.s 			page 15


 536:Generated_Source\PSoC5/USBMIDI_1.c **** 
 537:Generated_Source\PSoC5/USBMIDI_1.c ****     #if (CY_PSOC3 || CY_PSOC5)
 538:Generated_Source\PSoC5/USBMIDI_1.c ****         CyIntEnable(USBMIDI_1_ARB_VECT_NUM);
 539:Generated_Source\PSoC5/USBMIDI_1.c ****     #endif /* (CY_PSOC3 || CY_PSOC5) */
 540:Generated_Source\PSoC5/USBMIDI_1.c **** #endif   /* (USBMIDI_1_EP_MANAGEMENT_DMA && USBMIDI_1_ARB_ISR_ACTIVE) */
 541:Generated_Source\PSoC5/USBMIDI_1.c **** 
 542:Generated_Source\PSoC5/USBMIDI_1.c **** /* Arbiter configuration for DMA transfers. */
 543:Generated_Source\PSoC5/USBMIDI_1.c **** #if (USBMIDI_1_EP_MANAGEMENT_DMA)
 544:Generated_Source\PSoC5/USBMIDI_1.c ****     /* Configure Arbiter for Manual or Auto DMA operation and clear configuration completion. */
 545:Generated_Source\PSoC5/USBMIDI_1.c ****     USBMIDI_1_ARB_CFG_REG = USBMIDI_1_DEFAULT_ARB_CFG;
 546:Generated_Source\PSoC5/USBMIDI_1.c **** 
 547:Generated_Source\PSoC5/USBMIDI_1.c ****     #if (CY_PSOC4)
 548:Generated_Source\PSoC5/USBMIDI_1.c ****         /* Enable DMA operation. */
 549:Generated_Source\PSoC5/USBMIDI_1.c ****         CyDmaEnable();
 550:Generated_Source\PSoC5/USBMIDI_1.c **** 
 551:Generated_Source\PSoC5/USBMIDI_1.c ****         #if (USBMIDI_1_EP_MANAGEMENT_DMA_AUTO)
 552:Generated_Source\PSoC5/USBMIDI_1.c ****             /* Change DMA priority to be highest. */
 553:Generated_Source\PSoC5/USBMIDI_1.c ****              CyIntSetPriority(CYDMA_INTR_NUMBER, USBMIDI_1_DMA_AUTO_INTR_PRIO);
 554:Generated_Source\PSoC5/USBMIDI_1.c ****         #endif /* (USBMIDI_1_EP_MANAGEMENT_DMA_AUTO) */
 555:Generated_Source\PSoC5/USBMIDI_1.c ****     #endif /* (CY_PSOC4) */
 556:Generated_Source\PSoC5/USBMIDI_1.c **** 
 557:Generated_Source\PSoC5/USBMIDI_1.c ****     #if (USBMIDI_1_EP_MANAGEMENT_DMA_AUTO)
 558:Generated_Source\PSoC5/USBMIDI_1.c ****         #if (CY_PSOC4)
 559:Generated_Source\PSoC5/USBMIDI_1.c ****             /* Enable DMA interrupt to handle DMA management. */
 560:Generated_Source\PSoC5/USBMIDI_1.c ****             CyIntEnable(CYDMA_INTR_NUMBER);
 561:Generated_Source\PSoC5/USBMIDI_1.c ****         #else
 562:Generated_Source\PSoC5/USBMIDI_1.c ****             #if (USBMIDI_1_EP_DMA_AUTO_OPT == 0u)
 563:Generated_Source\PSoC5/USBMIDI_1.c ****                 /* Initialize interrupts which handle verification of successful DMA transaction. *
 564:Generated_Source\PSoC5/USBMIDI_1.c ****                 USBMIDI_1_EP_DMA_Done_isr_StartEx(&USBMIDI_1_EP_DMA_DONE_ISR);
 565:Generated_Source\PSoC5/USBMIDI_1.c ****                 USBMIDI_1_EP17_DMA_Done_SR_InterruptEnable();
 566:Generated_Source\PSoC5/USBMIDI_1.c ****                 USBMIDI_1_EP8_DMA_Done_SR_InterruptEnable();
 567:Generated_Source\PSoC5/USBMIDI_1.c ****             #endif /* (USBMIDI_1_EP_DMA_AUTO_OPT == 0u) */
 568:Generated_Source\PSoC5/USBMIDI_1.c ****         #endif /* (CY_PSOC4) */
 569:Generated_Source\PSoC5/USBMIDI_1.c ****     #endif /* (USBMIDI_1_EP_MANAGEMENT_DMA_AUTO) */
 570:Generated_Source\PSoC5/USBMIDI_1.c **** #endif /* (USBMIDI_1_EP_MANAGEMENT_DMA) */
 571:Generated_Source\PSoC5/USBMIDI_1.c **** 
 572:Generated_Source\PSoC5/USBMIDI_1.c ****     /* Enable USB regulator depends on operation voltage. IMO Locking is enabled in Init(). */
 573:Generated_Source\PSoC5/USBMIDI_1.c ****     switch(mode)
 264              		.loc 1 573 0
 265 0040 11B1     		cbz	r1, .L7
 266 0042 0129     		cmp	r1, #1
 267 0044 06D0     		beq	.L8
 268 0046 0BE0     		b	.L10
 269              	.L7:
 574:Generated_Source\PSoC5/USBMIDI_1.c ****     {
 575:Generated_Source\PSoC5/USBMIDI_1.c ****     case USBMIDI_1_3V_OPERATION:
 576:Generated_Source\PSoC5/USBMIDI_1.c ****         /* Disable regulator for 3V operation. */
 577:Generated_Source\PSoC5/USBMIDI_1.c ****         USBMIDI_1_CR1_REG &= (uint8) ~USBMIDI_1_CR1_REG_ENABLE;
 270              		.loc 1 577 0
 271 0048 174A     		ldr	r2, .L12+36
 272 004a 1378     		ldrb	r3, [r2]	@ zero_extendqisi2
 273 004c 03F0FE03 		and	r3, r3, #254
 274 0050 1370     		strb	r3, [r2]
 578:Generated_Source\PSoC5/USBMIDI_1.c ****         break;
 275              		.loc 1 578 0
 276 0052 0AE0     		b	.L9
 277              	.L8:
ARM GAS  C:\Users\214016~1\AppData\Local\Temp\ccCw4MGe.s 			page 16


 579:Generated_Source\PSoC5/USBMIDI_1.c **** 
 580:Generated_Source\PSoC5/USBMIDI_1.c ****     case USBMIDI_1_5V_OPERATION:
 581:Generated_Source\PSoC5/USBMIDI_1.c ****         /* Enable regulator for 5V operation. */
 582:Generated_Source\PSoC5/USBMIDI_1.c ****         USBMIDI_1_CR1_REG |= (uint8)  USBMIDI_1_CR1_REG_ENABLE;
 278              		.loc 1 582 0
 279 0054 144A     		ldr	r2, .L12+36
 280 0056 1378     		ldrb	r3, [r2]	@ zero_extendqisi2
 281 0058 43F00103 		orr	r3, r3, #1
 282 005c 1370     		strb	r3, [r2]
 583:Generated_Source\PSoC5/USBMIDI_1.c ****         break;
 283              		.loc 1 583 0
 284 005e 04E0     		b	.L9
 285              	.L10:
 584:Generated_Source\PSoC5/USBMIDI_1.c **** 
 585:Generated_Source\PSoC5/USBMIDI_1.c ****     default: /* Check DWR settings of USB power supply. */
 586:Generated_Source\PSoC5/USBMIDI_1.c ****     #if (USBMIDI_1_VDDD_MV < USBMIDI_1_3500MV)
 587:Generated_Source\PSoC5/USBMIDI_1.c ****         /* Disable regulator for 3V operation. */
 588:Generated_Source\PSoC5/USBMIDI_1.c ****         USBMIDI_1_CR1_REG &= (uint8) ~USBMIDI_1_CR1_REG_ENABLE;
 589:Generated_Source\PSoC5/USBMIDI_1.c ****     #else
 590:Generated_Source\PSoC5/USBMIDI_1.c ****         /* Enable regulator for 5V operation. */
 591:Generated_Source\PSoC5/USBMIDI_1.c ****         USBMIDI_1_CR1_REG |= (uint8)  USBMIDI_1_CR1_REG_ENABLE;
 286              		.loc 1 591 0
 287 0060 114A     		ldr	r2, .L12+36
 288 0062 1378     		ldrb	r3, [r2]	@ zero_extendqisi2
 289 0064 43F00103 		orr	r3, r3, #1
 290 0068 1370     		strb	r3, [r2]
 291              	.L9:
 592:Generated_Source\PSoC5/USBMIDI_1.c ****     #endif /* (USBMIDI_1_VDDD_MV < USBMIDI_1_3500MV) */
 593:Generated_Source\PSoC5/USBMIDI_1.c ****         break;
 594:Generated_Source\PSoC5/USBMIDI_1.c ****     }
 595:Generated_Source\PSoC5/USBMIDI_1.c **** 
 596:Generated_Source\PSoC5/USBMIDI_1.c **** #if (CY_PSOC4)
 597:Generated_Source\PSoC5/USBMIDI_1.c ****     /* Clear bus activity. */
 598:Generated_Source\PSoC5/USBMIDI_1.c ****     USBMIDI_1_CR1_REG &= (uint32) ~USBMIDI_1_CR1_BUS_ACTIVITY;
 599:Generated_Source\PSoC5/USBMIDI_1.c **** 
 600:Generated_Source\PSoC5/USBMIDI_1.c ****     /* Clear EP0 count register. */
 601:Generated_Source\PSoC5/USBMIDI_1.c ****     USBMIDI_1_EP0_CNT_REG = USBMIDI_1_CLEAR_REG;
 602:Generated_Source\PSoC5/USBMIDI_1.c **** 
 603:Generated_Source\PSoC5/USBMIDI_1.c ****     /* Set EP0.CR: ACK Setup, NAK IN/OUT. */
 604:Generated_Source\PSoC5/USBMIDI_1.c ****     USBMIDI_1_EP0_CR_REG = USBMIDI_1_MODE_NAK_IN_OUT;
 605:Generated_Source\PSoC5/USBMIDI_1.c **** 
 606:Generated_Source\PSoC5/USBMIDI_1.c ****     #if (USBMIDI_1_LPM_ACTIVE)
 607:Generated_Source\PSoC5/USBMIDI_1.c ****         if (NULL != USBMIDI_1_GetBOSPtr())
 608:Generated_Source\PSoC5/USBMIDI_1.c ****         {
 609:Generated_Source\PSoC5/USBMIDI_1.c ****             /* Enable LPM and acknowledge LPM packets for active device.
 610:Generated_Source\PSoC5/USBMIDI_1.c ****             * Reset NYET_EN and SUB_RESP bits in the LPM_CTRL register.
 611:Generated_Source\PSoC5/USBMIDI_1.c ****             */
 612:Generated_Source\PSoC5/USBMIDI_1.c ****             USBMIDI_1_LPM_CTRL_REG = (USBMIDI_1_LPM_CTRL_LPM_EN | \
 613:Generated_Source\PSoC5/USBMIDI_1.c ****                                              USBMIDI_1_LPM_CTRL_LPM_ACK_RESP);
 614:Generated_Source\PSoC5/USBMIDI_1.c ****         }
 615:Generated_Source\PSoC5/USBMIDI_1.c ****         else
 616:Generated_Source\PSoC5/USBMIDI_1.c ****         {
 617:Generated_Source\PSoC5/USBMIDI_1.c ****             /* Disable LPM for active device. */
 618:Generated_Source\PSoC5/USBMIDI_1.c ****             USBMIDI_1_LPM_CTRL_REG &= (uint32) ~USBMIDI_1_LPM_CTRL_LPM_EN;
 619:Generated_Source\PSoC5/USBMIDI_1.c ****         }
 620:Generated_Source\PSoC5/USBMIDI_1.c ****     #endif /* (USBMIDI_1_LPM_ACTIVE) */
 621:Generated_Source\PSoC5/USBMIDI_1.c **** 
ARM GAS  C:\Users\214016~1\AppData\Local\Temp\ccCw4MGe.s 			page 17


 622:Generated_Source\PSoC5/USBMIDI_1.c ****     /* Enable device to responds to USB traffic with address 0. */
 623:Generated_Source\PSoC5/USBMIDI_1.c ****     USBMIDI_1_CR0_REG = USBMIDI_1_DEFUALT_CR0;
 624:Generated_Source\PSoC5/USBMIDI_1.c **** 
 625:Generated_Source\PSoC5/USBMIDI_1.c **** #else
 626:Generated_Source\PSoC5/USBMIDI_1.c ****     /* Set EP0.CR: ACK Setup, STALL IN/OUT. */
 627:Generated_Source\PSoC5/USBMIDI_1.c ****     USBMIDI_1_EP0_CR_REG = USBMIDI_1_MODE_STALL_IN_OUT;
 292              		.loc 1 627 0
 293 006a 0322     		movs	r2, #3
 294 006c 0F4B     		ldr	r3, .L12+40
 295 006e 1A70     		strb	r2, [r3]
 628:Generated_Source\PSoC5/USBMIDI_1.c **** 
 629:Generated_Source\PSoC5/USBMIDI_1.c ****     /* Enable device to respond to USB traffic with address 0. */
 630:Generated_Source\PSoC5/USBMIDI_1.c ****     USBMIDI_1_CR0_REG = USBMIDI_1_DEFUALT_CR0;
 296              		.loc 1 630 0
 297 0070 8022     		movs	r2, #128
 298 0072 203B     		subs	r3, r3, #32
 299 0074 1A70     		strb	r2, [r3]
 631:Generated_Source\PSoC5/USBMIDI_1.c ****     CyDelayCycles(USBMIDI_1_WAIT_CR0_REG_STABILITY);
 300              		.loc 1 631 0
 301 0076 0120     		movs	r0, #1
 302              	.LVL21:
 303 0078 FFF7FEFF 		bl	CyDelayCycles
 304              	.LVL22:
 632:Generated_Source\PSoC5/USBMIDI_1.c **** #endif /* (CY_PSOC4) */
 633:Generated_Source\PSoC5/USBMIDI_1.c **** 
 634:Generated_Source\PSoC5/USBMIDI_1.c ****     /* Enable D+ pull-up and keep USB control on IO. */
 635:Generated_Source\PSoC5/USBMIDI_1.c ****     USBMIDI_1_USBIO_CR1_REG = USBMIDI_1_USBIO_CR1_USBPUEN;
 305              		.loc 1 635 0
 306 007c 0422     		movs	r2, #4
 307 007e 0C4B     		ldr	r3, .L12+44
 308 0080 1A70     		strb	r2, [r3]
 309 0082 08BD     		pop	{r3, pc}
 310              	.L13:
 311              		.align	2
 312              	.L12:
 313 0084 00000000 		.word	USBMIDI_1_device
 314 0088 00000000 		.word	USBMIDI_1_transferState
 315 008c 00000000 		.word	USBMIDI_1_configurationChanged
 316 0090 00000000 		.word	USBMIDI_1_configuration
 317 0094 00000000 		.word	USBMIDI_1_interfaceNumber
 318 0098 00000000 		.word	USBMIDI_1_deviceAddress
 319 009c 00000000 		.word	USBMIDI_1_deviceStatus
 320 00a0 00000000 		.word	USBMIDI_1_lastPacketSize
 321 00a4 00E100E0 		.word	-536813312
 322 00a8 09600040 		.word	1073766409
 323 00ac 28600040 		.word	1073766440
 324 00b0 12600040 		.word	1073766418
 325              		.cfi_endproc
 326              	.LFE2:
 327              		.size	USBMIDI_1_InitComponent, .-USBMIDI_1_InitComponent
 328              		.section	.text.USBMIDI_1_Start,"ax",%progbits
 329              		.align	2
 330              		.global	USBMIDI_1_Start
 331              		.thumb
 332              		.thumb_func
 333              		.type	USBMIDI_1_Start, %function
 334              	USBMIDI_1_Start:
ARM GAS  C:\Users\214016~1\AppData\Local\Temp\ccCw4MGe.s 			page 18


 335              	.LFB0:
 187:Generated_Source\PSoC5/USBMIDI_1.c ****     if (0u == USBMIDI_1_initVar)
 336              		.loc 1 187 0
 337              		.cfi_startproc
 338              		@ args = 0, pretend = 0, frame = 0
 339              		@ frame_needed = 0, uses_anonymous_args = 0
 340              	.LVL23:
 341 0000 38B5     		push	{r3, r4, r5, lr}
 342              		.cfi_def_cfa_offset 16
 343              		.cfi_offset 3, -16
 344              		.cfi_offset 4, -12
 345              		.cfi_offset 5, -8
 346              		.cfi_offset 14, -4
 347 0002 0546     		mov	r5, r0
 348 0004 0C46     		mov	r4, r1
 188:Generated_Source\PSoC5/USBMIDI_1.c ****     {
 349              		.loc 1 188 0
 350 0006 064B     		ldr	r3, .L17
 351 0008 1B78     		ldrb	r3, [r3]	@ zero_extendqisi2
 352 000a 23B9     		cbnz	r3, .L15
 190:Generated_Source\PSoC5/USBMIDI_1.c ****         USBMIDI_1_initVar = 1u;
 353              		.loc 1 190 0
 354 000c FFF7FEFF 		bl	USBMIDI_1_Init
 355              	.LVL24:
 191:Generated_Source\PSoC5/USBMIDI_1.c ****     }
 356              		.loc 1 191 0
 357 0010 0122     		movs	r2, #1
 358 0012 034B     		ldr	r3, .L17
 359 0014 1A70     		strb	r2, [r3]
 360              	.L15:
 194:Generated_Source\PSoC5/USBMIDI_1.c **** }
 361              		.loc 1 194 0
 362 0016 2846     		mov	r0, r5
 363 0018 2146     		mov	r1, r4
 364 001a FFF7FEFF 		bl	USBMIDI_1_InitComponent
 365              	.LVL25:
 366 001e 38BD     		pop	{r3, r4, r5, pc}
 367              	.L18:
 368              		.align	2
 369              	.L17:
 370 0020 00000000 		.word	.LANCHOR0
 371              		.cfi_endproc
 372              	.LFE0:
 373              		.size	USBMIDI_1_Start, .-USBMIDI_1_Start
 374              		.section	.text.USBMIDI_1_ReInitComponent,"ax",%progbits
 375              		.align	2
 376              		.global	USBMIDI_1_ReInitComponent
 377              		.thumb
 378              		.thumb_func
 379              		.type	USBMIDI_1_ReInitComponent, %function
 380              	USBMIDI_1_ReInitComponent:
 381              	.LFB3:
 636:Generated_Source\PSoC5/USBMIDI_1.c **** }
 637:Generated_Source\PSoC5/USBMIDI_1.c **** 
 638:Generated_Source\PSoC5/USBMIDI_1.c **** 
 639:Generated_Source\PSoC5/USBMIDI_1.c **** /*******************************************************************************
 640:Generated_Source\PSoC5/USBMIDI_1.c **** * Function Name: USBMIDI_1_ReInitComponent
ARM GAS  C:\Users\214016~1\AppData\Local\Temp\ccCw4MGe.s 			page 19


 641:Generated_Source\PSoC5/USBMIDI_1.c **** ****************************************************************************//**
 642:Generated_Source\PSoC5/USBMIDI_1.c **** *
 643:Generated_Source\PSoC5/USBMIDI_1.c **** *  This function reinitialize the component configuration and is
 644:Generated_Source\PSoC5/USBMIDI_1.c **** *  intend to be called from the Reset interrupt.
 645:Generated_Source\PSoC5/USBMIDI_1.c **** *
 646:Generated_Source\PSoC5/USBMIDI_1.c **** * \globalvars
 647:Generated_Source\PSoC5/USBMIDI_1.c **** *   USBMIDI_1_device - Contains the device number of the desired Device
 648:Generated_Source\PSoC5/USBMIDI_1.c **** *        Descriptor. The device number can be found in the Device Descriptor tab
 649:Generated_Source\PSoC5/USBMIDI_1.c **** *       of the Configure dialog, under the settings of the desired Device Descriptor,
 650:Generated_Source\PSoC5/USBMIDI_1.c **** *       in the Device Number field.
 651:Generated_Source\PSoC5/USBMIDI_1.c **** *   USBMIDI_1_transferState - This variable is used by the communication
 652:Generated_Source\PSoC5/USBMIDI_1.c **** *       functions to handle the current transfer state. Initialized to
 653:Generated_Source\PSoC5/USBMIDI_1.c **** *       TRANS_STATE_IDLE in this API.
 654:Generated_Source\PSoC5/USBMIDI_1.c **** *   USBMIDI_1_configuration - Contains the current configuration number
 655:Generated_Source\PSoC5/USBMIDI_1.c **** *       set by the Host using a SET_CONFIGURATION request.
 656:Generated_Source\PSoC5/USBMIDI_1.c **** *       Initialized to zero in this API.
 657:Generated_Source\PSoC5/USBMIDI_1.c **** *   USBMIDI_1_deviceAddress - Contains the current device address. This
 658:Generated_Source\PSoC5/USBMIDI_1.c **** *       variable is initialized to zero in this API. The Host starts to communicate
 659:Generated_Source\PSoC5/USBMIDI_1.c **** *      to the device with address 0 and then sets it to a whatever value using
 660:Generated_Source\PSoC5/USBMIDI_1.c **** *      a SET_ADDRESS request.
 661:Generated_Source\PSoC5/USBMIDI_1.c **** *   USBMIDI_1_deviceStatus - Initialized to 0.
 662:Generated_Source\PSoC5/USBMIDI_1.c **** *       This is a two-bit variable which contains the power status in the first bit
 663:Generated_Source\PSoC5/USBMIDI_1.c **** *       (DEVICE_STATUS_BUS_POWERED or DEVICE_STATUS_SELF_POWERED) and the remote
 664:Generated_Source\PSoC5/USBMIDI_1.c **** *       wakeup status (DEVICE_STATUS_REMOTE_WAKEUP) in the second bit.
 665:Generated_Source\PSoC5/USBMIDI_1.c **** *   USBMIDI_1_lastPacketSize - Initialized to 0;
 666:Generated_Source\PSoC5/USBMIDI_1.c **** *
 667:Generated_Source\PSoC5/USBMIDI_1.c **** * \reentrant
 668:Generated_Source\PSoC5/USBMIDI_1.c **** *  No.
 669:Generated_Source\PSoC5/USBMIDI_1.c **** *
 670:Generated_Source\PSoC5/USBMIDI_1.c **** *******************************************************************************/
 671:Generated_Source\PSoC5/USBMIDI_1.c **** void USBMIDI_1_ReInitComponent(void) 
 672:Generated_Source\PSoC5/USBMIDI_1.c **** {
 382              		.loc 1 672 0
 383              		.cfi_startproc
 384              		@ args = 0, pretend = 0, frame = 0
 385              		@ frame_needed = 0, uses_anonymous_args = 0
 386              		@ link register save eliminated.
 673:Generated_Source\PSoC5/USBMIDI_1.c ****     /* Initialize _hidProtocol variable to comply with HID 7.2.6 Set_Protocol
 674:Generated_Source\PSoC5/USBMIDI_1.c ****     *  Request: "When initialized, all devices default to report protocol."
 675:Generated_Source\PSoC5/USBMIDI_1.c ****     */
 676:Generated_Source\PSoC5/USBMIDI_1.c **** #if defined(USBMIDI_1_ENABLE_HID_CLASS)
 677:Generated_Source\PSoC5/USBMIDI_1.c ****     uint8 i;
 678:Generated_Source\PSoC5/USBMIDI_1.c **** 
 679:Generated_Source\PSoC5/USBMIDI_1.c ****     for (i = 0u; i < USBMIDI_1_MAX_INTERFACES_NUMBER; i++)
 680:Generated_Source\PSoC5/USBMIDI_1.c ****     {
 681:Generated_Source\PSoC5/USBMIDI_1.c ****         USBMIDI_1_hidProtocol[i] = USBMIDI_1_PROTOCOL_REPORT;
 682:Generated_Source\PSoC5/USBMIDI_1.c ****     }
 683:Generated_Source\PSoC5/USBMIDI_1.c **** #endif /* USBMIDI_1_ENABLE_HID_CLASS */
 684:Generated_Source\PSoC5/USBMIDI_1.c **** 
 685:Generated_Source\PSoC5/USBMIDI_1.c ****     /* Reset component internal variables. */
 686:Generated_Source\PSoC5/USBMIDI_1.c ****     USBMIDI_1_transferState   = USBMIDI_1_TRANS_STATE_IDLE;
 387              		.loc 1 686 0
 388 0000 0023     		movs	r3, #0
 389 0002 0A4A     		ldr	r2, .L20
 390 0004 1370     		strb	r3, [r2]
 687:Generated_Source\PSoC5/USBMIDI_1.c ****     USBMIDI_1_configurationChanged = 0u;
 391              		.loc 1 687 0
ARM GAS  C:\Users\214016~1\AppData\Local\Temp\ccCw4MGe.s 			page 20


 392 0006 0A4A     		ldr	r2, .L20+4
 393 0008 1370     		strb	r3, [r2]
 688:Generated_Source\PSoC5/USBMIDI_1.c ****     USBMIDI_1_configuration   = 0u;
 394              		.loc 1 688 0
 395 000a 0A4A     		ldr	r2, .L20+8
 396 000c 1370     		strb	r3, [r2]
 689:Generated_Source\PSoC5/USBMIDI_1.c ****     USBMIDI_1_interfaceNumber = 0u;
 397              		.loc 1 689 0
 398 000e 0A4A     		ldr	r2, .L20+12
 399 0010 1370     		strb	r3, [r2]
 690:Generated_Source\PSoC5/USBMIDI_1.c ****     USBMIDI_1_deviceAddress   = 0u;
 400              		.loc 1 690 0
 401 0012 0A4A     		ldr	r2, .L20+16
 402 0014 1370     		strb	r3, [r2]
 691:Generated_Source\PSoC5/USBMIDI_1.c ****     USBMIDI_1_deviceStatus    = 0u;
 403              		.loc 1 691 0
 404 0016 0A4A     		ldr	r2, .L20+20
 405 0018 1370     		strb	r3, [r2]
 692:Generated_Source\PSoC5/USBMIDI_1.c ****     USBMIDI_1_lastPacketSize  = 0u;
 406              		.loc 1 692 0
 407 001a 0A4A     		ldr	r2, .L20+24
 408 001c 1370     		strb	r3, [r2]
 693:Generated_Source\PSoC5/USBMIDI_1.c **** 
 694:Generated_Source\PSoC5/USBMIDI_1.c **** #if (CY_PSOC4)
 695:Generated_Source\PSoC5/USBMIDI_1.c ****     /* Set EP0.CR: ACK Setup, NAK IN/OUT. */
 696:Generated_Source\PSoC5/USBMIDI_1.c ****     USBMIDI_1_EP0_CR_REG = USBMIDI_1_MODE_NAK_IN_OUT;
 697:Generated_Source\PSoC5/USBMIDI_1.c **** #else
 698:Generated_Source\PSoC5/USBMIDI_1.c ****     /* Set EP0.CR: ACK Setup, STALL IN/OUT. */
 699:Generated_Source\PSoC5/USBMIDI_1.c ****     USBMIDI_1_EP0_CR_REG = USBMIDI_1_MODE_STALL_IN_OUT;
 409              		.loc 1 699 0
 410 001e 0322     		movs	r2, #3
 411 0020 094B     		ldr	r3, .L20+28
 412 0022 1A70     		strb	r2, [r3]
 700:Generated_Source\PSoC5/USBMIDI_1.c **** #endif /* (CY_PSOC4) */
 701:Generated_Source\PSoC5/USBMIDI_1.c **** 
 702:Generated_Source\PSoC5/USBMIDI_1.c ****     /* Enable device to respond to USB traffic with address 0. */
 703:Generated_Source\PSoC5/USBMIDI_1.c ****     USBMIDI_1_CR0_REG = USBMIDI_1_DEFUALT_CR0;
 413              		.loc 1 703 0
 414 0024 8022     		movs	r2, #128
 415 0026 203B     		subs	r3, r3, #32
 416 0028 1A70     		strb	r2, [r3]
 417 002a 7047     		bx	lr
 418              	.L21:
 419              		.align	2
 420              	.L20:
 421 002c 00000000 		.word	USBMIDI_1_transferState
 422 0030 00000000 		.word	USBMIDI_1_configurationChanged
 423 0034 00000000 		.word	USBMIDI_1_configuration
 424 0038 00000000 		.word	USBMIDI_1_interfaceNumber
 425 003c 00000000 		.word	USBMIDI_1_deviceAddress
 426 0040 00000000 		.word	USBMIDI_1_deviceStatus
 427 0044 00000000 		.word	USBMIDI_1_lastPacketSize
 428 0048 28600040 		.word	1073766440
 429              		.cfi_endproc
 430              	.LFE3:
 431              		.size	USBMIDI_1_ReInitComponent, .-USBMIDI_1_ReInitComponent
 432              		.section	.text.USBMIDI_1_Stop,"ax",%progbits
ARM GAS  C:\Users\214016~1\AppData\Local\Temp\ccCw4MGe.s 			page 21


 433              		.align	2
 434              		.global	USBMIDI_1_Stop
 435              		.thumb
 436              		.thumb_func
 437              		.type	USBMIDI_1_Stop, %function
 438              	USBMIDI_1_Stop:
 439              	.LFB4:
 704:Generated_Source\PSoC5/USBMIDI_1.c **** }
 705:Generated_Source\PSoC5/USBMIDI_1.c **** 
 706:Generated_Source\PSoC5/USBMIDI_1.c **** 
 707:Generated_Source\PSoC5/USBMIDI_1.c **** /*******************************************************************************
 708:Generated_Source\PSoC5/USBMIDI_1.c **** * Function Name: USBMIDI_1_Stop
 709:Generated_Source\PSoC5/USBMIDI_1.c **** ****************************************************************************//**
 710:Generated_Source\PSoC5/USBMIDI_1.c **** *
 711:Generated_Source\PSoC5/USBMIDI_1.c **** *  This function shuts down the USB function including to release
 712:Generated_Source\PSoC5/USBMIDI_1.c **** *  the D+ pull-up and disabling the SIE.
 713:Generated_Source\PSoC5/USBMIDI_1.c **** *
 714:Generated_Source\PSoC5/USBMIDI_1.c **** * \globalvars
 715:Generated_Source\PSoC5/USBMIDI_1.c **** *   \ref USBMIDI_1_configuration
 716:Generated_Source\PSoC5/USBMIDI_1.c **** *
 717:Generated_Source\PSoC5/USBMIDI_1.c **** *   USBMIDI_1_deviceAddress - Contains the current device address. This
 718:Generated_Source\PSoC5/USBMIDI_1.c **** *       variable is initialized to zero in this API. The Host starts to communicate
 719:Generated_Source\PSoC5/USBMIDI_1.c **** *      to the device with address 0 and then sets it to a whatever value using
 720:Generated_Source\PSoC5/USBMIDI_1.c **** *      a SET_ADDRESS request.
 721:Generated_Source\PSoC5/USBMIDI_1.c **** *
 722:Generated_Source\PSoC5/USBMIDI_1.c **** *   \ref USBMIDI_1_deviceStatus
 723:Generated_Source\PSoC5/USBMIDI_1.c **** *
 724:Generated_Source\PSoC5/USBMIDI_1.c **** *   \ref USBMIDI_1_configurationChanged
 725:Generated_Source\PSoC5/USBMIDI_1.c **** *
 726:Generated_Source\PSoC5/USBMIDI_1.c **** *   USBMIDI_1_intiVar -  This variable is set to zero
 727:Generated_Source\PSoC5/USBMIDI_1.c **** *
 728:Generated_Source\PSoC5/USBMIDI_1.c **** *******************************************************************************/
 729:Generated_Source\PSoC5/USBMIDI_1.c **** void USBMIDI_1_Stop(void) 
 730:Generated_Source\PSoC5/USBMIDI_1.c **** {
 440              		.loc 1 730 0
 441              		.cfi_startproc
 442              		@ args = 0, pretend = 0, frame = 0
 443              		@ frame_needed = 0, uses_anonymous_args = 0
 444 0000 08B5     		push	{r3, lr}
 445              		.cfi_def_cfa_offset 8
 446              		.cfi_offset 3, -8
 447              		.cfi_offset 14, -4
 731:Generated_Source\PSoC5/USBMIDI_1.c ****     uint8 enableInterrupts;
 732:Generated_Source\PSoC5/USBMIDI_1.c **** 
 733:Generated_Source\PSoC5/USBMIDI_1.c **** #if (USBMIDI_1_EP_MANAGEMENT_DMA)
 734:Generated_Source\PSoC5/USBMIDI_1.c ****     /* Stop all DMA channels. */
 735:Generated_Source\PSoC5/USBMIDI_1.c ****     USBMIDI_1_Stop_DMA(USBMIDI_1_MAX_EP);
 736:Generated_Source\PSoC5/USBMIDI_1.c **** #endif /* (USBMIDI_1_EP_MANAGEMENT_DMA) */
 737:Generated_Source\PSoC5/USBMIDI_1.c **** 
 738:Generated_Source\PSoC5/USBMIDI_1.c ****     enableInterrupts = CyEnterCriticalSection();
 448              		.loc 1 738 0
 449 0002 FFF7FEFF 		bl	CyEnterCriticalSection
 450              	.LVL26:
 739:Generated_Source\PSoC5/USBMIDI_1.c **** 
 740:Generated_Source\PSoC5/USBMIDI_1.c ****     /* Disable USB IP to respond to USB traffic. */
 741:Generated_Source\PSoC5/USBMIDI_1.c ****     USBMIDI_1_CR0_REG &= (uint8) ~USBMIDI_1_CR0_ENABLE;
 451              		.loc 1 741 0
ARM GAS  C:\Users\214016~1\AppData\Local\Temp\ccCw4MGe.s 			page 22


 452 0006 214A     		ldr	r2, .L24
 453 0008 1378     		ldrb	r3, [r2]	@ zero_extendqisi2
 454 000a 03F07F03 		and	r3, r3, #127
 455 000e 1370     		strb	r3, [r2]
 742:Generated_Source\PSoC5/USBMIDI_1.c **** 
 743:Generated_Source\PSoC5/USBMIDI_1.c ****     /* Disable D+ pull-up. */
 744:Generated_Source\PSoC5/USBMIDI_1.c ****     USBMIDI_1_USBIO_CR1_REG &= (uint8) ~ USBMIDI_1_USBIO_CR1_USBPUEN;
 456              		.loc 1 744 0
 457 0010 0A32     		adds	r2, r2, #10
 458 0012 1378     		ldrb	r3, [r2]	@ zero_extendqisi2
 459 0014 03F0FB03 		and	r3, r3, #251
 460 0018 1370     		strb	r3, [r2]
 745:Generated_Source\PSoC5/USBMIDI_1.c **** 
 746:Generated_Source\PSoC5/USBMIDI_1.c **** #if (CY_PSOC4)
 747:Generated_Source\PSoC5/USBMIDI_1.c ****     /* Disable USBFS block. */
 748:Generated_Source\PSoC5/USBMIDI_1.c ****     USBMIDI_1_POWER_CTRL_REG &= (uint32) ~USBMIDI_1_POWER_CTRL_ENABLE;
 749:Generated_Source\PSoC5/USBMIDI_1.c **** #else
 750:Generated_Source\PSoC5/USBMIDI_1.c ****     /* Clear power active and standby mode templates. */
 751:Generated_Source\PSoC5/USBMIDI_1.c ****     USBMIDI_1_PM_ACT_CFG_REG  &= (uint8) ~USBMIDI_1_PM_ACT_EN_FSUSB;
 461              		.loc 1 751 0
 462 001a A2F5E352 		sub	r2, r2, #7264
 463 001e 0D3A     		subs	r2, r2, #13
 464 0020 1378     		ldrb	r3, [r2]	@ zero_extendqisi2
 465 0022 03F0FE03 		and	r3, r3, #254
 466 0026 1370     		strb	r3, [r2]
 752:Generated_Source\PSoC5/USBMIDI_1.c ****     USBMIDI_1_PM_STBY_CFG_REG &= (uint8) ~USBMIDI_1_PM_STBY_EN_FSUSB;
 467              		.loc 1 752 0
 468 0028 1032     		adds	r2, r2, #16
 469 002a 1378     		ldrb	r3, [r2]	@ zero_extendqisi2
 470 002c 03F0FE03 		and	r3, r3, #254
 471 0030 1370     		strb	r3, [r2]
 753:Generated_Source\PSoC5/USBMIDI_1.c **** 
 754:Generated_Source\PSoC5/USBMIDI_1.c ****     /* Ensure single-ended disable bits are high (PRT15.INP_DIS[7:6])
 755:Generated_Source\PSoC5/USBMIDI_1.c ****      * (input receiver disabled). */
 756:Generated_Source\PSoC5/USBMIDI_1.c ****     USBMIDI_1_DM_INP_DIS_REG |= (uint8) USBMIDI_1_DM_MASK;
 472              		.loc 1 756 0
 473 0032 174B     		ldr	r3, .L24+4
 474 0034 1A78     		ldrb	r2, [r3]	@ zero_extendqisi2
 475 0036 42F08002 		orr	r2, r2, #128
 476 003a 1A70     		strb	r2, [r3]
 757:Generated_Source\PSoC5/USBMIDI_1.c ****     USBMIDI_1_DP_INP_DIS_REG |= (uint8) USBMIDI_1_DP_MASK;
 477              		.loc 1 757 0
 478 003c 1A78     		ldrb	r2, [r3]	@ zero_extendqisi2
 479 003e 42F04002 		orr	r2, r2, #64
 480 0042 1A70     		strb	r2, [r3]
 758:Generated_Source\PSoC5/USBMIDI_1.c **** 
 759:Generated_Source\PSoC5/USBMIDI_1.c **** #endif /* (CY_PSOC4) */
 760:Generated_Source\PSoC5/USBMIDI_1.c **** 
 761:Generated_Source\PSoC5/USBMIDI_1.c ****     CyExitCriticalSection(enableInterrupts);
 481              		.loc 1 761 0
 482 0044 FFF7FEFF 		bl	CyExitCriticalSection
 483              	.LVL27:
 762:Generated_Source\PSoC5/USBMIDI_1.c **** 
 763:Generated_Source\PSoC5/USBMIDI_1.c ****     /* Disable component interrupts. */
 764:Generated_Source\PSoC5/USBMIDI_1.c **** #if (CY_PSOC4)
 765:Generated_Source\PSoC5/USBMIDI_1.c ****     CyIntDisable(USBMIDI_1_INTR_HI_VECT_NUM);
 766:Generated_Source\PSoC5/USBMIDI_1.c ****     CyIntDisable(USBMIDI_1_INTR_LO_VECT_NUM);
ARM GAS  C:\Users\214016~1\AppData\Local\Temp\ccCw4MGe.s 			page 23


 767:Generated_Source\PSoC5/USBMIDI_1.c ****     CyIntDisable(USBMIDI_1_INTR_MED_VECT_NUM);
 768:Generated_Source\PSoC5/USBMIDI_1.c **** #else
 769:Generated_Source\PSoC5/USBMIDI_1.c **** 
 770:Generated_Source\PSoC5/USBMIDI_1.c ****     CyIntDisable(USBMIDI_1_BUS_RESET_VECT_NUM);
 484              		.loc 1 770 0
 485 0048 124B     		ldr	r3, .L24+8
 486 004a 4FF40002 		mov	r2, #8388608
 487 004e 1A60     		str	r2, [r3]
 771:Generated_Source\PSoC5/USBMIDI_1.c ****     CyIntDisable(USBMIDI_1_EP_0_VECT_NUM);
 488              		.loc 1 771 0
 489 0050 4FF08072 		mov	r2, #16777216
 490 0054 1A60     		str	r2, [r3]
 772:Generated_Source\PSoC5/USBMIDI_1.c **** 
 773:Generated_Source\PSoC5/USBMIDI_1.c ****     #if (USBMIDI_1_SOF_ISR_ACTIVE)
 774:Generated_Source\PSoC5/USBMIDI_1.c ****         CyIntDisable(USBMIDI_1_SOF_VECT_NUM);
 491              		.loc 1 774 0
 492 0056 4FF40012 		mov	r2, #2097152
 493 005a 1A60     		str	r2, [r3]
 775:Generated_Source\PSoC5/USBMIDI_1.c ****     #endif /* (USBMIDI_1_SOF_ISR_ACTIVE) */
 776:Generated_Source\PSoC5/USBMIDI_1.c **** 
 777:Generated_Source\PSoC5/USBMIDI_1.c ****     #if (USBMIDI_1_EP1_ISR_ACTIVE)
 778:Generated_Source\PSoC5/USBMIDI_1.c ****         CyIntDisable(USBMIDI_1_EP_1_VECT_NUM);
 494              		.loc 1 778 0
 495 005c 0422     		movs	r2, #4
 496 005e 1A60     		str	r2, [r3]
 779:Generated_Source\PSoC5/USBMIDI_1.c ****     #endif /* (USBMIDI_1_EP1_ISR_ACTIVE) */
 780:Generated_Source\PSoC5/USBMIDI_1.c **** 
 781:Generated_Source\PSoC5/USBMIDI_1.c ****     #if (USBMIDI_1_EP2_ISR_ACTIVE)
 782:Generated_Source\PSoC5/USBMIDI_1.c ****         CyIntDisable(USBMIDI_1_EP_2_VECT_NUM);
 497              		.loc 1 782 0
 498 0060 0822     		movs	r2, #8
 499 0062 1A60     		str	r2, [r3]
 783:Generated_Source\PSoC5/USBMIDI_1.c ****     #endif /* (USBMIDI_1_EP2_ISR_ACTIVE) */
 784:Generated_Source\PSoC5/USBMIDI_1.c **** 
 785:Generated_Source\PSoC5/USBMIDI_1.c ****     #if (USBMIDI_1_EP3_ISR_ACTIVE)
 786:Generated_Source\PSoC5/USBMIDI_1.c ****         CyIntDisable(USBMIDI_1_EP_3_VECT_NUM);
 787:Generated_Source\PSoC5/USBMIDI_1.c ****     #endif /* (USBMIDI_1_EP3_ISR_ACTIVE) */
 788:Generated_Source\PSoC5/USBMIDI_1.c **** 
 789:Generated_Source\PSoC5/USBMIDI_1.c ****     #if (USBMIDI_1_EP4_ISR_ACTIVE)
 790:Generated_Source\PSoC5/USBMIDI_1.c ****         CyIntDisable(USBMIDI_1_EP_4_VECT_NUM);
 791:Generated_Source\PSoC5/USBMIDI_1.c ****     #endif /* (USBMIDI_1_EP4_ISR_ACTIVE) */
 792:Generated_Source\PSoC5/USBMIDI_1.c **** 
 793:Generated_Source\PSoC5/USBMIDI_1.c ****     #if (USBMIDI_1_EP5_ISR_ACTIVE)
 794:Generated_Source\PSoC5/USBMIDI_1.c ****         CyIntDisable(USBMIDI_1_EP_5_VECT_NUM);
 795:Generated_Source\PSoC5/USBMIDI_1.c ****     #endif /* (USBMIDI_1_EP5_ISR_ACTIVE) */
 796:Generated_Source\PSoC5/USBMIDI_1.c **** 
 797:Generated_Source\PSoC5/USBMIDI_1.c ****     #if (USBMIDI_1_EP6_ISR_ACTIVE)
 798:Generated_Source\PSoC5/USBMIDI_1.c ****         CyIntDisable(USBMIDI_1_EP_6_VECT_NUM);
 799:Generated_Source\PSoC5/USBMIDI_1.c ****     #endif /* USBMIDI_1_EP6_ISR_REMOVE */
 800:Generated_Source\PSoC5/USBMIDI_1.c **** 
 801:Generated_Source\PSoC5/USBMIDI_1.c ****     #if (USBMIDI_1_EP7_ISR_ACTIVE)
 802:Generated_Source\PSoC5/USBMIDI_1.c ****         CyIntDisable(USBMIDI_1_EP_7_VECT_NUM);
 803:Generated_Source\PSoC5/USBMIDI_1.c ****     #endif /* (USBMIDI_1_EP7_ISR_ACTIVE) */
 804:Generated_Source\PSoC5/USBMIDI_1.c **** 
 805:Generated_Source\PSoC5/USBMIDI_1.c ****     #if (USBMIDI_1_EP8_ISR_ACTIVE)
 806:Generated_Source\PSoC5/USBMIDI_1.c ****         CyIntDisable(USBMIDI_1_EP_8_VECT_NUM);
 807:Generated_Source\PSoC5/USBMIDI_1.c ****     #endif /* (USBMIDI_1_EP8_ISR_ACTIVE) */
ARM GAS  C:\Users\214016~1\AppData\Local\Temp\ccCw4MGe.s 			page 24


 808:Generated_Source\PSoC5/USBMIDI_1.c **** 
 809:Generated_Source\PSoC5/USBMIDI_1.c ****     #if (USBMIDI_1_DP_ISR_ACTIVE)
 810:Generated_Source\PSoC5/USBMIDI_1.c ****         /* Clear active mode Dp interrupt source history. */
 811:Generated_Source\PSoC5/USBMIDI_1.c ****         (void) USBMIDI_1_Dp_ClearInterrupt();
 500              		.loc 1 811 0
 501 0064 FFF7FEFF 		bl	USBMIDI_1_Dp_ClearInterrupt
 502              	.LVL28:
 812:Generated_Source\PSoC5/USBMIDI_1.c ****         CyIntClearPending(USBMIDI_1_DP_INTC_VECT_NUM);
 503              		.loc 1 812 0
 504 0068 4FF48052 		mov	r2, #4096
 505 006c 0A4B     		ldr	r3, .L24+12
 506 006e 1A60     		str	r2, [r3]
 813:Generated_Source\PSoC5/USBMIDI_1.c ****     #endif /* (USBMIDI_1_DP_ISR_ACTIVE). */
 814:Generated_Source\PSoC5/USBMIDI_1.c **** 
 815:Generated_Source\PSoC5/USBMIDI_1.c **** #endif /* (CY_PSOC4) */
 816:Generated_Source\PSoC5/USBMIDI_1.c **** 
 817:Generated_Source\PSoC5/USBMIDI_1.c ****     /* Reset component internal variables. */
 818:Generated_Source\PSoC5/USBMIDI_1.c ****     USBMIDI_1_configurationChanged = 0u;
 507              		.loc 1 818 0
 508 0070 0023     		movs	r3, #0
 509 0072 0A4A     		ldr	r2, .L24+16
 510 0074 1370     		strb	r3, [r2]
 819:Generated_Source\PSoC5/USBMIDI_1.c ****     USBMIDI_1_configuration   = 0u;
 511              		.loc 1 819 0
 512 0076 0A4A     		ldr	r2, .L24+20
 513 0078 1370     		strb	r3, [r2]
 820:Generated_Source\PSoC5/USBMIDI_1.c ****     USBMIDI_1_interfaceNumber = 0u;
 514              		.loc 1 820 0
 515 007a 0A4A     		ldr	r2, .L24+24
 516 007c 1370     		strb	r3, [r2]
 821:Generated_Source\PSoC5/USBMIDI_1.c ****     USBMIDI_1_deviceAddress   = 0u;
 517              		.loc 1 821 0
 518 007e 0A4A     		ldr	r2, .L24+28
 519 0080 1370     		strb	r3, [r2]
 822:Generated_Source\PSoC5/USBMIDI_1.c ****     USBMIDI_1_deviceStatus    = 0u;
 520              		.loc 1 822 0
 521 0082 0A4A     		ldr	r2, .L24+32
 522 0084 1370     		strb	r3, [r2]
 823:Generated_Source\PSoC5/USBMIDI_1.c **** 
 824:Generated_Source\PSoC5/USBMIDI_1.c ****     /* It is mandatory for correct device startup. */
 825:Generated_Source\PSoC5/USBMIDI_1.c ****     USBMIDI_1_initVar = 0u;
 523              		.loc 1 825 0
 524 0086 0A4A     		ldr	r2, .L24+36
 525 0088 1370     		strb	r3, [r2]
 526 008a 08BD     		pop	{r3, pc}
 527              	.L25:
 528              		.align	2
 529              	.L24:
 530 008c 08600040 		.word	1073766408
 531 0090 F8510040 		.word	1073762808
 532 0094 80E100E0 		.word	-536813184
 533 0098 80E200E0 		.word	-536812928
 534 009c 00000000 		.word	USBMIDI_1_configurationChanged
 535 00a0 00000000 		.word	USBMIDI_1_configuration
 536 00a4 00000000 		.word	USBMIDI_1_interfaceNumber
 537 00a8 00000000 		.word	USBMIDI_1_deviceAddress
 538 00ac 00000000 		.word	USBMIDI_1_deviceStatus
ARM GAS  C:\Users\214016~1\AppData\Local\Temp\ccCw4MGe.s 			page 25


 539 00b0 00000000 		.word	.LANCHOR0
 540              		.cfi_endproc
 541              	.LFE4:
 542              		.size	USBMIDI_1_Stop, .-USBMIDI_1_Stop
 543              		.section	.text.USBMIDI_1_CheckActivity,"ax",%progbits
 544              		.align	2
 545              		.global	USBMIDI_1_CheckActivity
 546              		.thumb
 547              		.thumb_func
 548              		.type	USBMIDI_1_CheckActivity, %function
 549              	USBMIDI_1_CheckActivity:
 550              	.LFB5:
 826:Generated_Source\PSoC5/USBMIDI_1.c **** }
 827:Generated_Source\PSoC5/USBMIDI_1.c **** 
 828:Generated_Source\PSoC5/USBMIDI_1.c **** 
 829:Generated_Source\PSoC5/USBMIDI_1.c **** /*******************************************************************************
 830:Generated_Source\PSoC5/USBMIDI_1.c **** * Function Name: USBMIDI_1_CheckActivity
 831:Generated_Source\PSoC5/USBMIDI_1.c **** ****************************************************************************//**
 832:Generated_Source\PSoC5/USBMIDI_1.c **** *
 833:Generated_Source\PSoC5/USBMIDI_1.c **** *  This function returns the activity status of the bus. It clears the hardware
 834:Generated_Source\PSoC5/USBMIDI_1.c **** *  status to provide updated status on the next call of this function. It
 835:Generated_Source\PSoC5/USBMIDI_1.c **** *  provides a way to determine whether any USB bus activity occurred. The
 836:Generated_Source\PSoC5/USBMIDI_1.c **** *  application should use this function to determine if the USB suspend
 837:Generated_Source\PSoC5/USBMIDI_1.c **** *  conditions are met.
 838:Generated_Source\PSoC5/USBMIDI_1.c **** *
 839:Generated_Source\PSoC5/USBMIDI_1.c **** *
 840:Generated_Source\PSoC5/USBMIDI_1.c **** * \return
 841:Generated_Source\PSoC5/USBMIDI_1.c **** *  cystatus: Status of the bus since the last call of the function.
 842:Generated_Source\PSoC5/USBMIDI_1.c **** *  Return Value |   Description
 843:Generated_Source\PSoC5/USBMIDI_1.c **** *  -------------|---------------------------------------------------------------
 844:Generated_Source\PSoC5/USBMIDI_1.c **** *  1            |Bus activity was detected since the last call to this function
 845:Generated_Source\PSoC5/USBMIDI_1.c **** *  0            |Bus activity was not detected since the last call to this function
 846:Generated_Source\PSoC5/USBMIDI_1.c **** *
 847:Generated_Source\PSoC5/USBMIDI_1.c **** *
 848:Generated_Source\PSoC5/USBMIDI_1.c **** *******************************************************************************/
 849:Generated_Source\PSoC5/USBMIDI_1.c **** uint8 USBMIDI_1_CheckActivity(void) 
 850:Generated_Source\PSoC5/USBMIDI_1.c **** {
 551              		.loc 1 850 0
 552              		.cfi_startproc
 553              		@ args = 0, pretend = 0, frame = 0
 554              		@ frame_needed = 0, uses_anonymous_args = 0
 555              		@ link register save eliminated.
 851:Generated_Source\PSoC5/USBMIDI_1.c ****     uint8 cr1Reg = USBMIDI_1_CR1_REG;
 556              		.loc 1 851 0
 557 0000 064A     		ldr	r2, .L28
 558 0002 1378     		ldrb	r3, [r2]	@ zero_extendqisi2
 559 0004 DBB2     		uxtb	r3, r3
 560              	.LVL29:
 852:Generated_Source\PSoC5/USBMIDI_1.c **** 
 853:Generated_Source\PSoC5/USBMIDI_1.c ****     /* Clear bus activity. */
 854:Generated_Source\PSoC5/USBMIDI_1.c ****     USBMIDI_1_CR1_REG = (cr1Reg & (uint8) ~USBMIDI_1_CR1_BUS_ACTIVITY);
 561              		.loc 1 854 0
 562 0006 03F0FB01 		and	r1, r3, #251
 563 000a 1170     		strb	r1, [r2]
 855:Generated_Source\PSoC5/USBMIDI_1.c **** 
 856:Generated_Source\PSoC5/USBMIDI_1.c ****     /* Get bus activity. */
 857:Generated_Source\PSoC5/USBMIDI_1.c ****     return ((0u != (cr1Reg & USBMIDI_1_CR1_BUS_ACTIVITY)) ? (1u) : (0u));
ARM GAS  C:\Users\214016~1\AppData\Local\Temp\ccCw4MGe.s 			page 26


 564              		.loc 1 857 0
 565 000c 03F00403 		and	r3, r3, #4
 566              	.LVL30:
 567 0010 03F0FF00 		and	r0, r3, #255
 568 0014 03B1     		cbz	r3, .L27
 569 0016 0120     		movs	r0, #1
 570              	.L27:
 858:Generated_Source\PSoC5/USBMIDI_1.c **** }
 571              		.loc 1 858 0 discriminator 4
 572 0018 7047     		bx	lr
 573              	.L29:
 574 001a 00BF     		.align	2
 575              	.L28:
 576 001c 09600040 		.word	1073766409
 577              		.cfi_endproc
 578              	.LFE5:
 579              		.size	USBMIDI_1_CheckActivity, .-USBMIDI_1_CheckActivity
 580              		.section	.text.USBMIDI_1_GetConfiguration,"ax",%progbits
 581              		.align	2
 582              		.global	USBMIDI_1_GetConfiguration
 583              		.thumb
 584              		.thumb_func
 585              		.type	USBMIDI_1_GetConfiguration, %function
 586              	USBMIDI_1_GetConfiguration:
 587              	.LFB6:
 859:Generated_Source\PSoC5/USBMIDI_1.c **** 
 860:Generated_Source\PSoC5/USBMIDI_1.c **** 
 861:Generated_Source\PSoC5/USBMIDI_1.c **** /*******************************************************************************
 862:Generated_Source\PSoC5/USBMIDI_1.c **** * Function Name: USBMIDI_1_GetConfiguration
 863:Generated_Source\PSoC5/USBMIDI_1.c **** ****************************************************************************//**
 864:Generated_Source\PSoC5/USBMIDI_1.c **** *
 865:Generated_Source\PSoC5/USBMIDI_1.c **** *  This function gets the current configuration of the USB device.
 866:Generated_Source\PSoC5/USBMIDI_1.c **** *
 867:Generated_Source\PSoC5/USBMIDI_1.c **** * \return
 868:Generated_Source\PSoC5/USBMIDI_1.c **** *  Returns the currently assigned configuration. Returns 0 if the device
 869:Generated_Source\PSoC5/USBMIDI_1.c **** *  is not configured
 870:Generated_Source\PSoC5/USBMIDI_1.c **** *
 871:Generated_Source\PSoC5/USBMIDI_1.c **** *******************************************************************************/
 872:Generated_Source\PSoC5/USBMIDI_1.c **** uint8 USBMIDI_1_GetConfiguration(void) 
 873:Generated_Source\PSoC5/USBMIDI_1.c **** {
 588              		.loc 1 873 0
 589              		.cfi_startproc
 590              		@ args = 0, pretend = 0, frame = 0
 591              		@ frame_needed = 0, uses_anonymous_args = 0
 592              		@ link register save eliminated.
 874:Generated_Source\PSoC5/USBMIDI_1.c ****     return (USBMIDI_1_configuration);
 593              		.loc 1 874 0
 594 0000 014B     		ldr	r3, .L31
 595 0002 1878     		ldrb	r0, [r3]	@ zero_extendqisi2
 875:Generated_Source\PSoC5/USBMIDI_1.c **** }
 596              		.loc 1 875 0
 597 0004 7047     		bx	lr
 598              	.L32:
 599 0006 00BF     		.align	2
 600              	.L31:
 601 0008 00000000 		.word	USBMIDI_1_configuration
 602              		.cfi_endproc
ARM GAS  C:\Users\214016~1\AppData\Local\Temp\ccCw4MGe.s 			page 27


 603              	.LFE6:
 604              		.size	USBMIDI_1_GetConfiguration, .-USBMIDI_1_GetConfiguration
 605              		.section	.text.USBMIDI_1_IsConfigurationChanged,"ax",%progbits
 606              		.align	2
 607              		.global	USBMIDI_1_IsConfigurationChanged
 608              		.thumb
 609              		.thumb_func
 610              		.type	USBMIDI_1_IsConfigurationChanged, %function
 611              	USBMIDI_1_IsConfigurationChanged:
 612              	.LFB7:
 876:Generated_Source\PSoC5/USBMIDI_1.c **** 
 877:Generated_Source\PSoC5/USBMIDI_1.c **** 
 878:Generated_Source\PSoC5/USBMIDI_1.c **** /*******************************************************************************
 879:Generated_Source\PSoC5/USBMIDI_1.c **** * Function Name: USBMIDI_1_IsConfigurationChanged
 880:Generated_Source\PSoC5/USBMIDI_1.c **** ****************************************************************************//**
 881:Generated_Source\PSoC5/USBMIDI_1.c **** *
 882:Generated_Source\PSoC5/USBMIDI_1.c **** *  This function returns the clear-on-read configuration state.  It is useful
 883:Generated_Source\PSoC5/USBMIDI_1.c **** *  when the host sends double SET_CONFIGURATION request with the same 
 884:Generated_Source\PSoC5/USBMIDI_1.c **** *  configuration number or changes alternate settings of the interface. 
 885:Generated_Source\PSoC5/USBMIDI_1.c **** *  After configuration has been changed the OUT endpoints must be enabled and IN 
 886:Generated_Source\PSoC5/USBMIDI_1.c **** *  endpoint must be loaded with data to start communication with the host.
 887:Generated_Source\PSoC5/USBMIDI_1.c **** *
 888:Generated_Source\PSoC5/USBMIDI_1.c **** * \return
 889:Generated_Source\PSoC5/USBMIDI_1.c **** *  None-zero value when new configuration has been changed, otherwise zero is
 890:Generated_Source\PSoC5/USBMIDI_1.c **** *  returned.
 891:Generated_Source\PSoC5/USBMIDI_1.c **** *
 892:Generated_Source\PSoC5/USBMIDI_1.c **** * \globalvars
 893:Generated_Source\PSoC5/USBMIDI_1.c **** *
 894:Generated_Source\PSoC5/USBMIDI_1.c **** *  \ref USBMIDI_1_configurationChanged - This variable is set to 1 after
 895:Generated_Source\PSoC5/USBMIDI_1.c **** *   a SET_CONFIGURATION request and cleared in this function.
 896:Generated_Source\PSoC5/USBMIDI_1.c **** *
 897:Generated_Source\PSoC5/USBMIDI_1.c **** *******************************************************************************/
 898:Generated_Source\PSoC5/USBMIDI_1.c **** uint8 USBMIDI_1_IsConfigurationChanged(void) 
 899:Generated_Source\PSoC5/USBMIDI_1.c **** {
 613              		.loc 1 899 0
 614              		.cfi_startproc
 615              		@ args = 0, pretend = 0, frame = 0
 616              		@ frame_needed = 0, uses_anonymous_args = 0
 617              		@ link register save eliminated.
 618              	.LVL31:
 900:Generated_Source\PSoC5/USBMIDI_1.c ****     uint8 res = 0u;
 901:Generated_Source\PSoC5/USBMIDI_1.c **** 
 902:Generated_Source\PSoC5/USBMIDI_1.c ****     if (USBMIDI_1_configurationChanged != 0u)
 619              		.loc 1 902 0
 620 0000 064B     		ldr	r3, .L36
 621 0002 1B78     		ldrb	r3, [r3]	@ zero_extendqisi2
 622 0004 13F0FF0F 		tst	r3, #255
 623 0008 05D0     		beq	.L35
 903:Generated_Source\PSoC5/USBMIDI_1.c ****     {
 904:Generated_Source\PSoC5/USBMIDI_1.c ****         res = USBMIDI_1_configurationChanged;
 624              		.loc 1 904 0
 625 000a 044B     		ldr	r3, .L36
 626 000c 1878     		ldrb	r0, [r3]	@ zero_extendqisi2
 627 000e C0B2     		uxtb	r0, r0
 628              	.LVL32:
 905:Generated_Source\PSoC5/USBMIDI_1.c ****         USBMIDI_1_configurationChanged = 0u;
 629              		.loc 1 905 0
ARM GAS  C:\Users\214016~1\AppData\Local\Temp\ccCw4MGe.s 			page 28


 630 0010 0022     		movs	r2, #0
 631 0012 1A70     		strb	r2, [r3]
 632 0014 7047     		bx	lr
 633              	.LVL33:
 634              	.L35:
 900:Generated_Source\PSoC5/USBMIDI_1.c ****     uint8 res = 0u;
 635              		.loc 1 900 0
 636 0016 0020     		movs	r0, #0
 637              	.LVL34:
 906:Generated_Source\PSoC5/USBMIDI_1.c ****     }
 907:Generated_Source\PSoC5/USBMIDI_1.c **** 
 908:Generated_Source\PSoC5/USBMIDI_1.c ****     return (res);
 909:Generated_Source\PSoC5/USBMIDI_1.c **** }
 638              		.loc 1 909 0
 639 0018 7047     		bx	lr
 640              	.L37:
 641 001a 00BF     		.align	2
 642              	.L36:
 643 001c 00000000 		.word	USBMIDI_1_configurationChanged
 644              		.cfi_endproc
 645              	.LFE7:
 646              		.size	USBMIDI_1_IsConfigurationChanged, .-USBMIDI_1_IsConfigurationChanged
 647              		.section	.text.USBMIDI_1_GetInterfaceSetting,"ax",%progbits
 648              		.align	2
 649              		.global	USBMIDI_1_GetInterfaceSetting
 650              		.thumb
 651              		.thumb_func
 652              		.type	USBMIDI_1_GetInterfaceSetting, %function
 653              	USBMIDI_1_GetInterfaceSetting:
 654              	.LFB8:
 910:Generated_Source\PSoC5/USBMIDI_1.c **** 
 911:Generated_Source\PSoC5/USBMIDI_1.c **** 
 912:Generated_Source\PSoC5/USBMIDI_1.c **** /*******************************************************************************
 913:Generated_Source\PSoC5/USBMIDI_1.c **** * Function Name: USBMIDI_1_GetInterfaceSetting
 914:Generated_Source\PSoC5/USBMIDI_1.c **** ****************************************************************************//**
 915:Generated_Source\PSoC5/USBMIDI_1.c **** *
 916:Generated_Source\PSoC5/USBMIDI_1.c **** *  This function gets the current alternate setting for the specified interface.
 917:Generated_Source\PSoC5/USBMIDI_1.c **** *  It is useful to identify which alternate settings are active in the specified 
 918:Generated_Source\PSoC5/USBMIDI_1.c **** *  interface.
 919:Generated_Source\PSoC5/USBMIDI_1.c **** *
 920:Generated_Source\PSoC5/USBMIDI_1.c **** *  \param
 921:Generated_Source\PSoC5/USBMIDI_1.c **** *  interfaceNumber interface number
 922:Generated_Source\PSoC5/USBMIDI_1.c **** *
 923:Generated_Source\PSoC5/USBMIDI_1.c **** * \return
 924:Generated_Source\PSoC5/USBMIDI_1.c **** *  Returns the current alternate setting for the specified interface.
 925:Generated_Source\PSoC5/USBMIDI_1.c **** *
 926:Generated_Source\PSoC5/USBMIDI_1.c **** *******************************************************************************/
 927:Generated_Source\PSoC5/USBMIDI_1.c **** uint8  USBMIDI_1_GetInterfaceSetting(uint8 interfaceNumber)
 928:Generated_Source\PSoC5/USBMIDI_1.c ****                                                     
 929:Generated_Source\PSoC5/USBMIDI_1.c **** {
 655              		.loc 1 929 0
 656              		.cfi_startproc
 657              		@ args = 0, pretend = 0, frame = 0
 658              		@ frame_needed = 0, uses_anonymous_args = 0
 659              		@ link register save eliminated.
 660              	.LVL35:
 930:Generated_Source\PSoC5/USBMIDI_1.c ****     return (USBMIDI_1_interfaceSetting[interfaceNumber]);
ARM GAS  C:\Users\214016~1\AppData\Local\Temp\ccCw4MGe.s 			page 29


 661              		.loc 1 930 0
 662 0000 014B     		ldr	r3, .L39
 663 0002 185C     		ldrb	r0, [r3, r0]	@ zero_extendqisi2
 664              	.LVL36:
 931:Generated_Source\PSoC5/USBMIDI_1.c **** }
 665              		.loc 1 931 0
 666 0004 7047     		bx	lr
 667              	.L40:
 668 0006 00BF     		.align	2
 669              	.L39:
 670 0008 00000000 		.word	USBMIDI_1_interfaceSetting
 671              		.cfi_endproc
 672              	.LFE8:
 673              		.size	USBMIDI_1_GetInterfaceSetting, .-USBMIDI_1_GetInterfaceSetting
 674              		.section	.text.USBMIDI_1_GetEPState,"ax",%progbits
 675              		.align	2
 676              		.global	USBMIDI_1_GetEPState
 677              		.thumb
 678              		.thumb_func
 679              		.type	USBMIDI_1_GetEPState, %function
 680              	USBMIDI_1_GetEPState:
 681              	.LFB9:
 932:Generated_Source\PSoC5/USBMIDI_1.c **** 
 933:Generated_Source\PSoC5/USBMIDI_1.c **** 
 934:Generated_Source\PSoC5/USBMIDI_1.c **** /*******************************************************************************
 935:Generated_Source\PSoC5/USBMIDI_1.c **** * Function Name: USBMIDI_1_GetEPState
 936:Generated_Source\PSoC5/USBMIDI_1.c **** ****************************************************************************//**
 937:Generated_Source\PSoC5/USBMIDI_1.c **** *
 938:Generated_Source\PSoC5/USBMIDI_1.c **** *  This function returns the state of the requested endpoint.
 939:Generated_Source\PSoC5/USBMIDI_1.c **** *
 940:Generated_Source\PSoC5/USBMIDI_1.c **** * \param epNumber Data endpoint number
 941:Generated_Source\PSoC5/USBMIDI_1.c **** *
 942:Generated_Source\PSoC5/USBMIDI_1.c **** * \return
 943:Generated_Source\PSoC5/USBMIDI_1.c **** *  Returns the current state of the specified USBFS endpoint. Symbolic names and
 944:Generated_Source\PSoC5/USBMIDI_1.c **** *  their associated values are given in the following table. Use these constants
 945:Generated_Source\PSoC5/USBMIDI_1.c **** *  whenever you write code to change the state of the endpoints, such as ISR
 946:Generated_Source\PSoC5/USBMIDI_1.c **** *  code, to handle data sent or received.
 947:Generated_Source\PSoC5/USBMIDI_1.c **** *
 948:Generated_Source\PSoC5/USBMIDI_1.c **** *  Return Value           | Description
 949:Generated_Source\PSoC5/USBMIDI_1.c **** *  -----------------------|-----------------------------------------------------
 950:Generated_Source\PSoC5/USBMIDI_1.c **** *  USBFS_NO_EVENT_PENDING |The endpoint is awaiting SIE action
 951:Generated_Source\PSoC5/USBMIDI_1.c **** *  USBFS_EVENT_PENDING    |The endpoint is awaiting CPU action
 952:Generated_Source\PSoC5/USBMIDI_1.c **** *  USBFS_NO_EVENT_ALLOWED |The endpoint is locked from access
 953:Generated_Source\PSoC5/USBMIDI_1.c **** *  USBFS_IN_BUFFER_FULL   |The IN endpoint is loaded and the mode is set to ACK IN
 954:Generated_Source\PSoC5/USBMIDI_1.c **** *  USBFS_IN_BUFFER_EMPTY  |An IN transaction occurred and more data can be loaded
 955:Generated_Source\PSoC5/USBMIDI_1.c **** *  USBFS_OUT_BUFFER_EMPTY |The OUT endpoint is set to ACK OUT and is waiting for data
 956:Generated_Source\PSoC5/USBMIDI_1.c **** *  USBFS_OUT_BUFFER_FULL  |An OUT transaction has occurred and data can be read
 957:Generated_Source\PSoC5/USBMIDI_1.c **** *
 958:Generated_Source\PSoC5/USBMIDI_1.c **** *******************************************************************************/
 959:Generated_Source\PSoC5/USBMIDI_1.c **** uint8 USBMIDI_1_GetEPState(uint8 epNumber) 
 960:Generated_Source\PSoC5/USBMIDI_1.c **** {
 682              		.loc 1 960 0
 683              		.cfi_startproc
 684              		@ args = 0, pretend = 0, frame = 0
 685              		@ frame_needed = 0, uses_anonymous_args = 0
 686              		@ link register save eliminated.
 687              	.LVL37:
ARM GAS  C:\Users\214016~1\AppData\Local\Temp\ccCw4MGe.s 			page 30


 961:Generated_Source\PSoC5/USBMIDI_1.c ****     return (USBMIDI_1_EP[epNumber].apiEpState);
 688              		.loc 1 961 0
 689 0000 00EB4000 		add	r0, r0, r0, lsl #1
 690              	.LVL38:
 691 0004 8000     		lsls	r0, r0, #2
 692 0006 024B     		ldr	r3, .L42
 693 0008 1844     		add	r0, r0, r3
 694 000a 4078     		ldrb	r0, [r0, #1]	@ zero_extendqisi2
 962:Generated_Source\PSoC5/USBMIDI_1.c **** }
 695              		.loc 1 962 0
 696 000c 7047     		bx	lr
 697              	.L43:
 698 000e 00BF     		.align	2
 699              	.L42:
 700 0010 00000000 		.word	USBMIDI_1_EP
 701              		.cfi_endproc
 702              	.LFE9:
 703              		.size	USBMIDI_1_GetEPState, .-USBMIDI_1_GetEPState
 704              		.section	.text.USBMIDI_1_GetEPCount,"ax",%progbits
 705              		.align	2
 706              		.global	USBMIDI_1_GetEPCount
 707              		.thumb
 708              		.thumb_func
 709              		.type	USBMIDI_1_GetEPCount, %function
 710              	USBMIDI_1_GetEPCount:
 711              	.LFB10:
 963:Generated_Source\PSoC5/USBMIDI_1.c **** 
 964:Generated_Source\PSoC5/USBMIDI_1.c **** 
 965:Generated_Source\PSoC5/USBMIDI_1.c **** /*******************************************************************************
 966:Generated_Source\PSoC5/USBMIDI_1.c **** * Function Name: USBMIDI_1_GetEPCount
 967:Generated_Source\PSoC5/USBMIDI_1.c **** ****************************************************************************//**
 968:Generated_Source\PSoC5/USBMIDI_1.c **** *
 969:Generated_Source\PSoC5/USBMIDI_1.c **** *  This function supports Data Endpoints only(EP1-EP8).
 970:Generated_Source\PSoC5/USBMIDI_1.c **** *  Returns the transfer count for the requested endpoint.  The value from
 971:Generated_Source\PSoC5/USBMIDI_1.c **** *  the count registers includes 2 counts for the two byte checksum of the
 972:Generated_Source\PSoC5/USBMIDI_1.c **** *  packet.  This function subtracts the two counts.
 973:Generated_Source\PSoC5/USBMIDI_1.c **** *
 974:Generated_Source\PSoC5/USBMIDI_1.c **** *  \param epNumber Data Endpoint Number.
 975:Generated_Source\PSoC5/USBMIDI_1.c **** *                   Valid values are between 1 and 8.
 976:Generated_Source\PSoC5/USBMIDI_1.c **** *
 977:Generated_Source\PSoC5/USBMIDI_1.c **** * \return
 978:Generated_Source\PSoC5/USBMIDI_1.c **** *  Returns the current byte count from the specified endpoint or 0 for an
 979:Generated_Source\PSoC5/USBMIDI_1.c **** *  invalid endpoint.
 980:Generated_Source\PSoC5/USBMIDI_1.c **** *
 981:Generated_Source\PSoC5/USBMIDI_1.c **** *******************************************************************************/
 982:Generated_Source\PSoC5/USBMIDI_1.c **** uint16 USBMIDI_1_GetEPCount(uint8 epNumber) 
 983:Generated_Source\PSoC5/USBMIDI_1.c **** {
 712              		.loc 1 983 0
 713              		.cfi_startproc
 714              		@ args = 0, pretend = 0, frame = 0
 715              		@ frame_needed = 0, uses_anonymous_args = 0
 716              		@ link register save eliminated.
 717              	.LVL39:
 984:Generated_Source\PSoC5/USBMIDI_1.c ****     uint16 cntr = 0u;
 985:Generated_Source\PSoC5/USBMIDI_1.c **** 
 986:Generated_Source\PSoC5/USBMIDI_1.c ****     if ((epNumber > USBMIDI_1_EP0) && (epNumber < USBMIDI_1_MAX_EP))
 718              		.loc 1 986 0
ARM GAS  C:\Users\214016~1\AppData\Local\Temp\ccCw4MGe.s 			page 31


 719 0000 431E     		subs	r3, r0, #1
 720 0002 DBB2     		uxtb	r3, r3
 721 0004 072B     		cmp	r3, #7
 722 0006 0BD8     		bhi	.L46
 987:Generated_Source\PSoC5/USBMIDI_1.c ****     {
 988:Generated_Source\PSoC5/USBMIDI_1.c ****         /* Get 11-bits EP counter where epCnt0 - 3 bits MSB and epCnt1 - 8 bits LSB. */
 989:Generated_Source\PSoC5/USBMIDI_1.c ****         cntr  = ((uint16) USBMIDI_1_SIE_EP_BASE.sieEp[epNumber].epCnt0) & USBMIDI_1_EPX_CNT0_MASK;
 723              		.loc 1 989 0
 724 0008 064B     		ldr	r3, .L47
 725 000a 0001     		lsls	r0, r0, #4
 726              	.LVL40:
 727 000c 1A18     		adds	r2, r3, r0
 728 000e 185C     		ldrb	r0, [r3, r0]	@ zero_extendqisi2
 729 0010 00F00F00 		and	r0, r0, #15
 730              	.LVL41:
 990:Generated_Source\PSoC5/USBMIDI_1.c ****         cntr  = ((uint16) (cntr << 8u)) | ((uint16) USBMIDI_1_SIE_EP_BASE.sieEp[epNumber].epCnt1);
 731              		.loc 1 990 0
 732 0014 5378     		ldrb	r3, [r2, #1]	@ zero_extendqisi2
 733 0016 43EA0020 		orr	r0, r3, r0, lsl #8
 734              	.LVL42:
 991:Generated_Source\PSoC5/USBMIDI_1.c ****         cntr -= USBMIDI_1_EPX_CNTX_CRC_COUNT;
 735              		.loc 1 991 0
 736 001a 0238     		subs	r0, r0, #2
 737              	.LVL43:
 738 001c 80B2     		uxth	r0, r0
 739              	.LVL44:
 740 001e 7047     		bx	lr
 741              	.LVL45:
 742              	.L46:
 984:Generated_Source\PSoC5/USBMIDI_1.c **** 
 743              		.loc 1 984 0
 744 0020 0020     		movs	r0, #0
 745              	.LVL46:
 992:Generated_Source\PSoC5/USBMIDI_1.c ****     }
 993:Generated_Source\PSoC5/USBMIDI_1.c **** 
 994:Generated_Source\PSoC5/USBMIDI_1.c ****     return (cntr);
 995:Generated_Source\PSoC5/USBMIDI_1.c **** }
 746              		.loc 1 995 0
 747 0022 7047     		bx	lr
 748              	.L48:
 749              		.align	2
 750              	.L47:
 751 0024 FC5F0040 		.word	1073766396
 752              		.cfi_endproc
 753              	.LFE10:
 754              		.size	USBMIDI_1_GetEPCount, .-USBMIDI_1_GetEPCount
 755              		.section	.text.USBMIDI_1_LoadInEP,"ax",%progbits
 756              		.align	2
 757              		.global	USBMIDI_1_LoadInEP
 758              		.thumb
 759              		.thumb_func
 760              		.type	USBMIDI_1_LoadInEP, %function
 761              	USBMIDI_1_LoadInEP:
 762              	.LFB11:
 996:Generated_Source\PSoC5/USBMIDI_1.c **** 
 997:Generated_Source\PSoC5/USBMIDI_1.c **** 
 998:Generated_Source\PSoC5/USBMIDI_1.c **** #if (USBMIDI_1_EP_MANAGEMENT_DMA)
ARM GAS  C:\Users\214016~1\AppData\Local\Temp\ccCw4MGe.s 			page 32


 999:Generated_Source\PSoC5/USBMIDI_1.c **** #if (CY_PSOC4)
1000:Generated_Source\PSoC5/USBMIDI_1.c ****     /*******************************************************************************
1001:Generated_Source\PSoC5/USBMIDI_1.c ****     * Function Name: USBMIDI_1_InitEpDma
1002:Generated_Source\PSoC5/USBMIDI_1.c ****     ****************************************************************************//**
1003:Generated_Source\PSoC5/USBMIDI_1.c ****     *
1004:Generated_Source\PSoC5/USBMIDI_1.c ****     *  This function configures priority for all DMA channels utilized by the
1005:Generated_Source\PSoC5/USBMIDI_1.c ****     *  component. Also sets callbacks for DMA auto mode.
1006:Generated_Source\PSoC5/USBMIDI_1.c ****     *
1007:Generated_Source\PSoC5/USBMIDI_1.c ****     *******************************************************************************/
1008:Generated_Source\PSoC5/USBMIDI_1.c ****     static void USBMIDI_1_InitEpDma(void)
1009:Generated_Source\PSoC5/USBMIDI_1.c ****     {
1010:Generated_Source\PSoC5/USBMIDI_1.c ****     #if (USBMIDI_1_DMA1_ACTIVE)
1011:Generated_Source\PSoC5/USBMIDI_1.c ****         CYDMA_CH_CTL_BASE.ctl[USBMIDI_1_ep1_dma_CHANNEL] = USBMIDI_1_ep1_dma_CHANNEL_CFG;
1012:Generated_Source\PSoC5/USBMIDI_1.c ****     #endif /* (USBMIDI_1_DMA1_ACTIVE) */
1013:Generated_Source\PSoC5/USBMIDI_1.c **** 
1014:Generated_Source\PSoC5/USBMIDI_1.c ****     #if (USBMIDI_1_DMA2_ACTIVE)
1015:Generated_Source\PSoC5/USBMIDI_1.c ****         CYDMA_CH_CTL_BASE.ctl[USBMIDI_1_ep2_dma_CHANNEL] = USBMIDI_1_ep2_dma_CHANNEL_CFG;
1016:Generated_Source\PSoC5/USBMIDI_1.c ****     #endif /* (USBMIDI_1_DMA2_ACTIVE) */
1017:Generated_Source\PSoC5/USBMIDI_1.c **** 
1018:Generated_Source\PSoC5/USBMIDI_1.c ****     #if (USBMIDI_1_DMA3_ACTIVE)
1019:Generated_Source\PSoC5/USBMIDI_1.c ****         CYDMA_CH_CTL_BASE.ctl[USBMIDI_1_ep3_dma_CHANNEL] = USBMIDI_1_ep3_dma_CHANNEL_CFG;
1020:Generated_Source\PSoC5/USBMIDI_1.c ****     #endif /* (USBMIDI_1_DMA3_ACTIVE) */
1021:Generated_Source\PSoC5/USBMIDI_1.c **** 
1022:Generated_Source\PSoC5/USBMIDI_1.c ****     #if (USBMIDI_1_DMA4_ACTIVE)
1023:Generated_Source\PSoC5/USBMIDI_1.c ****         CYDMA_CH_CTL_BASE.ctl[USBMIDI_1_ep4_dma_CHANNEL] = USBMIDI_1_ep4_dma_CHANNEL_CFG;
1024:Generated_Source\PSoC5/USBMIDI_1.c ****     #endif /* (USBMIDI_1_DMA4_ACTIVE) */
1025:Generated_Source\PSoC5/USBMIDI_1.c **** 
1026:Generated_Source\PSoC5/USBMIDI_1.c ****     #if (USBMIDI_1_DMA5_ACTIVE)
1027:Generated_Source\PSoC5/USBMIDI_1.c ****         CYDMA_CH_CTL_BASE.ctl[USBMIDI_1_ep5_dma_CHANNEL] = USBMIDI_1_ep5_dma_CHANNEL_CFG;
1028:Generated_Source\PSoC5/USBMIDI_1.c ****     #endif /* (USBMIDI_1_DMA5_ACTIVE) */
1029:Generated_Source\PSoC5/USBMIDI_1.c **** 
1030:Generated_Source\PSoC5/USBMIDI_1.c ****     #if (USBMIDI_1_DMA6_ACTIVE)
1031:Generated_Source\PSoC5/USBMIDI_1.c ****         CYDMA_CH_CTL_BASE.ctl[USBMIDI_1_ep6_dma_CHANNEL] = USBMIDI_1_ep6_dma_CHANNEL_CFG;
1032:Generated_Source\PSoC5/USBMIDI_1.c ****     #endif /* (USBMIDI_1_DMA6_ACTIVE) */
1033:Generated_Source\PSoC5/USBMIDI_1.c **** 
1034:Generated_Source\PSoC5/USBMIDI_1.c ****     #if (USBMIDI_1_DMA7_ACTIVE)
1035:Generated_Source\PSoC5/USBMIDI_1.c ****         CYDMA_CH_CTL_BASE.ctl[USBMIDI_1_ep7_dma_CHANNEL] = USBMIDI_1_ep7_dma_CHANNEL_CFG;
1036:Generated_Source\PSoC5/USBMIDI_1.c ****     #endif /* (USBMIDI_1_DMA7_ACTIVE) */
1037:Generated_Source\PSoC5/USBMIDI_1.c **** 
1038:Generated_Source\PSoC5/USBMIDI_1.c ****     #if (USBMIDI_1_DMA8_ACTIVE)
1039:Generated_Source\PSoC5/USBMIDI_1.c ****         CYDMA_CH_CTL_BASE.ctl[USBMIDI_1_ep8_dma_CHANNEL] = USBMIDI_1_ep8_dma_CHANNEL_CFG;
1040:Generated_Source\PSoC5/USBMIDI_1.c ****     #endif /* (USBMIDI_1_DMA8_ACTIVE) */
1041:Generated_Source\PSoC5/USBMIDI_1.c **** 
1042:Generated_Source\PSoC5/USBMIDI_1.c ****     #if (USBMIDI_1_EP_MANAGEMENT_DMA_AUTO)
1043:Generated_Source\PSoC5/USBMIDI_1.c ****         /* Initialize DMA channel callbacks. */
1044:Generated_Source\PSoC5/USBMIDI_1.c ****         #if (USBMIDI_1_DMA1_ACTIVE)
1045:Generated_Source\PSoC5/USBMIDI_1.c ****             (void) USBMIDI_1_ep1_dma_SetInterruptCallback(&USBMIDI_1_EP1_DMA_DONE_ISR);
1046:Generated_Source\PSoC5/USBMIDI_1.c ****         #endif /* (USBMIDI_1_DMA1_ACTIVE) */
1047:Generated_Source\PSoC5/USBMIDI_1.c **** 
1048:Generated_Source\PSoC5/USBMIDI_1.c ****         #if (USBMIDI_1_DMA2_ACTIVE)
1049:Generated_Source\PSoC5/USBMIDI_1.c ****             (void) USBMIDI_1_ep2_dma_SetInterruptCallback(&USBMIDI_1_EP2_DMA_DONE_ISR);
1050:Generated_Source\PSoC5/USBMIDI_1.c ****         #endif /* (USBMIDI_1_DMA2_ACTIVE) */
1051:Generated_Source\PSoC5/USBMIDI_1.c **** 
1052:Generated_Source\PSoC5/USBMIDI_1.c ****         #if (USBMIDI_1_DMA3_ACTIVE)
1053:Generated_Source\PSoC5/USBMIDI_1.c ****             (void) USBMIDI_1_ep3_dma_SetInterruptCallback(&USBMIDI_1_EP3_DMA_DONE_ISR);
1054:Generated_Source\PSoC5/USBMIDI_1.c ****         #endif /* (USBMIDI_1_DMA3_ACTIVE) */
1055:Generated_Source\PSoC5/USBMIDI_1.c **** 
ARM GAS  C:\Users\214016~1\AppData\Local\Temp\ccCw4MGe.s 			page 33


1056:Generated_Source\PSoC5/USBMIDI_1.c ****         #if (USBMIDI_1_DMA4_ACTIVE)
1057:Generated_Source\PSoC5/USBMIDI_1.c ****             (void) USBMIDI_1_ep4_dma_SetInterruptCallback(&USBMIDI_1_EP4_DMA_DONE_ISR);
1058:Generated_Source\PSoC5/USBMIDI_1.c ****         #endif /* (USBMIDI_1_DMA4_ACTIVE) */
1059:Generated_Source\PSoC5/USBMIDI_1.c **** 
1060:Generated_Source\PSoC5/USBMIDI_1.c ****         #if (USBMIDI_1_DMA5_ACTIVE)
1061:Generated_Source\PSoC5/USBMIDI_1.c ****             (void) USBMIDI_1_ep5_dma_SetInterruptCallback(&USBMIDI_1_EP5_DMA_DONE_ISR);
1062:Generated_Source\PSoC5/USBMIDI_1.c ****         #endif /* (USBMIDI_1_DMA5_ACTIVE) */
1063:Generated_Source\PSoC5/USBMIDI_1.c **** 
1064:Generated_Source\PSoC5/USBMIDI_1.c ****         #if (USBMIDI_1_DMA6_ACTIVE)
1065:Generated_Source\PSoC5/USBMIDI_1.c ****             (void) USBMIDI_1_ep6_dma_SetInterruptCallback(&USBMIDI_1_EP6_DMA_DONE_ISR);
1066:Generated_Source\PSoC5/USBMIDI_1.c ****         #endif /* (USBMIDI_1_DMA6_ACTIVE) */
1067:Generated_Source\PSoC5/USBMIDI_1.c **** 
1068:Generated_Source\PSoC5/USBMIDI_1.c ****         #if (USBMIDI_1_DMA7_ACTIVE)
1069:Generated_Source\PSoC5/USBMIDI_1.c ****             (void) USBMIDI_1_ep7_dma_SetInterruptCallback(&USBMIDI_1_EP7_DMA_DONE_ISR);
1070:Generated_Source\PSoC5/USBMIDI_1.c ****         #endif /* (USBMIDI_1_DMA7_ACTIVE) */
1071:Generated_Source\PSoC5/USBMIDI_1.c **** 
1072:Generated_Source\PSoC5/USBMIDI_1.c ****         #if (USBMIDI_1_DMA8_ACTIVE)
1073:Generated_Source\PSoC5/USBMIDI_1.c ****             (void) USBMIDI_1_ep8_dma_SetInterruptCallback(&USBMIDI_1_EP8_DMA_DONE_ISR);
1074:Generated_Source\PSoC5/USBMIDI_1.c ****         #endif /* (USBMIDI_1_DMA8_ACTIVE) */
1075:Generated_Source\PSoC5/USBMIDI_1.c ****     #endif /* (USBMIDI_1_EP_MANAGEMENT_DMA_AUTO) */
1076:Generated_Source\PSoC5/USBMIDI_1.c ****     }
1077:Generated_Source\PSoC5/USBMIDI_1.c **** #else
1078:Generated_Source\PSoC5/USBMIDI_1.c **** 
1079:Generated_Source\PSoC5/USBMIDI_1.c **** 
1080:Generated_Source\PSoC5/USBMIDI_1.c ****     /***************************************************************************
1081:Generated_Source\PSoC5/USBMIDI_1.c ****     * Function Name: USBMIDI_1_InitEP_DMA
1082:Generated_Source\PSoC5/USBMIDI_1.c ****     ************************************************************************//**
1083:Generated_Source\PSoC5/USBMIDI_1.c ****     *
1084:Generated_Source\PSoC5/USBMIDI_1.c ****     *  This function allocates and initializes a DMA channel to be used by the
1085:Generated_Source\PSoC5/USBMIDI_1.c ****     *  USBMIDI_1_LoadInEP() or USBMIDI_1_ReadOutEP() APIs for data
1086:Generated_Source\PSoC5/USBMIDI_1.c ****     *  transfer. It is available when the Endpoint Memory Management parameter
1087:Generated_Source\PSoC5/USBMIDI_1.c ****     *  is set to DMA.
1088:Generated_Source\PSoC5/USBMIDI_1.c ****     *
1089:Generated_Source\PSoC5/USBMIDI_1.c ****     *  This function is automatically called from the USBFS_LoadInEP() and USBFS_ReadOutEP() APIs.
1090:Generated_Source\PSoC5/USBMIDI_1.c ****     *
1091:Generated_Source\PSoC5/USBMIDI_1.c ****     *  \param epNumber Contains the data endpoint number.
1092:Generated_Source\PSoC5/USBMIDI_1.c ****     *            Valid values are between 1 and 8.
1093:Generated_Source\PSoC5/USBMIDI_1.c ****     *  \param *pData Pointer to a data array that is related to the EP transfers.
1094:Generated_Source\PSoC5/USBMIDI_1.c ****     *
1095:Generated_Source\PSoC5/USBMIDI_1.c ****     * \reentrant No.
1096:Generated_Source\PSoC5/USBMIDI_1.c ****     *
1097:Generated_Source\PSoC5/USBMIDI_1.c ****     ***************************************************************************/
1098:Generated_Source\PSoC5/USBMIDI_1.c ****     void USBMIDI_1_InitEP_DMA(uint8 epNumber, const uint8 *pData)
1099:Generated_Source\PSoC5/USBMIDI_1.c ****                                                                     
1100:Generated_Source\PSoC5/USBMIDI_1.c ****     {
1101:Generated_Source\PSoC5/USBMIDI_1.c ****         uint16 src;
1102:Generated_Source\PSoC5/USBMIDI_1.c ****         uint16 dst;
1103:Generated_Source\PSoC5/USBMIDI_1.c **** 
1104:Generated_Source\PSoC5/USBMIDI_1.c ****     #if (CY_PSOC3)
1105:Generated_Source\PSoC5/USBMIDI_1.c ****         src = HI16(CYDEV_SRAM_BASE);
1106:Generated_Source\PSoC5/USBMIDI_1.c ****         dst = HI16(CYDEV_PERIPH_BASE);
1107:Generated_Source\PSoC5/USBMIDI_1.c ****         pData = pData;
1108:Generated_Source\PSoC5/USBMIDI_1.c ****     #else
1109:Generated_Source\PSoC5/USBMIDI_1.c ****         if ((USBMIDI_1_EP[epNumber].addr & USBMIDI_1_DIR_IN) != 0u)
1110:Generated_Source\PSoC5/USBMIDI_1.c ****         {
1111:Generated_Source\PSoC5/USBMIDI_1.c ****             /* IN endpoint: source is memory buffer. */
1112:Generated_Source\PSoC5/USBMIDI_1.c ****             src = HI16(pData);
ARM GAS  C:\Users\214016~1\AppData\Local\Temp\ccCw4MGe.s 			page 34


1113:Generated_Source\PSoC5/USBMIDI_1.c ****             dst = HI16(CYDEV_PERIPH_BASE);
1114:Generated_Source\PSoC5/USBMIDI_1.c ****         }
1115:Generated_Source\PSoC5/USBMIDI_1.c ****         else
1116:Generated_Source\PSoC5/USBMIDI_1.c ****         {
1117:Generated_Source\PSoC5/USBMIDI_1.c ****             /* OUT endpoint: source is USB IP memory buffer. */
1118:Generated_Source\PSoC5/USBMIDI_1.c ****             src = HI16(CYDEV_PERIPH_BASE);
1119:Generated_Source\PSoC5/USBMIDI_1.c ****             dst = HI16(pData);
1120:Generated_Source\PSoC5/USBMIDI_1.c ****         }
1121:Generated_Source\PSoC5/USBMIDI_1.c ****     #endif  /* (CY_PSOC3) */
1122:Generated_Source\PSoC5/USBMIDI_1.c **** 
1123:Generated_Source\PSoC5/USBMIDI_1.c ****         switch(epNumber)
1124:Generated_Source\PSoC5/USBMIDI_1.c ****         {
1125:Generated_Source\PSoC5/USBMIDI_1.c ****     #if (USBMIDI_1_DMA1_ACTIVE)
1126:Generated_Source\PSoC5/USBMIDI_1.c ****         case USBMIDI_1_EP1:
1127:Generated_Source\PSoC5/USBMIDI_1.c ****             USBMIDI_1_DmaChan[epNumber] = USBMIDI_1_ep1_DmaInitialize(USBMIDI_1_DMA_BYTES_PER_BURST
1128:Generated_Source\PSoC5/USBMIDI_1.c ****                                                                                     USBMIDI_1_DMA_R
1129:Generated_Source\PSoC5/USBMIDI_1.c ****             break;
1130:Generated_Source\PSoC5/USBMIDI_1.c ****     #endif /* (USBMIDI_1_DMA1_ACTIVE) */
1131:Generated_Source\PSoC5/USBMIDI_1.c **** 
1132:Generated_Source\PSoC5/USBMIDI_1.c ****     #if (USBMIDI_1_DMA2_ACTIVE)
1133:Generated_Source\PSoC5/USBMIDI_1.c ****         case USBMIDI_1_EP2:
1134:Generated_Source\PSoC5/USBMIDI_1.c ****             USBMIDI_1_DmaChan[epNumber] = USBMIDI_1_ep2_DmaInitialize(USBMIDI_1_DMA_BYTES_PER_BURST
1135:Generated_Source\PSoC5/USBMIDI_1.c ****                                                                                     USBMIDI_1_DMA_R
1136:Generated_Source\PSoC5/USBMIDI_1.c ****             break;
1137:Generated_Source\PSoC5/USBMIDI_1.c ****     #endif /* (USBMIDI_1_DMA2_ACTIVE) */
1138:Generated_Source\PSoC5/USBMIDI_1.c **** 
1139:Generated_Source\PSoC5/USBMIDI_1.c ****     #if (USBMIDI_1_DMA3_ACTIVE)
1140:Generated_Source\PSoC5/USBMIDI_1.c ****             case USBMIDI_1_EP3:
1141:Generated_Source\PSoC5/USBMIDI_1.c ****                 USBMIDI_1_DmaChan[epNumber] = USBMIDI_1_ep3_DmaInitialize(USBMIDI_1_DMA_BYTES_PER_B
1142:Generated_Source\PSoC5/USBMIDI_1.c ****                                                                                         USBMIDI_1_D
1143:Generated_Source\PSoC5/USBMIDI_1.c ****             break;
1144:Generated_Source\PSoC5/USBMIDI_1.c ****     #endif /* (USBMIDI_1_DMA3_ACTIVE) */
1145:Generated_Source\PSoC5/USBMIDI_1.c **** 
1146:Generated_Source\PSoC5/USBMIDI_1.c ****     #if (USBMIDI_1_DMA4_ACTIVE)
1147:Generated_Source\PSoC5/USBMIDI_1.c ****             case USBMIDI_1_EP4:
1148:Generated_Source\PSoC5/USBMIDI_1.c ****                 USBMIDI_1_DmaChan[epNumber] = USBMIDI_1_ep4_DmaInitialize(USBMIDI_1_DMA_BYTES_PER_B
1149:Generated_Source\PSoC5/USBMIDI_1.c ****                                                                                         USBMIDI_1_D
1150:Generated_Source\PSoC5/USBMIDI_1.c ****             break;
1151:Generated_Source\PSoC5/USBMIDI_1.c ****     #endif /* (USBMIDI_1_DMA4_ACTIVE) */
1152:Generated_Source\PSoC5/USBMIDI_1.c **** 
1153:Generated_Source\PSoC5/USBMIDI_1.c ****     #if (USBMIDI_1_DMA5_ACTIVE)
1154:Generated_Source\PSoC5/USBMIDI_1.c ****             case USBMIDI_1_EP5:
1155:Generated_Source\PSoC5/USBMIDI_1.c ****                 USBMIDI_1_DmaChan[epNumber] = USBMIDI_1_ep5_DmaInitialize(USBMIDI_1_DMA_BYTES_PER_B
1156:Generated_Source\PSoC5/USBMIDI_1.c ****                                                                                         USBMIDI_1_D
1157:Generated_Source\PSoC5/USBMIDI_1.c ****             break;
1158:Generated_Source\PSoC5/USBMIDI_1.c ****     #endif /* (USBMIDI_1_DMA5_ACTIVE) */
1159:Generated_Source\PSoC5/USBMIDI_1.c **** 
1160:Generated_Source\PSoC5/USBMIDI_1.c ****     #if (USBMIDI_1_DMA6_ACTIVE)
1161:Generated_Source\PSoC5/USBMIDI_1.c ****         case USBMIDI_1_EP6:
1162:Generated_Source\PSoC5/USBMIDI_1.c ****             USBMIDI_1_DmaChan[epNumber] = USBMIDI_1_ep6_DmaInitialize(USBMIDI_1_DMA_BYTES_PER_BURST
1163:Generated_Source\PSoC5/USBMIDI_1.c ****                                                                                     USBMIDI_1_DMA_R
1164:Generated_Source\PSoC5/USBMIDI_1.c ****             break;
1165:Generated_Source\PSoC5/USBMIDI_1.c ****     #endif /* (USBMIDI_1_DMA6_ACTIVE) */
1166:Generated_Source\PSoC5/USBMIDI_1.c **** 
1167:Generated_Source\PSoC5/USBMIDI_1.c ****     #if (USBMIDI_1_DMA7_ACTIVE)
1168:Generated_Source\PSoC5/USBMIDI_1.c ****         case USBMIDI_1_EP7:
1169:Generated_Source\PSoC5/USBMIDI_1.c ****                 USBMIDI_1_DmaChan[epNumber] = USBMIDI_1_ep7_DmaInitialize(USBMIDI_1_DMA_BYTES_PER_B
ARM GAS  C:\Users\214016~1\AppData\Local\Temp\ccCw4MGe.s 			page 35


1170:Generated_Source\PSoC5/USBMIDI_1.c ****                                                                                         USBMIDI_1_D
1171:Generated_Source\PSoC5/USBMIDI_1.c ****             break;
1172:Generated_Source\PSoC5/USBMIDI_1.c ****     #endif /* (USBMIDI_1_DMA7_ACTIVE) */
1173:Generated_Source\PSoC5/USBMIDI_1.c **** 
1174:Generated_Source\PSoC5/USBMIDI_1.c ****     #if (USBMIDI_1_DMA8_ACTIVE)
1175:Generated_Source\PSoC5/USBMIDI_1.c ****         case USBMIDI_1_EP8:
1176:Generated_Source\PSoC5/USBMIDI_1.c ****                 USBMIDI_1_DmaChan[epNumber] = USBMIDI_1_ep8_DmaInitialize(USBMIDI_1_DMA_BYTES_PER_B
1177:Generated_Source\PSoC5/USBMIDI_1.c ****                                                                                         USBMIDI_1_D
1178:Generated_Source\PSoC5/USBMIDI_1.c ****             break;
1179:Generated_Source\PSoC5/USBMIDI_1.c ****     #endif /* (USBMIDI_1_DMA8_ACTIVE) */
1180:Generated_Source\PSoC5/USBMIDI_1.c **** 
1181:Generated_Source\PSoC5/USBMIDI_1.c ****         default:
1182:Generated_Source\PSoC5/USBMIDI_1.c ****             /* Do nothing for endpoints other than 1-8. */
1183:Generated_Source\PSoC5/USBMIDI_1.c ****             break;
1184:Generated_Source\PSoC5/USBMIDI_1.c ****         }
1185:Generated_Source\PSoC5/USBMIDI_1.c **** 
1186:Generated_Source\PSoC5/USBMIDI_1.c ****         if ((epNumber > USBMIDI_1_EP0) && (epNumber < USBMIDI_1_MAX_EP))
1187:Generated_Source\PSoC5/USBMIDI_1.c ****         {
1188:Generated_Source\PSoC5/USBMIDI_1.c ****             USBMIDI_1_DmaTd[epNumber] = CyDmaTdAllocate();
1189:Generated_Source\PSoC5/USBMIDI_1.c **** 
1190:Generated_Source\PSoC5/USBMIDI_1.c ****         #if (USBMIDI_1_EP_MANAGEMENT_DMA_AUTO && (USBMIDI_1_EP_DMA_AUTO_OPT == 0u))
1191:Generated_Source\PSoC5/USBMIDI_1.c ****             USBMIDI_1_DmaNextTd[epNumber] = CyDmaTdAllocate();
1192:Generated_Source\PSoC5/USBMIDI_1.c ****         #endif /* (USBMIDI_1_EP_MANAGEMENT_DMA_AUTO && (USBMIDI_1_EP_DMA_AUTO_OPT == 0u)) */
1193:Generated_Source\PSoC5/USBMIDI_1.c ****         }
1194:Generated_Source\PSoC5/USBMIDI_1.c ****     }
1195:Generated_Source\PSoC5/USBMIDI_1.c **** #endif /* (CY_PSOC4) */
1196:Generated_Source\PSoC5/USBMIDI_1.c **** 
1197:Generated_Source\PSoC5/USBMIDI_1.c ****     /***************************************************************************
1198:Generated_Source\PSoC5/USBMIDI_1.c ****     * Function Name: USBMIDI_1_Stop_DMA
1199:Generated_Source\PSoC5/USBMIDI_1.c ****     ************************************************************************//**
1200:Generated_Source\PSoC5/USBMIDI_1.c ****     *  
1201:Generated_Source\PSoC5/USBMIDI_1.c ****     *  This function stops DMA channel associated with endpoint. It is available 
1202:Generated_Source\PSoC5/USBMIDI_1.c ****     *  when the Endpoint Buffer Management parameter is set to DMA. Call this 
1203:Generated_Source\PSoC5/USBMIDI_1.c ****     *  function when endpoint direction is changed from IN to OUT or vice versa 
1204:Generated_Source\PSoC5/USBMIDI_1.c ****     *  to trigger DMA re-configuration when USBMIDI_1_LoadInEP() or 
1205:Generated_Source\PSoC5/USBMIDI_1.c ****     *  USBMIDI_1_ReadOutEP() functions are called the first time. 
1206:Generated_Source\PSoC5/USBMIDI_1.c ****     *  
1207:Generated_Source\PSoC5/USBMIDI_1.c ****     *  \param epNumber: The data endpoint number for which associated DMA 
1208:Generated_Source\PSoC5/USBMIDI_1.c ****     *  channel is stopped. The range of valid values is between 1 and 8. To stop 
1209:Generated_Source\PSoC5/USBMIDI_1.c ****     *  all DMAs associated with endpoints call this function with 
1210:Generated_Source\PSoC5/USBMIDI_1.c ****     *  USBMIDI_1_MAX_EP argument.
1211:Generated_Source\PSoC5/USBMIDI_1.c ****     *
1212:Generated_Source\PSoC5/USBMIDI_1.c ****     * \reentrant
1213:Generated_Source\PSoC5/USBMIDI_1.c ****     *  No.
1214:Generated_Source\PSoC5/USBMIDI_1.c ****     *
1215:Generated_Source\PSoC5/USBMIDI_1.c ****     ***************************************************************************/
1216:Generated_Source\PSoC5/USBMIDI_1.c ****     void USBMIDI_1_Stop_DMA(uint8 epNumber) 
1217:Generated_Source\PSoC5/USBMIDI_1.c ****     {
1218:Generated_Source\PSoC5/USBMIDI_1.c ****         uint8 i;
1219:Generated_Source\PSoC5/USBMIDI_1.c **** 
1220:Generated_Source\PSoC5/USBMIDI_1.c ****         i = (epNumber < USBMIDI_1_MAX_EP) ? epNumber : USBMIDI_1_EP1;
1221:Generated_Source\PSoC5/USBMIDI_1.c **** 
1222:Generated_Source\PSoC5/USBMIDI_1.c ****         do
1223:Generated_Source\PSoC5/USBMIDI_1.c ****         {
1224:Generated_Source\PSoC5/USBMIDI_1.c ****         #if (CY_PSOC4)
1225:Generated_Source\PSoC5/USBMIDI_1.c ****             if (0u != USBMIDI_1_DmaChan[i])
1226:Generated_Source\PSoC5/USBMIDI_1.c ****             {
ARM GAS  C:\Users\214016~1\AppData\Local\Temp\ccCw4MGe.s 			page 36


1227:Generated_Source\PSoC5/USBMIDI_1.c ****                 USBMIDI_1_CyDmaChDisable(USBMIDI_1_DmaChan[i]);
1228:Generated_Source\PSoC5/USBMIDI_1.c ****             }
1229:Generated_Source\PSoC5/USBMIDI_1.c ****         #else
1230:Generated_Source\PSoC5/USBMIDI_1.c ****             if(USBMIDI_1_DmaTd[i] != DMA_INVALID_TD)
1231:Generated_Source\PSoC5/USBMIDI_1.c ****             {
1232:Generated_Source\PSoC5/USBMIDI_1.c ****                 (void) CyDmaChDisable(USBMIDI_1_DmaChan[i]);
1233:Generated_Source\PSoC5/USBMIDI_1.c ****                 CyDmaTdFree(USBMIDI_1_DmaTd[i]);
1234:Generated_Source\PSoC5/USBMIDI_1.c ****                 USBMIDI_1_DmaTd[i] = DMA_INVALID_TD;
1235:Generated_Source\PSoC5/USBMIDI_1.c ****             }
1236:Generated_Source\PSoC5/USBMIDI_1.c **** 
1237:Generated_Source\PSoC5/USBMIDI_1.c ****             #if (USBMIDI_1_EP_MANAGEMENT_DMA_AUTO && (USBMIDI_1_EP_DMA_AUTO_OPT == 0u))
1238:Generated_Source\PSoC5/USBMIDI_1.c ****                 if(USBMIDI_1_DmaNextTd[i] != DMA_INVALID_TD)
1239:Generated_Source\PSoC5/USBMIDI_1.c ****                 {
1240:Generated_Source\PSoC5/USBMIDI_1.c ****                     CyDmaTdFree(USBMIDI_1_DmaNextTd[i]);
1241:Generated_Source\PSoC5/USBMIDI_1.c ****                     USBMIDI_1_DmaNextTd[i] = DMA_INVALID_TD;
1242:Generated_Source\PSoC5/USBMIDI_1.c ****                 }
1243:Generated_Source\PSoC5/USBMIDI_1.c ****             #endif /* (USBMIDI_1_EP_MANAGEMENT_DMA_AUTO && (USBMIDI_1_EP_DMA_AUTO_OPT == 0u)) */
1244:Generated_Source\PSoC5/USBMIDI_1.c **** 
1245:Generated_Source\PSoC5/USBMIDI_1.c ****         #endif /* (CY_PSOC4) */
1246:Generated_Source\PSoC5/USBMIDI_1.c ****             i++;
1247:Generated_Source\PSoC5/USBMIDI_1.c ****         }
1248:Generated_Source\PSoC5/USBMIDI_1.c ****         while ((i < USBMIDI_1_MAX_EP) && (epNumber == USBMIDI_1_MAX_EP));
1249:Generated_Source\PSoC5/USBMIDI_1.c ****     }
1250:Generated_Source\PSoC5/USBMIDI_1.c **** #endif /* (USBMIDI_1_EP_MANAGEMENT_DMA) */
1251:Generated_Source\PSoC5/USBMIDI_1.c **** 
1252:Generated_Source\PSoC5/USBMIDI_1.c **** 
1253:Generated_Source\PSoC5/USBMIDI_1.c **** #if (CY_PSOC3 || CY_PSOC5)
1254:Generated_Source\PSoC5/USBMIDI_1.c **** #if (USBMIDI_1_EP_MANAGEMENT_DMA_AUTO && (USBMIDI_1_EP_DMA_AUTO_OPT == 0u))
1255:Generated_Source\PSoC5/USBMIDI_1.c ****     /***************************************************************************
1256:Generated_Source\PSoC5/USBMIDI_1.c ****     * Function Name: USBMIDI_1_LoadNextInEP
1257:Generated_Source\PSoC5/USBMIDI_1.c ****     ************************************************************************//**
1258:Generated_Source\PSoC5/USBMIDI_1.c ****     *
1259:Generated_Source\PSoC5/USBMIDI_1.c ****     * Summary:
1260:Generated_Source\PSoC5/USBMIDI_1.c ****     *  This internal function is used for IN endpoint DMA reconfiguration in
1261:Generated_Source\PSoC5/USBMIDI_1.c ****     *  Auto DMA mode.
1262:Generated_Source\PSoC5/USBMIDI_1.c ****     *
1263:Generated_Source\PSoC5/USBMIDI_1.c ****     * Parameters:
1264:Generated_Source\PSoC5/USBMIDI_1.c ****     *  epNumber: Contains the data endpoint number.
1265:Generated_Source\PSoC5/USBMIDI_1.c ****     *  mode:   0 - Configure DMA to send the the rest of data.
1266:Generated_Source\PSoC5/USBMIDI_1.c ****     *          1 - Configure DMA to repeat 2 last bytes of the first burst.
1267:Generated_Source\PSoC5/USBMIDI_1.c ****     *
1268:Generated_Source\PSoC5/USBMIDI_1.c ****     ***************************************************************************/
1269:Generated_Source\PSoC5/USBMIDI_1.c ****     void USBMIDI_1_LoadNextInEP(uint8 epNumber, uint8 mode) 
1270:Generated_Source\PSoC5/USBMIDI_1.c ****     {
1271:Generated_Source\PSoC5/USBMIDI_1.c ****         reg16 *convert;
1272:Generated_Source\PSoC5/USBMIDI_1.c **** 
1273:Generated_Source\PSoC5/USBMIDI_1.c ****         if (mode == 0u)
1274:Generated_Source\PSoC5/USBMIDI_1.c ****         {
1275:Generated_Source\PSoC5/USBMIDI_1.c ****             /* Configure DMA to send rest of data. */
1276:Generated_Source\PSoC5/USBMIDI_1.c ****             /* CyDmaTdSetConfiguration API is optimized to change transfer length only and configur
1277:Generated_Source\PSoC5/USBMIDI_1.c ****             convert = (reg16 *) &CY_DMA_TDMEM_STRUCT_PTR[USBMIDI_1_DmaTd[epNumber]].TD0[0u];
1278:Generated_Source\PSoC5/USBMIDI_1.c ****             /* Set transfer length. */
1279:Generated_Source\PSoC5/USBMIDI_1.c ****             CY_SET_REG16(convert, USBMIDI_1_inLength[epNumber] - USBMIDI_1_DMA_BYTES_PER_BURST);
1280:Generated_Source\PSoC5/USBMIDI_1.c ****             /* CyDmaTdSetAddress API is optimized to change source address only. */
1281:Generated_Source\PSoC5/USBMIDI_1.c ****             convert = (reg16 *) &CY_DMA_TDMEM_STRUCT_PTR[USBMIDI_1_DmaTd[epNumber]].TD1[0u];
1282:Generated_Source\PSoC5/USBMIDI_1.c ****             CY_SET_REG16(convert, LO16((uint32)USBMIDI_1_inDataPointer[epNumber] +
1283:Generated_Source\PSoC5/USBMIDI_1.c ****                                             USBMIDI_1_DMA_BYTES_PER_BURST));
ARM GAS  C:\Users\214016~1\AppData\Local\Temp\ccCw4MGe.s 			page 37


1284:Generated_Source\PSoC5/USBMIDI_1.c ****             USBMIDI_1_inBufFull[epNumber] = 1u;
1285:Generated_Source\PSoC5/USBMIDI_1.c ****         }
1286:Generated_Source\PSoC5/USBMIDI_1.c ****         else
1287:Generated_Source\PSoC5/USBMIDI_1.c ****         {
1288:Generated_Source\PSoC5/USBMIDI_1.c ****             /* Configure DMA to repeat 2 last bytes of the first burst. */
1289:Generated_Source\PSoC5/USBMIDI_1.c ****             /* CyDmaTdSetConfiguration API is optimized to change transfer length only and configur
1290:Generated_Source\PSoC5/USBMIDI_1.c ****             convert = (reg16 *) &CY_DMA_TDMEM_STRUCT_PTR[USBMIDI_1_DmaTd[epNumber]].TD0[0u];
1291:Generated_Source\PSoC5/USBMIDI_1.c ****             /* Set transfer length. */
1292:Generated_Source\PSoC5/USBMIDI_1.c ****             CY_SET_REG16(convert, USBMIDI_1_DMA_BYTES_REPEAT);
1293:Generated_Source\PSoC5/USBMIDI_1.c ****             /* CyDmaTdSetAddress API is optimized to change source address only. */
1294:Generated_Source\PSoC5/USBMIDI_1.c ****             convert = (reg16 *) &CY_DMA_TDMEM_STRUCT_PTR[USBMIDI_1_DmaTd[epNumber]].TD1[0u];
1295:Generated_Source\PSoC5/USBMIDI_1.c ****             CY_SET_REG16(convert,  LO16((uint32)USBMIDI_1_inDataPointer[epNumber] +
1296:Generated_Source\PSoC5/USBMIDI_1.c ****                                    (USBMIDI_1_DMA_BYTES_PER_BURST - USBMIDI_1_DMA_BYTES_REPEAT)));
1297:Generated_Source\PSoC5/USBMIDI_1.c ****         }
1298:Generated_Source\PSoC5/USBMIDI_1.c **** 
1299:Generated_Source\PSoC5/USBMIDI_1.c ****         /* CyDmaChSetInitialTd API is optimized to initialize TD. */
1300:Generated_Source\PSoC5/USBMIDI_1.c ****         CY_DMA_CH_STRUCT_PTR[USBMIDI_1_DmaChan[epNumber]].basic_status[1u] = USBMIDI_1_DmaTd[epNumb
1301:Generated_Source\PSoC5/USBMIDI_1.c ****     }
1302:Generated_Source\PSoC5/USBMIDI_1.c **** #endif /* (USBMIDI_1_EP_MANAGEMENT_DMA_AUTO && (USBMIDI_1_EP_DMA_AUTO_OPT == 0u)) */
1303:Generated_Source\PSoC5/USBMIDI_1.c **** #endif /* (CY_PSOC3 || CY_PSOC5) */
1304:Generated_Source\PSoC5/USBMIDI_1.c **** 
1305:Generated_Source\PSoC5/USBMIDI_1.c **** 
1306:Generated_Source\PSoC5/USBMIDI_1.c **** /*******************************************************************************
1307:Generated_Source\PSoC5/USBMIDI_1.c **** * Function Name: USBMIDI_1_LoadInEP
1308:Generated_Source\PSoC5/USBMIDI_1.c **** ****************************************************************************//**
1309:Generated_Source\PSoC5/USBMIDI_1.c **** *
1310:Generated_Source\PSoC5/USBMIDI_1.c **** *  This function performs different functionality depending on the Component’s
1311:Generated_Source\PSoC5/USBMIDI_1.c **** *  configured Endpoint Buffer Management. This parameter is defined in
1312:Generated_Source\PSoC5/USBMIDI_1.c **** *  the Descriptor Root in Component Configure window.
1313:Generated_Source\PSoC5/USBMIDI_1.c **** *
1314:Generated_Source\PSoC5/USBMIDI_1.c **** *  *Manual (Static/Dynamic Allocation):*
1315:Generated_Source\PSoC5/USBMIDI_1.c **** *  This function loads and enables the specified USB data endpoint for an IN
1316:Generated_Source\PSoC5/USBMIDI_1.c **** *  data transfer.
1317:Generated_Source\PSoC5/USBMIDI_1.c **** *
1318:Generated_Source\PSoC5/USBMIDI_1.c **** *  *DMA with Manual Buffer Management:*
1319:Generated_Source\PSoC5/USBMIDI_1.c **** *  Configures DMA for a data transfer from system RAM to endpoint buffer.
1320:Generated_Source\PSoC5/USBMIDI_1.c **** *  Generates request for a transfer.
1321:Generated_Source\PSoC5/USBMIDI_1.c **** *
1322:Generated_Source\PSoC5/USBMIDI_1.c **** *  *DMA with Automatic Buffer Management:*
1323:Generated_Source\PSoC5/USBMIDI_1.c **** *  Configures DMA. This is required only once, so it is done only when parameter
1324:Generated_Source\PSoC5/USBMIDI_1.c **** *  pData is not NULL. When the pData pointer is NULL, the function skips this
1325:Generated_Source\PSoC5/USBMIDI_1.c **** *  task. Sets Data ready status: This generates the first DMA transfer and
1326:Generated_Source\PSoC5/USBMIDI_1.c **** *  prepares data in endpoint buffer.
1327:Generated_Source\PSoC5/USBMIDI_1.c **** *
1328:Generated_Source\PSoC5/USBMIDI_1.c **** *  \param epNumber Contains the data endpoint number.
1329:Generated_Source\PSoC5/USBMIDI_1.c **** *            Valid values are between 1 and 8.
1330:Generated_Source\PSoC5/USBMIDI_1.c **** *  \param *pData A pointer to a data array from which the data for the endpoint space
1331:Generated_Source\PSoC5/USBMIDI_1.c **** *          is loaded.
1332:Generated_Source\PSoC5/USBMIDI_1.c **** *  \param length The number of bytes to transfer from the array and then send as
1333:Generated_Source\PSoC5/USBMIDI_1.c **** *          a result of an IN request. Valid values are between 0 and 512
1334:Generated_Source\PSoC5/USBMIDI_1.c **** *          (1023 for DMA with Automatic Buffer Management mode). The value 512
1335:Generated_Source\PSoC5/USBMIDI_1.c **** *          is applicable if only one endpoint is used.
1336:Generated_Source\PSoC5/USBMIDI_1.c **** *
1337:Generated_Source\PSoC5/USBMIDI_1.c **** *
1338:Generated_Source\PSoC5/USBMIDI_1.c **** * \reentrant
1339:Generated_Source\PSoC5/USBMIDI_1.c **** *  No.
1340:Generated_Source\PSoC5/USBMIDI_1.c **** *
ARM GAS  C:\Users\214016~1\AppData\Local\Temp\ccCw4MGe.s 			page 38


1341:Generated_Source\PSoC5/USBMIDI_1.c **** *******************************************************************************/
1342:Generated_Source\PSoC5/USBMIDI_1.c **** void USBMIDI_1_LoadInEP(uint8 epNumber, const uint8 pData[], uint16 length)
1343:Generated_Source\PSoC5/USBMIDI_1.c ****                                                                         
1344:Generated_Source\PSoC5/USBMIDI_1.c **** {
 763              		.loc 1 1344 0
 764              		.cfi_startproc
 765              		@ args = 0, pretend = 0, frame = 0
 766              		@ frame_needed = 0, uses_anonymous_args = 0
 767              		@ link register save eliminated.
 768              	.LVL47:
1345:Generated_Source\PSoC5/USBMIDI_1.c ****     if ((epNumber > USBMIDI_1_EP0) && (epNumber < USBMIDI_1_MAX_EP))
 769              		.loc 1 1345 0
 770 0000 431E     		subs	r3, r0, #1
 771 0002 DBB2     		uxtb	r3, r3
 772 0004 072B     		cmp	r3, #7
 773 0006 3BD8     		bhi	.L58
1344:Generated_Source\PSoC5/USBMIDI_1.c ****     if ((epNumber > USBMIDI_1_EP0) && (epNumber < USBMIDI_1_MAX_EP))
 774              		.loc 1 1344 0
 775 0008 F0B4     		push	{r4, r5, r6, r7}
 776              		.cfi_def_cfa_offset 16
 777              		.cfi_offset 4, -16
 778              		.cfi_offset 5, -12
 779              		.cfi_offset 6, -8
 780              		.cfi_offset 7, -4
1346:Generated_Source\PSoC5/USBMIDI_1.c ****     {
1347:Generated_Source\PSoC5/USBMIDI_1.c ****     #if (!USBMIDI_1_EP_MANAGEMENT_DMA_AUTO)
1348:Generated_Source\PSoC5/USBMIDI_1.c ****         /* Limit length to available buffer USB IP buffer size.*/
1349:Generated_Source\PSoC5/USBMIDI_1.c ****         if (length > (USBMIDI_1_EPX_DATA_BUF_MAX - USBMIDI_1_EP[epNumber].buffOffset))
 781              		.loc 1 1349 0
 782 000a 0746     		mov	r7, r0
 783 000c 00EB4003 		add	r3, r0, r0, lsl #1
 784 0010 9B00     		lsls	r3, r3, #2
 785 0012 1C4C     		ldr	r4, .L59
 786 0014 2344     		add	r3, r3, r4
 787 0016 DB88     		ldrh	r3, [r3, #6]
 788 0018 9BB2     		uxth	r3, r3
 789 001a C3F50073 		rsb	r3, r3, #512
 790 001e 9A42     		cmp	r2, r3
 791 0020 07D9     		bls	.L51
1350:Generated_Source\PSoC5/USBMIDI_1.c ****         {
1351:Generated_Source\PSoC5/USBMIDI_1.c ****             length = USBMIDI_1_EPX_DATA_BUF_MAX - USBMIDI_1_EP[epNumber].buffOffset;
 792              		.loc 1 1351 0
 793 0022 00EB4003 		add	r3, r0, r0, lsl #1
 794 0026 9B00     		lsls	r3, r3, #2
 795 0028 2344     		add	r3, r3, r4
 796 002a DA88     		ldrh	r2, [r3, #6]
 797              	.LVL48:
 798 002c C2F50072 		rsb	r2, r2, #512
 799 0030 92B2     		uxth	r2, r2
 800              	.LVL49:
 801              	.L51:
1352:Generated_Source\PSoC5/USBMIDI_1.c ****         }
1353:Generated_Source\PSoC5/USBMIDI_1.c ****     #endif /* (!USBMIDI_1_EP_MANAGEMENT_DMA_AUTO) */
1354:Generated_Source\PSoC5/USBMIDI_1.c **** 
1355:Generated_Source\PSoC5/USBMIDI_1.c ****         /* Set count and data toggle. */
1356:Generated_Source\PSoC5/USBMIDI_1.c ****         USBMIDI_1_SIE_EP_BASE.sieEp[epNumber].epCnt0 = (uint8) HI8(length) | USBMIDI_1_EP[epNumber]
 802              		.loc 1 1356 0
ARM GAS  C:\Users\214016~1\AppData\Local\Temp\ccCw4MGe.s 			page 39


 803 0032 00EB4003 		add	r3, r0, r0, lsl #1
 804 0036 9B00     		lsls	r3, r3, #2
 805 0038 124C     		ldr	r4, .L59
 806 003a 2344     		add	r3, r3, r4
 807 003c DB78     		ldrb	r3, [r3, #3]	@ zero_extendqisi2
 808 003e 43EA1223 		orr	r3, r3, r2, lsr #8
 809 0042 114D     		ldr	r5, .L59+4
 810 0044 0401     		lsls	r4, r0, #4
 811 0046 2E19     		adds	r6, r5, r4
 812 0048 2B55     		strb	r3, [r5, r4]
1357:Generated_Source\PSoC5/USBMIDI_1.c ****         USBMIDI_1_SIE_EP_BASE.sieEp[epNumber].epCnt1 = (uint8) LO8(length);
 813              		.loc 1 1357 0
 814 004a D3B2     		uxtb	r3, r2
 815 004c 7370     		strb	r3, [r6, #1]
1358:Generated_Source\PSoC5/USBMIDI_1.c **** 
1359:Generated_Source\PSoC5/USBMIDI_1.c ****     #if (USBMIDI_1_EP_MANAGEMENT_MANUAL)
1360:Generated_Source\PSoC5/USBMIDI_1.c ****         if (NULL != pData)
 816              		.loc 1 1360 0
 817 004e 39B9     		cbnz	r1, .L55
 818              	.LBB2:
 819 0050 09E0     		b	.L53
 820              	.LVL50:
 821              	.L54:
1361:Generated_Source\PSoC5/USBMIDI_1.c ****         {
1362:Generated_Source\PSoC5/USBMIDI_1.c **** 			/* Copy data using arbiter data register. */
1363:Generated_Source\PSoC5/USBMIDI_1.c ****             uint16 i;
1364:Generated_Source\PSoC5/USBMIDI_1.c ****             for (i = 0u; i < length; ++i)
1365:Generated_Source\PSoC5/USBMIDI_1.c ****             {
1366:Generated_Source\PSoC5/USBMIDI_1.c ****                 USBMIDI_1_ARB_EP_BASE.arbEp[epNumber].rwDr = pData[i];
 822              		.loc 1 1366 0 discriminator 3
 823 0052 CE5C     		ldrb	r6, [r1, r3]	@ zero_extendqisi2
 824 0054 3D01     		lsls	r5, r7, #4
 825 0056 0D4C     		ldr	r4, .L59+8
 826 0058 6655     		strb	r6, [r4, r5]
1364:Generated_Source\PSoC5/USBMIDI_1.c ****             {
 827              		.loc 1 1364 0 discriminator 3
 828 005a 0133     		adds	r3, r3, #1
 829              	.LVL51:
 830 005c 9BB2     		uxth	r3, r3
 831              	.LVL52:
 832 005e 00E0     		b	.L52
 833              	.LVL53:
 834              	.L55:
 835              	.LBE2:
 836 0060 0023     		movs	r3, #0
 837              	.L52:
 838              	.LVL54:
 839              	.LBB3:
1364:Generated_Source\PSoC5/USBMIDI_1.c ****             {
 840              		.loc 1 1364 0 is_stmt 0 discriminator 1
 841 0062 9342     		cmp	r3, r2
 842 0064 F5D3     		bcc	.L54
 843              	.LVL55:
 844              	.L53:
 845              	.LBE3:
1367:Generated_Source\PSoC5/USBMIDI_1.c ****             }
1368:Generated_Source\PSoC5/USBMIDI_1.c ****         }
ARM GAS  C:\Users\214016~1\AppData\Local\Temp\ccCw4MGe.s 			page 40


1369:Generated_Source\PSoC5/USBMIDI_1.c **** 
1370:Generated_Source\PSoC5/USBMIDI_1.c ****         /* IN endpoint buffer is full - read to be read. */
1371:Generated_Source\PSoC5/USBMIDI_1.c ****         USBMIDI_1_EP[epNumber].apiEpState = USBMIDI_1_NO_EVENT_PENDING;
 846              		.loc 1 1371 0 is_stmt 1
 847 0066 4300     		lsls	r3, r0, #1
 848 0068 0344     		add	r3, r3, r0
 849 006a 9B00     		lsls	r3, r3, #2
 850 006c 054A     		ldr	r2, .L59
 851              	.LVL56:
 852 006e 1344     		add	r3, r3, r2
 853 0070 0022     		movs	r2, #0
 854 0072 5A70     		strb	r2, [r3, #1]
1372:Generated_Source\PSoC5/USBMIDI_1.c **** 
1373:Generated_Source\PSoC5/USBMIDI_1.c ****         /* Arm IN endpoint. */
1374:Generated_Source\PSoC5/USBMIDI_1.c ****         USBMIDI_1_SIE_EP_BASE.sieEp[epNumber].epCr0 = USBMIDI_1_EP[epNumber].epMode;
 855              		.loc 1 1374 0
 856 0074 5A79     		ldrb	r2, [r3, #5]	@ zero_extendqisi2
 857 0076 D2B2     		uxtb	r2, r2
 858 0078 0001     		lsls	r0, r0, #4
 859              	.LVL57:
 860 007a 054B     		ldr	r3, .L59+12
 861 007c 1A54     		strb	r2, [r3, r0]
1375:Generated_Source\PSoC5/USBMIDI_1.c **** 
1376:Generated_Source\PSoC5/USBMIDI_1.c ****     #else
1377:Generated_Source\PSoC5/USBMIDI_1.c **** 
1378:Generated_Source\PSoC5/USBMIDI_1.c ****         #if (CY_PSOC3 || CY_PSOC5LP)
1379:Generated_Source\PSoC5/USBMIDI_1.c ****             /* Initialize DMA if it was not initialized. */
1380:Generated_Source\PSoC5/USBMIDI_1.c ****             if (DMA_INVALID_TD == USBMIDI_1_DmaTd[epNumber])
1381:Generated_Source\PSoC5/USBMIDI_1.c ****             {
1382:Generated_Source\PSoC5/USBMIDI_1.c ****                 USBMIDI_1_InitEP_DMA(epNumber, pData);
1383:Generated_Source\PSoC5/USBMIDI_1.c ****             }
1384:Generated_Source\PSoC5/USBMIDI_1.c ****         #endif /* (CY_PSOC3 || CY_PSOC5LP) */
1385:Generated_Source\PSoC5/USBMIDI_1.c **** 
1386:Generated_Source\PSoC5/USBMIDI_1.c ****         #if (USBMIDI_1_EP_MANAGEMENT_DMA_MANUAL)
1387:Generated_Source\PSoC5/USBMIDI_1.c ****             /* IN endpoint buffer will be fully loaded by DMA shortly. */
1388:Generated_Source\PSoC5/USBMIDI_1.c ****             USBMIDI_1_EP[epNumber].apiEpState = USBMIDI_1_NO_EVENT_PENDING;
1389:Generated_Source\PSoC5/USBMIDI_1.c **** 
1390:Generated_Source\PSoC5/USBMIDI_1.c ****             if ((pData != NULL) && (length > 0u))
1391:Generated_Source\PSoC5/USBMIDI_1.c ****             {
1392:Generated_Source\PSoC5/USBMIDI_1.c ****             #if (CY_PSOC4)
1393:Generated_Source\PSoC5/USBMIDI_1.c ****                 uint32 channelNum = (uint32) USBMIDI_1_DmaChan[epNumber];
1394:Generated_Source\PSoC5/USBMIDI_1.c **** 
1395:Generated_Source\PSoC5/USBMIDI_1.c ****                 /* Disable DMA channel: start configuration. */
1396:Generated_Source\PSoC5/USBMIDI_1.c ****                 USBMIDI_1_CyDmaChDisable(channelNum);
1397:Generated_Source\PSoC5/USBMIDI_1.c **** 
1398:Generated_Source\PSoC5/USBMIDI_1.c ****                 /* Configure source and destination. */
1399:Generated_Source\PSoC5/USBMIDI_1.c ****                 USBMIDI_1_CyDmaSetSrcAddress(channelNum, USBMIDI_1_DMA_DESCR0, (void*) pData);
1400:Generated_Source\PSoC5/USBMIDI_1.c ****                 USBMIDI_1_CyDmaSetDstAddress(channelNum, USBMIDI_1_DMA_DESCR0, (void*) &USBMIDI_1_A
1401:Generated_Source\PSoC5/USBMIDI_1.c **** 
1402:Generated_Source\PSoC5/USBMIDI_1.c ****                 /* Configure DMA descriptor. */
1403:Generated_Source\PSoC5/USBMIDI_1.c ****                 --length;
1404:Generated_Source\PSoC5/USBMIDI_1.c ****                 USBMIDI_1_CyDmaSetConfiguration(channelNum, USBMIDI_1_DMA_DESCR0, USBMIDI_1_DMA_COM
1405:Generated_Source\PSoC5/USBMIDI_1.c ****                                                         CYDMA_BYTE | CYDMA_ELEMENT_WORD | CYDMA_INC
1406:Generated_Source\PSoC5/USBMIDI_1.c **** 
1407:Generated_Source\PSoC5/USBMIDI_1.c ****                 /* Validate descriptor to execute on following DMA request. */
1408:Generated_Source\PSoC5/USBMIDI_1.c ****                 USBMIDI_1_CyDmaValidateDescriptor(channelNum, USBMIDI_1_DMA_DESCR0);
1409:Generated_Source\PSoC5/USBMIDI_1.c **** 
ARM GAS  C:\Users\214016~1\AppData\Local\Temp\ccCw4MGe.s 			page 41


1410:Generated_Source\PSoC5/USBMIDI_1.c ****                 /* Enable DMA channel: configuration complete. */
1411:Generated_Source\PSoC5/USBMIDI_1.c ****                 USBMIDI_1_CyDmaChEnable(channelNum);
1412:Generated_Source\PSoC5/USBMIDI_1.c ****             #else
1413:Generated_Source\PSoC5/USBMIDI_1.c ****                 /* Configure DMA to transfer data. */
1414:Generated_Source\PSoC5/USBMIDI_1.c ****                 (void) CyDmaChDisable(USBMIDI_1_DmaChan[epNumber]);
1415:Generated_Source\PSoC5/USBMIDI_1.c ****                 (void) CyDmaTdSetConfiguration(USBMIDI_1_DmaTd[epNumber], length, CY_DMA_DISABLE_TD
1416:Generated_Source\PSoC5/USBMIDI_1.c ****                 (void) CyDmaTdSetAddress(USBMIDI_1_DmaTd[epNumber], LO16((uint32) pData), LO16((uin
1417:Generated_Source\PSoC5/USBMIDI_1.c **** 
1418:Generated_Source\PSoC5/USBMIDI_1.c ****                 /* Enable DMA channel. */
1419:Generated_Source\PSoC5/USBMIDI_1.c ****                 (void) CyDmaChSetInitialTd(USBMIDI_1_DmaChan[epNumber], USBMIDI_1_DmaTd[epNumber]);
1420:Generated_Source\PSoC5/USBMIDI_1.c ****                 (void) CyDmaChEnable(USBMIDI_1_DmaChan[epNumber], 1u);
1421:Generated_Source\PSoC5/USBMIDI_1.c ****             #endif /* (CY_PSOC4) */
1422:Generated_Source\PSoC5/USBMIDI_1.c **** 
1423:Generated_Source\PSoC5/USBMIDI_1.c ****                 /* Generate DMA request. */
1424:Generated_Source\PSoC5/USBMIDI_1.c ****                 USBMIDI_1_ARB_EP_BASE.arbEp[epNumber].epCfg |=  (uint8)  USBMIDI_1_ARB_EPX_CFG_DMA_
1425:Generated_Source\PSoC5/USBMIDI_1.c ****                 USBMIDI_1_ARB_EP_BASE.arbEp[epNumber].epCfg &=  (uint8) ~USBMIDI_1_ARB_EPX_CFG_DMA_
1426:Generated_Source\PSoC5/USBMIDI_1.c **** 
1427:Generated_Source\PSoC5/USBMIDI_1.c ****                 /* IN endpoint will be armed in ARB_ISR(source: IN_BUF_FULL) after first DMA transf
1428:Generated_Source\PSoC5/USBMIDI_1.c ****             }
1429:Generated_Source\PSoC5/USBMIDI_1.c ****             else
1430:Generated_Source\PSoC5/USBMIDI_1.c ****             {
1431:Generated_Source\PSoC5/USBMIDI_1.c ****                 /* When zero-length packet: arm IN endpoint directly. */
1432:Generated_Source\PSoC5/USBMIDI_1.c ****                 USBMIDI_1_SIE_EP_BASE.sieEp[epNumber].epCr0 = USBMIDI_1_EP[epNumber].epMode;
1433:Generated_Source\PSoC5/USBMIDI_1.c ****             }
1434:Generated_Source\PSoC5/USBMIDI_1.c ****         #endif /* (USBMIDI_1_EP_MANAGEMENT_DMA_MANUAL) */
1435:Generated_Source\PSoC5/USBMIDI_1.c **** 
1436:Generated_Source\PSoC5/USBMIDI_1.c ****         #if (USBMIDI_1_EP_MANAGEMENT_DMA_AUTO)
1437:Generated_Source\PSoC5/USBMIDI_1.c ****             if (pData != NULL)
1438:Generated_Source\PSoC5/USBMIDI_1.c ****             {
1439:Generated_Source\PSoC5/USBMIDI_1.c ****             #if (CY_PSOC4)
1440:Generated_Source\PSoC5/USBMIDI_1.c ****                 uint32 channelNum = (uint32) USBMIDI_1_DmaChan[epNumber];
1441:Generated_Source\PSoC5/USBMIDI_1.c **** 
1442:Generated_Source\PSoC5/USBMIDI_1.c ****                 /* Store address of buffer. */
1443:Generated_Source\PSoC5/USBMIDI_1.c ****                 USBMIDI_1_DmaEpBufferAddrBackup[epNumber] = (uint32) pData;
1444:Generated_Source\PSoC5/USBMIDI_1.c **** 
1445:Generated_Source\PSoC5/USBMIDI_1.c ****                 /* Disable DMA channel: start configuration. */
1446:Generated_Source\PSoC5/USBMIDI_1.c ****                 USBMIDI_1_CyDmaChDisable(channelNum);
1447:Generated_Source\PSoC5/USBMIDI_1.c **** 
1448:Generated_Source\PSoC5/USBMIDI_1.c ****                 /* Set destination address. */
1449:Generated_Source\PSoC5/USBMIDI_1.c ****                 USBMIDI_1_CyDmaSetDstAddress(channelNum, USBMIDI_1_DMA_DESCR0, (void*) &USBMIDI_1_A
1450:Generated_Source\PSoC5/USBMIDI_1.c ****                 USBMIDI_1_CyDmaSetDstAddress(channelNum, USBMIDI_1_DMA_DESCR1, (void*) &USBMIDI_1_A
1451:Generated_Source\PSoC5/USBMIDI_1.c **** 
1452:Generated_Source\PSoC5/USBMIDI_1.c ****                 /* Configure DMA descriptor. */
1453:Generated_Source\PSoC5/USBMIDI_1.c ****                 USBMIDI_1_CyDmaSetConfiguration(channelNum, USBMIDI_1_DMA_DESCR0, USBMIDI_1_DMA_COM
1454:Generated_Source\PSoC5/USBMIDI_1.c ****                                                         CYDMA_BYTE | CYDMA_ELEMENT_WORD | CYDMA_INC
1455:Generated_Source\PSoC5/USBMIDI_1.c **** 
1456:Generated_Source\PSoC5/USBMIDI_1.c ****                 /* Configure DMA descriptor. */
1457:Generated_Source\PSoC5/USBMIDI_1.c ****                 USBMIDI_1_CyDmaSetConfiguration(channelNum, USBMIDI_1_DMA_DESCR1, USBMIDI_1_DMA_COM
1458:Generated_Source\PSoC5/USBMIDI_1.c ****                                                         CYDMA_BYTE | CYDMA_ELEMENT_WORD | CYDMA_INC
1459:Generated_Source\PSoC5/USBMIDI_1.c **** 
1460:Generated_Source\PSoC5/USBMIDI_1.c ****                 /* Enable interrupt from DMA channel. */
1461:Generated_Source\PSoC5/USBMIDI_1.c ****                 USBMIDI_1_CyDmaSetInterruptMask(channelNum);
1462:Generated_Source\PSoC5/USBMIDI_1.c **** 
1463:Generated_Source\PSoC5/USBMIDI_1.c **** 
1464:Generated_Source\PSoC5/USBMIDI_1.c ****                 /* Enable DMA channel: configuration complete. */
1465:Generated_Source\PSoC5/USBMIDI_1.c ****                 USBMIDI_1_CyDmaChEnable(channelNum);
1466:Generated_Source\PSoC5/USBMIDI_1.c **** 
ARM GAS  C:\Users\214016~1\AppData\Local\Temp\ccCw4MGe.s 			page 42


1467:Generated_Source\PSoC5/USBMIDI_1.c ****             #else
1468:Generated_Source\PSoC5/USBMIDI_1.c ****                 (void) CyDmaChDisable(USBMIDI_1_DmaChan[epNumber]);
1469:Generated_Source\PSoC5/USBMIDI_1.c **** 
1470:Generated_Source\PSoC5/USBMIDI_1.c ****                 #if (USBMIDI_1_EP_DMA_AUTO_OPT == 0u)
1471:Generated_Source\PSoC5/USBMIDI_1.c ****                     USBMIDI_1_inLength[epNumber] = length;
1472:Generated_Source\PSoC5/USBMIDI_1.c ****                     USBMIDI_1_inDataPointer[epNumber] = pData;
1473:Generated_Source\PSoC5/USBMIDI_1.c **** 
1474:Generated_Source\PSoC5/USBMIDI_1.c ****                     /* Configure DMA to send data only for first burst */
1475:Generated_Source\PSoC5/USBMIDI_1.c ****                     (void) CyDmaTdSetConfiguration(USBMIDI_1_DmaTd[epNumber],
1476:Generated_Source\PSoC5/USBMIDI_1.c ****                         (length > USBMIDI_1_DMA_BYTES_PER_BURST) ? USBMIDI_1_DMA_BYTES_PER_BURST : 
1477:Generated_Source\PSoC5/USBMIDI_1.c ****                         USBMIDI_1_DmaNextTd[epNumber], TD_TERMIN_EN | TD_INC_SRC_ADR);
1478:Generated_Source\PSoC5/USBMIDI_1.c ****                     (void) CyDmaTdSetAddress(USBMIDI_1_DmaTd[epNumber], LO16((uint32) pData),
1479:Generated_Source\PSoC5/USBMIDI_1.c ****                                                                                LO16((uint32) &USBMI
1480:Generated_Source\PSoC5/USBMIDI_1.c **** 
1481:Generated_Source\PSoC5/USBMIDI_1.c ****                     /* The second TD will be executed only when the first one fails.
1482:Generated_Source\PSoC5/USBMIDI_1.c ****                     *  The intention of this TD is to generate NRQ interrupt
1483:Generated_Source\PSoC5/USBMIDI_1.c ****                     *  and repeat 2 last bytes of the first burst.
1484:Generated_Source\PSoC5/USBMIDI_1.c ****                     */
1485:Generated_Source\PSoC5/USBMIDI_1.c ****                     (void) CyDmaTdSetConfiguration(USBMIDI_1_DmaNextTd[epNumber], 1u,
1486:Generated_Source\PSoC5/USBMIDI_1.c ****                                                    USBMIDI_1_DmaNextTd[epNumber],
1487:Generated_Source\PSoC5/USBMIDI_1.c ****                                                    USBMIDI_1_epX_TD_TERMOUT_EN[epNumber]);
1488:Generated_Source\PSoC5/USBMIDI_1.c **** 
1489:Generated_Source\PSoC5/USBMIDI_1.c ****                     /* Configure DmaNextTd to clear Data Ready status. */
1490:Generated_Source\PSoC5/USBMIDI_1.c ****                     (void) CyDmaTdSetAddress(USBMIDI_1_DmaNextTd[epNumber], LO16((uint32) &clearInD
1491:Generated_Source\PSoC5/USBMIDI_1.c ****                                                                                    LO16((uint32) &U
1492:Generated_Source\PSoC5/USBMIDI_1.c ****                 #else
1493:Generated_Source\PSoC5/USBMIDI_1.c ****                     /* Configure DMA to send all data. */
1494:Generated_Source\PSoC5/USBMIDI_1.c ****                     (void) CyDmaTdSetConfiguration(USBMIDI_1_DmaTd[epNumber], length,
1495:Generated_Source\PSoC5/USBMIDI_1.c ****                                                    USBMIDI_1_DmaTd[epNumber], TD_TERMIN_EN | TD_INC
1496:Generated_Source\PSoC5/USBMIDI_1.c ****                     (void) CyDmaTdSetAddress(USBMIDI_1_DmaTd[epNumber], LO16((uint32) pData),
1497:Generated_Source\PSoC5/USBMIDI_1.c ****                                                                                LO16((uint32) &USBMI
1498:Generated_Source\PSoC5/USBMIDI_1.c ****                 #endif /* (USBMIDI_1_EP_DMA_AUTO_OPT == 0u) */
1499:Generated_Source\PSoC5/USBMIDI_1.c **** 
1500:Generated_Source\PSoC5/USBMIDI_1.c ****                 /* Clear any potential pending DMA requests before starting DMA channel to transfer
1501:Generated_Source\PSoC5/USBMIDI_1.c ****                 (void) CyDmaClearPendingDrq(USBMIDI_1_DmaChan[epNumber]);
1502:Generated_Source\PSoC5/USBMIDI_1.c ****                 /* Enable DMA. */
1503:Generated_Source\PSoC5/USBMIDI_1.c ****                 (void) CyDmaChSetInitialTd(USBMIDI_1_DmaChan[epNumber], USBMIDI_1_DmaTd[epNumber]);
1504:Generated_Source\PSoC5/USBMIDI_1.c ****                 (void) CyDmaChEnable(USBMIDI_1_DmaChan[epNumber], 1u);
1505:Generated_Source\PSoC5/USBMIDI_1.c ****             #endif /* (CY_PSOC4) */
1506:Generated_Source\PSoC5/USBMIDI_1.c ****             }
1507:Generated_Source\PSoC5/USBMIDI_1.c ****             else
1508:Generated_Source\PSoC5/USBMIDI_1.c ****             {
1509:Generated_Source\PSoC5/USBMIDI_1.c ****                 /* IN endpoint buffer (32 bytes) will shortly be preloaded by DMA. */
1510:Generated_Source\PSoC5/USBMIDI_1.c ****                 USBMIDI_1_EP[epNumber].apiEpState = USBMIDI_1_NO_EVENT_PENDING;
1511:Generated_Source\PSoC5/USBMIDI_1.c **** 
1512:Generated_Source\PSoC5/USBMIDI_1.c ****                 if (length > 0u)
1513:Generated_Source\PSoC5/USBMIDI_1.c ****                 {
1514:Generated_Source\PSoC5/USBMIDI_1.c ****                 #if (CY_PSOC4)
1515:Generated_Source\PSoC5/USBMIDI_1.c ****                     uint32 lengthDescr0, lengthDescr1;
1516:Generated_Source\PSoC5/USBMIDI_1.c ****                     uint32 channelNum = (uint32) USBMIDI_1_DmaChan[epNumber];
1517:Generated_Source\PSoC5/USBMIDI_1.c **** 
1518:Generated_Source\PSoC5/USBMIDI_1.c ****                     /* Get number of full bursts. */
1519:Generated_Source\PSoC5/USBMIDI_1.c ****                     USBMIDI_1_DmaEpBurstCnt[epNumber] = (uint8) (length / USBMIDI_1_DMA_BYTES_PER_B
1520:Generated_Source\PSoC5/USBMIDI_1.c **** 
1521:Generated_Source\PSoC5/USBMIDI_1.c ****                     /* Get number of elements in the last burst. */
1522:Generated_Source\PSoC5/USBMIDI_1.c ****                     USBMIDI_1_DmaEpLastBurstEl[epNumber] = (uint8) (length % USBMIDI_1_DMA_BYTES_PE
1523:Generated_Source\PSoC5/USBMIDI_1.c **** 
ARM GAS  C:\Users\214016~1\AppData\Local\Temp\ccCw4MGe.s 			page 43


1524:Generated_Source\PSoC5/USBMIDI_1.c ****                     /* Get total number of bursts. */
1525:Generated_Source\PSoC5/USBMIDI_1.c ****                     USBMIDI_1_DmaEpBurstCnt[epNumber] += (0u != USBMIDI_1_DmaEpLastBurstEl[epNumber
1526:Generated_Source\PSoC5/USBMIDI_1.c **** 
1527:Generated_Source\PSoC5/USBMIDI_1.c ****                     /* Adjust number of data elements transferred in last burst. */
1528:Generated_Source\PSoC5/USBMIDI_1.c ****                     USBMIDI_1_DmaEpLastBurstEl[epNumber] = (0u != USBMIDI_1_DmaEpLastBurstEl[epNumb
1529:Generated_Source\PSoC5/USBMIDI_1.c ****                                                                           (USBMIDI_1_DmaEpLastBurst
1530:Generated_Source\PSoC5/USBMIDI_1.c ****                                                                           (USBMIDI_1_DMA_BYTES_PER_
1531:Generated_Source\PSoC5/USBMIDI_1.c **** 
1532:Generated_Source\PSoC5/USBMIDI_1.c ****                     /* Get number of data elements to transfer for descriptor 0 and 1. */
1533:Generated_Source\PSoC5/USBMIDI_1.c ****                     lengthDescr0 = (1u == USBMIDI_1_DmaEpBurstCnt[epNumber]) ? USBMIDI_1_DmaEpLastB
1534:Generated_Source\PSoC5/USBMIDI_1.c ****                     lengthDescr1 = (2u == USBMIDI_1_DmaEpBurstCnt[epNumber]) ? USBMIDI_1_DmaEpLastB
1535:Generated_Source\PSoC5/USBMIDI_1.c **** 
1536:Generated_Source\PSoC5/USBMIDI_1.c **** 
1537:Generated_Source\PSoC5/USBMIDI_1.c ****                     /* Mark which descriptor is last one to execute. */
1538:Generated_Source\PSoC5/USBMIDI_1.c ****                     USBMIDI_1_DmaEpLastBurstEl[epNumber] |= (0u != (USBMIDI_1_DmaEpBurstCnt[epNumbe
1539:Generated_Source\PSoC5/USBMIDI_1.c ****                                                                             USBMIDI_1_DMA_DESCR0_MA
1540:Generated_Source\PSoC5/USBMIDI_1.c **** 
1541:Generated_Source\PSoC5/USBMIDI_1.c ****                     /* Restore DMA settings for current transfer. */
1542:Generated_Source\PSoC5/USBMIDI_1.c ****                     USBMIDI_1_CyDmaChDisable(channelNum);
1543:Generated_Source\PSoC5/USBMIDI_1.c **** 
1544:Generated_Source\PSoC5/USBMIDI_1.c ****                     /* Restore destination address for input endpoint. */
1545:Generated_Source\PSoC5/USBMIDI_1.c ****                     USBMIDI_1_CyDmaSetSrcAddress(channelNum, USBMIDI_1_DMA_DESCR0, (void*) ((uint32
1546:Generated_Source\PSoC5/USBMIDI_1.c ****                     USBMIDI_1_CyDmaSetSrcAddress(channelNum, USBMIDI_1_DMA_DESCR1, (void*) ((uint32
1547:Generated_Source\PSoC5/USBMIDI_1.c ****                                                                                                    
1548:Generated_Source\PSoC5/USBMIDI_1.c **** 
1549:Generated_Source\PSoC5/USBMIDI_1.c ****                     /* Set number of elements to transfer. */
1550:Generated_Source\PSoC5/USBMIDI_1.c ****                     USBMIDI_1_CyDmaSetNumDataElements(channelNum, USBMIDI_1_DMA_DESCR0, lengthDescr
1551:Generated_Source\PSoC5/USBMIDI_1.c ****                     USBMIDI_1_CyDmaSetNumDataElements(channelNum, USBMIDI_1_DMA_DESCR1, lengthDescr
1552:Generated_Source\PSoC5/USBMIDI_1.c **** 
1553:Generated_Source\PSoC5/USBMIDI_1.c ****                     /* Validate descriptor 0 and command to start with it. */
1554:Generated_Source\PSoC5/USBMIDI_1.c ****                     USBMIDI_1_CyDmaValidateDescriptor(channelNum, USBMIDI_1_DMA_DESCR0);
1555:Generated_Source\PSoC5/USBMIDI_1.c ****                     USBMIDI_1_CyDmaSetDescriptor0Next(channelNum);
1556:Generated_Source\PSoC5/USBMIDI_1.c **** 
1557:Generated_Source\PSoC5/USBMIDI_1.c ****                     /* Validate descriptor 1. */
1558:Generated_Source\PSoC5/USBMIDI_1.c ****                     if (USBMIDI_1_DmaEpBurstCnt[epNumber] > 1u)
1559:Generated_Source\PSoC5/USBMIDI_1.c ****                     {
1560:Generated_Source\PSoC5/USBMIDI_1.c ****                         USBMIDI_1_CyDmaValidateDescriptor(channelNum, USBMIDI_1_DMA_DESCR1); 
1561:Generated_Source\PSoC5/USBMIDI_1.c ****                     }                   
1562:Generated_Source\PSoC5/USBMIDI_1.c **** 
1563:Generated_Source\PSoC5/USBMIDI_1.c ****                     /* Adjust burst counter taking to account: 2 valid descriptors and interrupt tr
1564:Generated_Source\PSoC5/USBMIDI_1.c ****                     USBMIDI_1_DmaEpBurstCnt[epNumber] = USBMIDI_1_DMA_GET_BURST_CNT(USBMIDI_1_DmaEp
1565:Generated_Source\PSoC5/USBMIDI_1.c **** 
1566:Generated_Source\PSoC5/USBMIDI_1.c ****                     /* Enable DMA channel: configuration complete. */
1567:Generated_Source\PSoC5/USBMIDI_1.c ****                     USBMIDI_1_CyDmaChEnable(channelNum);
1568:Generated_Source\PSoC5/USBMIDI_1.c **** 
1569:Generated_Source\PSoC5/USBMIDI_1.c ****                 #elif (USBMIDI_1_EP_DMA_AUTO_OPT == 0u)
1570:Generated_Source\PSoC5/USBMIDI_1.c ****                     USBMIDI_1_inLength[epNumber]  = length;
1571:Generated_Source\PSoC5/USBMIDI_1.c ****                     USBMIDI_1_inBufFull[epNumber] = 0u;
1572:Generated_Source\PSoC5/USBMIDI_1.c **** 
1573:Generated_Source\PSoC5/USBMIDI_1.c ****                     (void) CyDmaChDisable(USBMIDI_1_DmaChan[epNumber]);
1574:Generated_Source\PSoC5/USBMIDI_1.c ****                     /* Configure DMA to send data only for first burst. */
1575:Generated_Source\PSoC5/USBMIDI_1.c ****                     (void) CyDmaTdSetConfiguration(
1576:Generated_Source\PSoC5/USBMIDI_1.c ****                         USBMIDI_1_DmaTd[epNumber], (length > USBMIDI_1_DMA_BYTES_PER_BURST) ?
1577:Generated_Source\PSoC5/USBMIDI_1.c ****                         USBMIDI_1_DMA_BYTES_PER_BURST : length,
1578:Generated_Source\PSoC5/USBMIDI_1.c ****                         USBMIDI_1_DmaNextTd[epNumber], TD_TERMIN_EN | TD_INC_SRC_ADR );
1579:Generated_Source\PSoC5/USBMIDI_1.c ****                     (void) CyDmaTdSetAddress(USBMIDI_1_DmaTd[epNumber], LO16((uint32)  USBMIDI_1_in
1580:Generated_Source\PSoC5/USBMIDI_1.c ****                                                                                LO16((uint32) &USBMI
ARM GAS  C:\Users\214016~1\AppData\Local\Temp\ccCw4MGe.s 			page 44


1581:Generated_Source\PSoC5/USBMIDI_1.c ****                     /* Clear Any potential pending DMA requests before starting DMA channel to tran
1582:Generated_Source\PSoC5/USBMIDI_1.c ****                     (void) CyDmaClearPendingDrq(USBMIDI_1_DmaChan[epNumber]);
1583:Generated_Source\PSoC5/USBMIDI_1.c ****                     /* Enable DMA. */
1584:Generated_Source\PSoC5/USBMIDI_1.c ****                     (void) CyDmaChSetInitialTd(USBMIDI_1_DmaChan[epNumber], USBMIDI_1_DmaTd[epNumbe
1585:Generated_Source\PSoC5/USBMIDI_1.c ****                     (void) CyDmaChEnable(USBMIDI_1_DmaChan[epNumber], 1u);
1586:Generated_Source\PSoC5/USBMIDI_1.c ****                 #endif /* (CY_PSOC4) */
1587:Generated_Source\PSoC5/USBMIDI_1.c **** 
1588:Generated_Source\PSoC5/USBMIDI_1.c ****                 #if !defined (USBMIDI_1_MANUAL_IN_EP_ARM)
1589:Generated_Source\PSoC5/USBMIDI_1.c ****                     /* Set IN data ready to generate DMA request to load data into endpoint buffer.
1590:Generated_Source\PSoC5/USBMIDI_1.c ****                     USBMIDI_1_ARB_EP_BASE.arbEp[epNumber].epCfg |= USBMIDI_1_ARB_EPX_CFG_IN_DATA_RD
1591:Generated_Source\PSoC5/USBMIDI_1.c ****                 #endif  /* (USBMIDI_1_MANUAL_IN_EP_ARM) */
1592:Generated_Source\PSoC5/USBMIDI_1.c **** 
1593:Generated_Source\PSoC5/USBMIDI_1.c ****                     /* IN endpoint will be armed in ARB_ISR(source: IN_BUF_FULL) after first DMA tr
1594:Generated_Source\PSoC5/USBMIDI_1.c ****                 }
1595:Generated_Source\PSoC5/USBMIDI_1.c ****                 else
1596:Generated_Source\PSoC5/USBMIDI_1.c ****                 {
1597:Generated_Source\PSoC5/USBMIDI_1.c ****                     /* When zero-length packet: arm IN endpoint directly. */
1598:Generated_Source\PSoC5/USBMIDI_1.c ****                     USBMIDI_1_SIE_EP_BASE.sieEp[epNumber].epCr0 = USBMIDI_1_EP[epNumber].epMode;
1599:Generated_Source\PSoC5/USBMIDI_1.c ****                 }
1600:Generated_Source\PSoC5/USBMIDI_1.c ****             }
1601:Generated_Source\PSoC5/USBMIDI_1.c ****         #endif /* (USBMIDI_1_EP_MANAGEMENT_DMA_AUTO) */
1602:Generated_Source\PSoC5/USBMIDI_1.c ****     #endif /* (USBMIDI_1_EP_MANAGEMENT_MANUAL) */
1603:Generated_Source\PSoC5/USBMIDI_1.c ****     }
1604:Generated_Source\PSoC5/USBMIDI_1.c **** }
 862              		.loc 1 1604 0
 863 007e F0BC     		pop	{r4, r5, r6, r7}
 864              		.cfi_restore 7
 865              		.cfi_restore 6
 866              		.cfi_restore 5
 867              		.cfi_restore 4
 868              		.cfi_def_cfa_offset 0
 869              	.L58:
 870 0080 7047     		bx	lr
 871              	.L60:
 872 0082 00BF     		.align	2
 873              	.L59:
 874 0084 00000000 		.word	USBMIDI_1_EP
 875 0088 FC5F0040 		.word	1073766396
 876 008c 78600040 		.word	1073766520
 877 0090 FE5F0040 		.word	1073766398
 878              		.cfi_endproc
 879              	.LFE11:
 880              		.size	USBMIDI_1_LoadInEP, .-USBMIDI_1_LoadInEP
 881              		.section	.text.USBMIDI_1_EnableOutEP,"ax",%progbits
 882              		.align	2
 883              		.global	USBMIDI_1_EnableOutEP
 884              		.thumb
 885              		.thumb_func
 886              		.type	USBMIDI_1_EnableOutEP, %function
 887              	USBMIDI_1_EnableOutEP:
 888              	.LFB13:
1605:Generated_Source\PSoC5/USBMIDI_1.c **** 
1606:Generated_Source\PSoC5/USBMIDI_1.c **** 
1607:Generated_Source\PSoC5/USBMIDI_1.c **** /*******************************************************************************
1608:Generated_Source\PSoC5/USBMIDI_1.c **** * Function Name: USBMIDI_1_ReadOutEP
1609:Generated_Source\PSoC5/USBMIDI_1.c **** ****************************************************************************//**
1610:Generated_Source\PSoC5/USBMIDI_1.c **** *
ARM GAS  C:\Users\214016~1\AppData\Local\Temp\ccCw4MGe.s 			page 45


1611:Generated_Source\PSoC5/USBMIDI_1.c **** *   This function performs different functionality depending on the Component’s
1612:Generated_Source\PSoC5/USBMIDI_1.c **** *   configured Endpoint Buffer Management. This parameter is defined in the
1613:Generated_Source\PSoC5/USBMIDI_1.c **** *   Descriptor Root in Component Configure window.
1614:Generated_Source\PSoC5/USBMIDI_1.c **** *
1615:Generated_Source\PSoC5/USBMIDI_1.c **** *   *Manual (Static/Dynamic Allocation):*
1616:Generated_Source\PSoC5/USBMIDI_1.c **** *   This function moves the specified number of bytes from endpoint buffer to
1617:Generated_Source\PSoC5/USBMIDI_1.c **** *   system RAM. The number of bytes actually transferred from endpoint buffer to
1618:Generated_Source\PSoC5/USBMIDI_1.c **** *   system RAM is the lesser of the actual number of bytes sent by the host or
1619:Generated_Source\PSoC5/USBMIDI_1.c **** *   the number of bytes requested by the length parameter.
1620:Generated_Source\PSoC5/USBMIDI_1.c **** *
1621:Generated_Source\PSoC5/USBMIDI_1.c **** *   *DMA with Manual Buffer Management:*
1622:Generated_Source\PSoC5/USBMIDI_1.c **** *   Configure DMA to transfer data from endpoint buffer to system RAM. Generate
1623:Generated_Source\PSoC5/USBMIDI_1.c **** *   a DMA request. The firmware must wait until the DMA completes the data
1624:Generated_Source\PSoC5/USBMIDI_1.c **** *   transfer after calling the USBMIDI_1_ReadOutEP() API. For example,
1625:Generated_Source\PSoC5/USBMIDI_1.c **** *   by checking EPstate:
1626:Generated_Source\PSoC5/USBMIDI_1.c **** *
1627:Generated_Source\PSoC5/USBMIDI_1.c **** *   \snippet /USBFS_sut_02.cydsn/main.c checking EPstatey
1628:Generated_Source\PSoC5/USBMIDI_1.c **** *
1629:Generated_Source\PSoC5/USBMIDI_1.c **** *   The USBFS_EnableOutEP() has to be called to allow host to write data into
1630:Generated_Source\PSoC5/USBMIDI_1.c **** *   the endpoint buffer after DMA has completed transfer data from OUT endpoint
1631:Generated_Source\PSoC5/USBMIDI_1.c **** *   buffer to SRAM.
1632:Generated_Source\PSoC5/USBMIDI_1.c **** *
1633:Generated_Source\PSoC5/USBMIDI_1.c **** *   *DMA with Automatic Buffer Management:*
1634:Generated_Source\PSoC5/USBMIDI_1.c **** *   Configure DMA. This is required only once and automatically generates DMA
1635:Generated_Source\PSoC5/USBMIDI_1.c **** *   requests as data arrives
1636:Generated_Source\PSoC5/USBMIDI_1.c **** *
1637:Generated_Source\PSoC5/USBMIDI_1.c **** *  \param epNumber: Contains the data endpoint number.
1638:Generated_Source\PSoC5/USBMIDI_1.c **** *            Valid values are between 1 and 8.
1639:Generated_Source\PSoC5/USBMIDI_1.c **** *  \param pData: A pointer to a data array from which the data for the endpoint
1640:Generated_Source\PSoC5/USBMIDI_1.c **** *         space is loaded.
1641:Generated_Source\PSoC5/USBMIDI_1.c **** *  \param length: The number of bytes to transfer from the USB Out endpoint and
1642:Generated_Source\PSoC5/USBMIDI_1.c **** *          loads it into data array. Valid values are between 0 and 1023. The
1643:Generated_Source\PSoC5/USBMIDI_1.c **** *          function moves fewer than the requested number of bytes if the host
1644:Generated_Source\PSoC5/USBMIDI_1.c **** *          sends fewer bytes than requested.
1645:Generated_Source\PSoC5/USBMIDI_1.c **** *
1646:Generated_Source\PSoC5/USBMIDI_1.c **** * \return
1647:Generated_Source\PSoC5/USBMIDI_1.c **** *  Number of bytes received, 0 for an invalid endpoint.
1648:Generated_Source\PSoC5/USBMIDI_1.c **** *
1649:Generated_Source\PSoC5/USBMIDI_1.c **** * \reentrant
1650:Generated_Source\PSoC5/USBMIDI_1.c **** *  No.
1651:Generated_Source\PSoC5/USBMIDI_1.c **** *
1652:Generated_Source\PSoC5/USBMIDI_1.c **** *******************************************************************************/
1653:Generated_Source\PSoC5/USBMIDI_1.c **** uint16 USBMIDI_1_ReadOutEP(uint8 epNumber, uint8 pData[], uint16 length)
1654:Generated_Source\PSoC5/USBMIDI_1.c ****                                                                         
1655:Generated_Source\PSoC5/USBMIDI_1.c **** {
1656:Generated_Source\PSoC5/USBMIDI_1.c ****     if ((pData != NULL) && (epNumber > USBMIDI_1_EP0) && (epNumber < USBMIDI_1_MAX_EP))
1657:Generated_Source\PSoC5/USBMIDI_1.c ****     {
1658:Generated_Source\PSoC5/USBMIDI_1.c ****     #if (!USBMIDI_1_EP_MANAGEMENT_DMA_AUTO)
1659:Generated_Source\PSoC5/USBMIDI_1.c ****         /* Adjust requested length to available data. */
1660:Generated_Source\PSoC5/USBMIDI_1.c ****         length = (length > USBMIDI_1_GetEPCount(epNumber)) ? USBMIDI_1_GetEPCount(epNumber) : lengt
1661:Generated_Source\PSoC5/USBMIDI_1.c ****     #endif /* (!USBMIDI_1_EP_MANAGEMENT_DMA_AUTO) */
1662:Generated_Source\PSoC5/USBMIDI_1.c **** 
1663:Generated_Source\PSoC5/USBMIDI_1.c ****     #if (USBMIDI_1_EP_MANAGEMENT_MANUAL)
1664:Generated_Source\PSoC5/USBMIDI_1.c ****         {
1665:Generated_Source\PSoC5/USBMIDI_1.c ****             /* Copy data using arbiter data register. */
1666:Generated_Source\PSoC5/USBMIDI_1.c ****             uint16 i;
1667:Generated_Source\PSoC5/USBMIDI_1.c ****             for (i = 0u; i < length; ++i)
ARM GAS  C:\Users\214016~1\AppData\Local\Temp\ccCw4MGe.s 			page 46


1668:Generated_Source\PSoC5/USBMIDI_1.c ****             {
1669:Generated_Source\PSoC5/USBMIDI_1.c ****                 pData[i] = (uint8) USBMIDI_1_ARB_EP_BASE.arbEp[epNumber].rwDr;
1670:Generated_Source\PSoC5/USBMIDI_1.c ****             }
1671:Generated_Source\PSoC5/USBMIDI_1.c ****         }
1672:Generated_Source\PSoC5/USBMIDI_1.c **** 
1673:Generated_Source\PSoC5/USBMIDI_1.c ****         /* Arm OUT endpoint after data has been copied from endpoint buffer. */
1674:Generated_Source\PSoC5/USBMIDI_1.c ****         USBMIDI_1_EnableOutEP(epNumber);
1675:Generated_Source\PSoC5/USBMIDI_1.c ****     #else
1676:Generated_Source\PSoC5/USBMIDI_1.c **** 
1677:Generated_Source\PSoC5/USBMIDI_1.c ****         #if (CY_PSOC3 || CY_PSOC5LP)
1678:Generated_Source\PSoC5/USBMIDI_1.c ****             /* Initialize DMA if it was not initialized. */
1679:Generated_Source\PSoC5/USBMIDI_1.c ****             if (DMA_INVALID_TD == USBMIDI_1_DmaTd[epNumber])
1680:Generated_Source\PSoC5/USBMIDI_1.c ****             {
1681:Generated_Source\PSoC5/USBMIDI_1.c ****                 USBMIDI_1_InitEP_DMA(epNumber, pData);
1682:Generated_Source\PSoC5/USBMIDI_1.c ****             }
1683:Generated_Source\PSoC5/USBMIDI_1.c ****         #endif /* (CY_PSOC3 || CY_PSOC5LP) */
1684:Generated_Source\PSoC5/USBMIDI_1.c **** 
1685:Generated_Source\PSoC5/USBMIDI_1.c ****         #if (USBMIDI_1_EP_MANAGEMENT_DMA_MANUAL)
1686:Generated_Source\PSoC5/USBMIDI_1.c ****         #if (CY_PSOC4)
1687:Generated_Source\PSoC5/USBMIDI_1.c ****         {
1688:Generated_Source\PSoC5/USBMIDI_1.c ****             uint32 channelNum = (uint32) USBMIDI_1_DmaChan[epNumber];
1689:Generated_Source\PSoC5/USBMIDI_1.c **** 
1690:Generated_Source\PSoC5/USBMIDI_1.c ****             /* Disable DMA channel: start configuration. */
1691:Generated_Source\PSoC5/USBMIDI_1.c ****             USBMIDI_1_CyDmaChDisable(channelNum);
1692:Generated_Source\PSoC5/USBMIDI_1.c **** 
1693:Generated_Source\PSoC5/USBMIDI_1.c ****             /* Configure source and destination. */
1694:Generated_Source\PSoC5/USBMIDI_1.c ****             USBMIDI_1_CyDmaSetSrcAddress(channelNum, USBMIDI_1_DMA_DESCR0, (void*) &USBMIDI_1_ARB_E
1695:Generated_Source\PSoC5/USBMIDI_1.c ****             USBMIDI_1_CyDmaSetDstAddress(channelNum, USBMIDI_1_DMA_DESCR0, (void*) pData);
1696:Generated_Source\PSoC5/USBMIDI_1.c **** 
1697:Generated_Source\PSoC5/USBMIDI_1.c ****             /* Configure DMA descriptor. */
1698:Generated_Source\PSoC5/USBMIDI_1.c ****             USBMIDI_1_CyDmaSetConfiguration(channelNum, USBMIDI_1_DMA_DESCR0, USBMIDI_1_DMA_COMMON_
1699:Generated_Source\PSoC5/USBMIDI_1.c ****                                                     CYDMA_BYTE | CYDMA_WORD_ELEMENT | CYDMA_INC_DST
1700:Generated_Source\PSoC5/USBMIDI_1.c **** 
1701:Generated_Source\PSoC5/USBMIDI_1.c ****             /* Validate descriptor to execute on following DMA request. */
1702:Generated_Source\PSoC5/USBMIDI_1.c ****             USBMIDI_1_CyDmaValidateDescriptor(channelNum, USBMIDI_1_DMA_DESCR0);
1703:Generated_Source\PSoC5/USBMIDI_1.c **** 
1704:Generated_Source\PSoC5/USBMIDI_1.c ****             /* Enable DMA channel: configuration complete. */
1705:Generated_Source\PSoC5/USBMIDI_1.c ****             USBMIDI_1_CyDmaChEnable(channelNum);
1706:Generated_Source\PSoC5/USBMIDI_1.c ****         }
1707:Generated_Source\PSoC5/USBMIDI_1.c ****         #else
1708:Generated_Source\PSoC5/USBMIDI_1.c ****             /* Configure DMA to transfer data. */
1709:Generated_Source\PSoC5/USBMIDI_1.c ****             (void) CyDmaChDisable(USBMIDI_1_DmaChan[epNumber]);
1710:Generated_Source\PSoC5/USBMIDI_1.c ****             (void) CyDmaTdSetConfiguration(USBMIDI_1_DmaTd[epNumber], length, CY_DMA_DISABLE_TD, TD
1711:Generated_Source\PSoC5/USBMIDI_1.c ****             (void) CyDmaTdSetAddress(USBMIDI_1_DmaTd[epNumber], LO16((uint32) &USBMIDI_1_ARB_EP_BAS
1712:Generated_Source\PSoC5/USBMIDI_1.c **** 
1713:Generated_Source\PSoC5/USBMIDI_1.c ****             /* Enable DMA channel. */
1714:Generated_Source\PSoC5/USBMIDI_1.c ****             (void) CyDmaChSetInitialTd(USBMIDI_1_DmaChan[epNumber], USBMIDI_1_DmaTd[epNumber]);
1715:Generated_Source\PSoC5/USBMIDI_1.c ****             (void) CyDmaChEnable(USBMIDI_1_DmaChan[epNumber], 1u);
1716:Generated_Source\PSoC5/USBMIDI_1.c ****         #endif /* (CY_PSOC4) */
1717:Generated_Source\PSoC5/USBMIDI_1.c **** 
1718:Generated_Source\PSoC5/USBMIDI_1.c ****             /* Generate DMA request. */
1719:Generated_Source\PSoC5/USBMIDI_1.c ****             USBMIDI_1_ARB_EP_BASE.arbEp[epNumber].epCfg |=  (uint8)  USBMIDI_1_ARB_EPX_CFG_DMA_REQ;
1720:Generated_Source\PSoC5/USBMIDI_1.c ****             USBMIDI_1_ARB_EP_BASE.arbEp[epNumber].epCfg &=  (uint8) ~USBMIDI_1_ARB_EPX_CFG_DMA_REQ;
1721:Generated_Source\PSoC5/USBMIDI_1.c **** 
1722:Generated_Source\PSoC5/USBMIDI_1.c ****             /* OUT endpoint has to be armed again by user when DMA transfers have been completed.
1723:Generated_Source\PSoC5/USBMIDI_1.c ****             * NO_EVENT_PENDING: notifies that data has been copied from endpoint buffer.
1724:Generated_Source\PSoC5/USBMIDI_1.c ****             */
ARM GAS  C:\Users\214016~1\AppData\Local\Temp\ccCw4MGe.s 			page 47


1725:Generated_Source\PSoC5/USBMIDI_1.c **** 
1726:Generated_Source\PSoC5/USBMIDI_1.c ****         #endif /* (USBMIDI_1_EP_MANAGEMENT_DMA_MANUAL) */
1727:Generated_Source\PSoC5/USBMIDI_1.c **** 
1728:Generated_Source\PSoC5/USBMIDI_1.c ****         #if (USBMIDI_1_EP_MANAGEMENT_DMA_AUTO)
1729:Generated_Source\PSoC5/USBMIDI_1.c ****         #if (CY_PSOC4)
1730:Generated_Source\PSoC5/USBMIDI_1.c ****         {
1731:Generated_Source\PSoC5/USBMIDI_1.c ****             uint32 channelNum = (uint32) USBMIDI_1_DmaChan[epNumber];
1732:Generated_Source\PSoC5/USBMIDI_1.c ****             uint32 lengthDescr0, lengthDescr1;
1733:Generated_Source\PSoC5/USBMIDI_1.c **** 
1734:Generated_Source\PSoC5/USBMIDI_1.c ****             /* Get number of full bursts. */
1735:Generated_Source\PSoC5/USBMIDI_1.c ****             USBMIDI_1_DmaEpBurstCnt[epNumber] = (uint8) (length / USBMIDI_1_DMA_BYTES_PER_BURST);
1736:Generated_Source\PSoC5/USBMIDI_1.c **** 
1737:Generated_Source\PSoC5/USBMIDI_1.c ****             /* Get number of elements in the last burst. */
1738:Generated_Source\PSoC5/USBMIDI_1.c ****             USBMIDI_1_DmaEpLastBurstEl[epNumber] = (uint8) (length % USBMIDI_1_DMA_BYTES_PER_BURST)
1739:Generated_Source\PSoC5/USBMIDI_1.c **** 
1740:Generated_Source\PSoC5/USBMIDI_1.c ****             /* Get total number of bursts. */
1741:Generated_Source\PSoC5/USBMIDI_1.c ****             USBMIDI_1_DmaEpBurstCnt[epNumber] += (0u != USBMIDI_1_DmaEpLastBurstEl[epNumber]) ? 1u 
1742:Generated_Source\PSoC5/USBMIDI_1.c **** 
1743:Generated_Source\PSoC5/USBMIDI_1.c ****             /* Adjust number of the data elements transfered in last burst. */
1744:Generated_Source\PSoC5/USBMIDI_1.c ****             USBMIDI_1_DmaEpLastBurstEl[epNumber] = (0u != USBMIDI_1_DmaEpLastBurstEl[epNumber]) ?
1745:Generated_Source\PSoC5/USBMIDI_1.c ****                                                                   (USBMIDI_1_DmaEpLastBurstEl[epNum
1746:Generated_Source\PSoC5/USBMIDI_1.c ****                                                                   (USBMIDI_1_DMA_BYTES_PER_BURST - 
1747:Generated_Source\PSoC5/USBMIDI_1.c **** 
1748:Generated_Source\PSoC5/USBMIDI_1.c ****             /* Get number of data elements to transfer for descriptor 0 and 1. */
1749:Generated_Source\PSoC5/USBMIDI_1.c ****             lengthDescr0 = (1u == USBMIDI_1_DmaEpBurstCnt[epNumber]) ? USBMIDI_1_DmaEpLastBurstEl[e
1750:Generated_Source\PSoC5/USBMIDI_1.c ****             lengthDescr1 = (2u == USBMIDI_1_DmaEpBurstCnt[epNumber]) ? USBMIDI_1_DmaEpLastBurstEl[e
1751:Generated_Source\PSoC5/USBMIDI_1.c **** 
1752:Generated_Source\PSoC5/USBMIDI_1.c ****             /* Mark if revert number of data elements in descriptor after transfer completion. */
1753:Generated_Source\PSoC5/USBMIDI_1.c ****             USBMIDI_1_DmaEpLastBurstEl[epNumber] |= (USBMIDI_1_DmaEpBurstCnt[epNumber] > 2u) ? USBM
1754:Generated_Source\PSoC5/USBMIDI_1.c **** 
1755:Generated_Source\PSoC5/USBMIDI_1.c ****             /* Mark last descriptor to be executed. */
1756:Generated_Source\PSoC5/USBMIDI_1.c ****             USBMIDI_1_DmaEpLastBurstEl[epNumber] |= (0u != (USBMIDI_1_DmaEpBurstCnt[epNumber] & 0x1
1757:Generated_Source\PSoC5/USBMIDI_1.c ****                                                                     USBMIDI_1_DMA_DESCR0_MASK : USB
1758:Generated_Source\PSoC5/USBMIDI_1.c **** 
1759:Generated_Source\PSoC5/USBMIDI_1.c ****             /* Store address of buffer and burst counter for endpoint. */
1760:Generated_Source\PSoC5/USBMIDI_1.c ****             USBMIDI_1_DmaEpBufferAddrBackup[epNumber] = (uint32) pData;
1761:Generated_Source\PSoC5/USBMIDI_1.c ****             USBMIDI_1_DmaEpBurstCntBackup[epNumber]   = USBMIDI_1_DmaEpBurstCnt[epNumber];
1762:Generated_Source\PSoC5/USBMIDI_1.c **** 
1763:Generated_Source\PSoC5/USBMIDI_1.c ****             /* Adjust burst counter taking to account: 2 valid descriptors and interrupt trigger af
1764:Generated_Source\PSoC5/USBMIDI_1.c ****             USBMIDI_1_DmaEpBurstCnt[epNumber] = USBMIDI_1_DMA_GET_BURST_CNT(USBMIDI_1_DmaEpBurstCnt
1765:Generated_Source\PSoC5/USBMIDI_1.c **** 
1766:Generated_Source\PSoC5/USBMIDI_1.c ****             /* Disable DMA channel: start configuration. */
1767:Generated_Source\PSoC5/USBMIDI_1.c ****             USBMIDI_1_CyDmaChDisable(channelNum);
1768:Generated_Source\PSoC5/USBMIDI_1.c **** 
1769:Generated_Source\PSoC5/USBMIDI_1.c ****             /* Set destination address. */
1770:Generated_Source\PSoC5/USBMIDI_1.c ****             USBMIDI_1_CyDmaSetSrcAddress(channelNum, USBMIDI_1_DMA_DESCR0, (void*) &USBMIDI_1_ARB_E
1771:Generated_Source\PSoC5/USBMIDI_1.c ****             USBMIDI_1_CyDmaSetSrcAddress(channelNum, USBMIDI_1_DMA_DESCR1, (void*) &USBMIDI_1_ARB_E
1772:Generated_Source\PSoC5/USBMIDI_1.c **** 
1773:Generated_Source\PSoC5/USBMIDI_1.c ****             USBMIDI_1_CyDmaSetDstAddress(channelNum, USBMIDI_1_DMA_DESCR0, (void*) ((uint32) pData)
1774:Generated_Source\PSoC5/USBMIDI_1.c ****             USBMIDI_1_CyDmaSetDstAddress(channelNum, USBMIDI_1_DMA_DESCR1, (void*) ((uint32) pData 
1775:Generated_Source\PSoC5/USBMIDI_1.c **** 
1776:Generated_Source\PSoC5/USBMIDI_1.c ****             /* Configure DMA descriptor. */
1777:Generated_Source\PSoC5/USBMIDI_1.c ****             USBMIDI_1_CyDmaSetConfiguration(channelNum, USBMIDI_1_DMA_DESCR0, USBMIDI_1_DMA_COMMON_
1778:Generated_Source\PSoC5/USBMIDI_1.c ****                                                     CYDMA_BYTE | CYDMA_WORD_ELEMENT | CYDMA_INC_DST
1779:Generated_Source\PSoC5/USBMIDI_1.c **** 
1780:Generated_Source\PSoC5/USBMIDI_1.c ****             /* Configure DMA descriptor. */
1781:Generated_Source\PSoC5/USBMIDI_1.c ****             USBMIDI_1_CyDmaSetConfiguration(channelNum, USBMIDI_1_DMA_DESCR1, USBMIDI_1_DMA_COMMON_
ARM GAS  C:\Users\214016~1\AppData\Local\Temp\ccCw4MGe.s 			page 48


1782:Generated_Source\PSoC5/USBMIDI_1.c ****                                                     CYDMA_BYTE | CYDMA_WORD_ELEMENT | CYDMA_INC_DST
1783:Generated_Source\PSoC5/USBMIDI_1.c **** 
1784:Generated_Source\PSoC5/USBMIDI_1.c ****             /* Enable interrupt from DMA channel. */
1785:Generated_Source\PSoC5/USBMIDI_1.c ****             USBMIDI_1_CyDmaSetInterruptMask(channelNum);
1786:Generated_Source\PSoC5/USBMIDI_1.c **** 
1787:Generated_Source\PSoC5/USBMIDI_1.c ****             /* Validate DMA descriptor 0 and 1. */
1788:Generated_Source\PSoC5/USBMIDI_1.c ****             USBMIDI_1_CyDmaValidateDescriptor(channelNum, USBMIDI_1_DMA_DESCR0);
1789:Generated_Source\PSoC5/USBMIDI_1.c **** 
1790:Generated_Source\PSoC5/USBMIDI_1.c ****             if (USBMIDI_1_DmaEpBurstCntBackup[epNumber] > 1u)
1791:Generated_Source\PSoC5/USBMIDI_1.c ****             {
1792:Generated_Source\PSoC5/USBMIDI_1.c ****                 USBMIDI_1_CyDmaValidateDescriptor(channelNum, USBMIDI_1_DMA_DESCR1);
1793:Generated_Source\PSoC5/USBMIDI_1.c ****             }
1794:Generated_Source\PSoC5/USBMIDI_1.c **** 
1795:Generated_Source\PSoC5/USBMIDI_1.c ****             /* Enable DMA channel: configuration complete. */
1796:Generated_Source\PSoC5/USBMIDI_1.c ****             USBMIDI_1_CyDmaChEnable(channelNum);
1797:Generated_Source\PSoC5/USBMIDI_1.c ****         }
1798:Generated_Source\PSoC5/USBMIDI_1.c ****         #else
1799:Generated_Source\PSoC5/USBMIDI_1.c ****             (void) CyDmaChDisable(USBMIDI_1_DmaChan[epNumber]);
1800:Generated_Source\PSoC5/USBMIDI_1.c ****             (void) CyDmaTdSetConfiguration(USBMIDI_1_DmaTd[epNumber], length,  USBMIDI_1_DmaTd[epNu
1801:Generated_Source\PSoC5/USBMIDI_1.c ****             (void) CyDmaTdSetAddress(USBMIDI_1_DmaTd[epNumber], LO16((uint32) &USBMIDI_1_ARB_EP_BAS
1802:Generated_Source\PSoC5/USBMIDI_1.c **** 
1803:Generated_Source\PSoC5/USBMIDI_1.c ****             /* Clear Any potential pending DMA requests before starting DMA channel to transfer dat
1804:Generated_Source\PSoC5/USBMIDI_1.c ****             (void) CyDmaClearPendingDrq(USBMIDI_1_DmaChan[epNumber]);
1805:Generated_Source\PSoC5/USBMIDI_1.c **** 
1806:Generated_Source\PSoC5/USBMIDI_1.c ****             /* Enable DMA channel. */
1807:Generated_Source\PSoC5/USBMIDI_1.c ****             (void) CyDmaChSetInitialTd(USBMIDI_1_DmaChan[epNumber], USBMIDI_1_DmaTd[epNumber]);
1808:Generated_Source\PSoC5/USBMIDI_1.c ****             (void) CyDmaChEnable(USBMIDI_1_DmaChan[epNumber], 1u);
1809:Generated_Source\PSoC5/USBMIDI_1.c ****         #endif /* (CY_PSOC4) */
1810:Generated_Source\PSoC5/USBMIDI_1.c **** 
1811:Generated_Source\PSoC5/USBMIDI_1.c ****             /* OUT endpoint has to be armed again by user when DMA transfers have been completed.
1812:Generated_Source\PSoC5/USBMIDI_1.c ****             * NO_EVENT_PENDING: notifies that data has been copied from endpoint buffer.
1813:Generated_Source\PSoC5/USBMIDI_1.c ****             */
1814:Generated_Source\PSoC5/USBMIDI_1.c **** 
1815:Generated_Source\PSoC5/USBMIDI_1.c ****         #endif /* (USBMIDI_1_EP_MANAGEMENT_DMA_AUTO) */
1816:Generated_Source\PSoC5/USBMIDI_1.c ****     #endif /* (USBMIDI_1_EP_MANAGEMENT_MANUAL) */
1817:Generated_Source\PSoC5/USBMIDI_1.c ****     }
1818:Generated_Source\PSoC5/USBMIDI_1.c ****     else
1819:Generated_Source\PSoC5/USBMIDI_1.c ****     {
1820:Generated_Source\PSoC5/USBMIDI_1.c ****         length = 0u;
1821:Generated_Source\PSoC5/USBMIDI_1.c ****     }
1822:Generated_Source\PSoC5/USBMIDI_1.c **** 
1823:Generated_Source\PSoC5/USBMIDI_1.c ****     return (length);
1824:Generated_Source\PSoC5/USBMIDI_1.c **** }
1825:Generated_Source\PSoC5/USBMIDI_1.c **** 
1826:Generated_Source\PSoC5/USBMIDI_1.c **** 
1827:Generated_Source\PSoC5/USBMIDI_1.c **** #if (USBMIDI_1_16BITS_EP_ACCESS_ENABLE)
1828:Generated_Source\PSoC5/USBMIDI_1.c **** /*******************************************************************************
1829:Generated_Source\PSoC5/USBMIDI_1.c **** * Function Name: USBMIDI_1_LoadInEP16
1830:Generated_Source\PSoC5/USBMIDI_1.c **** ****************************************************************************//**
1831:Generated_Source\PSoC5/USBMIDI_1.c **** *
1832:Generated_Source\PSoC5/USBMIDI_1.c **** *  This function performs different functionality depending on the Component’s
1833:Generated_Source\PSoC5/USBMIDI_1.c **** *  configured Endpoint Buffer Management. This parameter is defined in
1834:Generated_Source\PSoC5/USBMIDI_1.c **** *  the Descriptor Root in Component Configure window.
1835:Generated_Source\PSoC5/USBMIDI_1.c **** *
1836:Generated_Source\PSoC5/USBMIDI_1.c **** *  *Manual (Static/Dynamic Allocation):*
1837:Generated_Source\PSoC5/USBMIDI_1.c **** *  This function loads and enables the specified USB data endpoint for an IN
1838:Generated_Source\PSoC5/USBMIDI_1.c **** *  data transfer.
ARM GAS  C:\Users\214016~1\AppData\Local\Temp\ccCw4MGe.s 			page 49


1839:Generated_Source\PSoC5/USBMIDI_1.c **** *
1840:Generated_Source\PSoC5/USBMIDI_1.c **** *  *DMA with Manual Buffer Management:*
1841:Generated_Source\PSoC5/USBMIDI_1.c **** *  Configures DMA for a data transfer from system RAM to endpoint buffer.
1842:Generated_Source\PSoC5/USBMIDI_1.c **** *  Generates request for a transfer.
1843:Generated_Source\PSoC5/USBMIDI_1.c **** *
1844:Generated_Source\PSoC5/USBMIDI_1.c **** *  *DMA with Automatic Buffer Management:*
1845:Generated_Source\PSoC5/USBMIDI_1.c **** *  Configures DMA. This is required only once, so it is done only when parameter
1846:Generated_Source\PSoC5/USBMIDI_1.c **** *  pData is not NULL. When the pData pointer is NULL, the function skips this
1847:Generated_Source\PSoC5/USBMIDI_1.c **** *  task. Sets Data ready status: This generates the first DMA transfer and
1848:Generated_Source\PSoC5/USBMIDI_1.c **** *  prepares data in endpoint buffer.
1849:Generated_Source\PSoC5/USBMIDI_1.c **** *
1850:Generated_Source\PSoC5/USBMIDI_1.c **** *  \param epNumber Contains the data endpoint number.
1851:Generated_Source\PSoC5/USBMIDI_1.c **** *        Valid values are between 1 and 8.
1852:Generated_Source\PSoC5/USBMIDI_1.c **** *  \param *pData A pointer to a data array from which the data for the endpoint
1853:Generated_Source\PSoC5/USBMIDI_1.c **** *        space is loaded. It shall be ensured that this pointer address is even
1854:Generated_Source\PSoC5/USBMIDI_1.c **** *        to ensure the 16-bit transfer is aligned to even address. Else, a hard
1855:Generated_Source\PSoC5/USBMIDI_1.c **** *        fault condition can occur.
1856:Generated_Source\PSoC5/USBMIDI_1.c **** *  \param length The number of bytes to transfer from the array and then send as
1857:Generated_Source\PSoC5/USBMIDI_1.c **** *        a result of an IN request. Valid values are between 0 and 512 (1023 for
1858:Generated_Source\PSoC5/USBMIDI_1.c **** *        DMA with Automatic Buffer Management mode). The value 512 is applicable
1859:Generated_Source\PSoC5/USBMIDI_1.c **** *        if only one endpoint is used.
1860:Generated_Source\PSoC5/USBMIDI_1.c **** *
1861:Generated_Source\PSoC5/USBMIDI_1.c **** * \reentrant
1862:Generated_Source\PSoC5/USBMIDI_1.c **** *  No.
1863:Generated_Source\PSoC5/USBMIDI_1.c **** *
1864:Generated_Source\PSoC5/USBMIDI_1.c **** *******************************************************************************/
1865:Generated_Source\PSoC5/USBMIDI_1.c **** void USBMIDI_1_LoadInEP16(uint8 epNumber, const uint8 pData[], uint16 length)
1866:Generated_Source\PSoC5/USBMIDI_1.c **** {
1867:Generated_Source\PSoC5/USBMIDI_1.c ****     /* Check array alignment on half-word boundary. */
1868:Generated_Source\PSoC5/USBMIDI_1.c ****     CYASSERT(0u == (((uint32) pData) & 0x01u));
1869:Generated_Source\PSoC5/USBMIDI_1.c **** 
1870:Generated_Source\PSoC5/USBMIDI_1.c ****     if ((epNumber > USBMIDI_1_EP0) && (epNumber < USBMIDI_1_MAX_EP))
1871:Generated_Source\PSoC5/USBMIDI_1.c ****     {
1872:Generated_Source\PSoC5/USBMIDI_1.c ****     #if (!USBMIDI_1_EP_MANAGEMENT_DMA_AUTO)
1873:Generated_Source\PSoC5/USBMIDI_1.c ****         /* Limit length to available buffer USB IP buffer size. */
1874:Generated_Source\PSoC5/USBMIDI_1.c ****         if (length > (USBMIDI_1_EPX_DATA_BUF_MAX - USBMIDI_1_EP[epNumber].buffOffset))
1875:Generated_Source\PSoC5/USBMIDI_1.c ****         {
1876:Generated_Source\PSoC5/USBMIDI_1.c ****             length = USBMIDI_1_EPX_DATA_BUF_MAX - USBMIDI_1_EP[epNumber].buffOffset;
1877:Generated_Source\PSoC5/USBMIDI_1.c ****         }
1878:Generated_Source\PSoC5/USBMIDI_1.c ****     #endif /* (!USBMIDI_1_EP_MANAGEMENT_DMA_AUTO) */
1879:Generated_Source\PSoC5/USBMIDI_1.c **** 
1880:Generated_Source\PSoC5/USBMIDI_1.c ****         /* Set count and data toggle. */
1881:Generated_Source\PSoC5/USBMIDI_1.c ****         USBMIDI_1_SIE_EP_BASE.sieEp[epNumber].epCnt0 = (uint32) HI8(length) | USBMIDI_1_EP[epNumber
1882:Generated_Source\PSoC5/USBMIDI_1.c ****         USBMIDI_1_SIE_EP_BASE.sieEp[epNumber].epCnt1 = (uint32) LO8(length);
1883:Generated_Source\PSoC5/USBMIDI_1.c **** 
1884:Generated_Source\PSoC5/USBMIDI_1.c ****         /* Adjust requested length: 2 bytes are handled at one data register access. */
1885:Generated_Source\PSoC5/USBMIDI_1.c ****         length += (length & 0x01u);
1886:Generated_Source\PSoC5/USBMIDI_1.c **** 
1887:Generated_Source\PSoC5/USBMIDI_1.c ****     #if (USBMIDI_1_EP_MANAGEMENT_MANUAL)
1888:Generated_Source\PSoC5/USBMIDI_1.c ****         if (NULL != pData)
1889:Generated_Source\PSoC5/USBMIDI_1.c ****         {
1890:Generated_Source\PSoC5/USBMIDI_1.c ****             /* Convert uint8 array to uint16. */
1891:Generated_Source\PSoC5/USBMIDI_1.c ****             const uint16 *dataBuf = (uint16 *) pData;
1892:Generated_Source\PSoC5/USBMIDI_1.c **** 
1893:Generated_Source\PSoC5/USBMIDI_1.c ****             /* Copy data using 16-bits arbiter data register. */
1894:Generated_Source\PSoC5/USBMIDI_1.c ****             uint16 i;
1895:Generated_Source\PSoC5/USBMIDI_1.c ****             for (i = 0u; i < (length >> 1u); ++i)
ARM GAS  C:\Users\214016~1\AppData\Local\Temp\ccCw4MGe.s 			page 50


1896:Generated_Source\PSoC5/USBMIDI_1.c ****             {
1897:Generated_Source\PSoC5/USBMIDI_1.c ****                 USBMIDI_1_ARB_EP16_BASE.arbEp[epNumber].rwDr16 = dataBuf[i];
1898:Generated_Source\PSoC5/USBMIDI_1.c ****             }
1899:Generated_Source\PSoC5/USBMIDI_1.c ****         }
1900:Generated_Source\PSoC5/USBMIDI_1.c **** 
1901:Generated_Source\PSoC5/USBMIDI_1.c ****         /* IN endpoint buffer is full - read to be read. */
1902:Generated_Source\PSoC5/USBMIDI_1.c ****         USBMIDI_1_EP[epNumber].apiEpState = USBMIDI_1_NO_EVENT_PENDING;
1903:Generated_Source\PSoC5/USBMIDI_1.c **** 
1904:Generated_Source\PSoC5/USBMIDI_1.c ****         /* Arm IN endpoint. */
1905:Generated_Source\PSoC5/USBMIDI_1.c ****         USBMIDI_1_SIE_EP_BASE.sieEp[epNumber].epCr0 = USBMIDI_1_EP[epNumber].epMode;
1906:Generated_Source\PSoC5/USBMIDI_1.c **** 
1907:Generated_Source\PSoC5/USBMIDI_1.c ****     #else
1908:Generated_Source\PSoC5/USBMIDI_1.c **** 
1909:Generated_Source\PSoC5/USBMIDI_1.c ****         #if (USBMIDI_1_EP_MANAGEMENT_DMA_MANUAL)
1910:Generated_Source\PSoC5/USBMIDI_1.c ****             /* IN endpoint buffer will be fully loaded by DMA shortly. */
1911:Generated_Source\PSoC5/USBMIDI_1.c ****             USBMIDI_1_EP[epNumber].apiEpState = USBMIDI_1_NO_EVENT_PENDING;
1912:Generated_Source\PSoC5/USBMIDI_1.c **** 
1913:Generated_Source\PSoC5/USBMIDI_1.c ****             if ((pData != NULL) && (length > 0u))
1914:Generated_Source\PSoC5/USBMIDI_1.c ****             {
1915:Generated_Source\PSoC5/USBMIDI_1.c ****                 uint32 channelNum = (uint32) USBMIDI_1_DmaChan[epNumber];
1916:Generated_Source\PSoC5/USBMIDI_1.c **** 
1917:Generated_Source\PSoC5/USBMIDI_1.c ****                 /* Disable DMA channel: start configuration. */
1918:Generated_Source\PSoC5/USBMIDI_1.c ****                 USBMIDI_1_CyDmaChDisable(channelNum);
1919:Generated_Source\PSoC5/USBMIDI_1.c **** 
1920:Generated_Source\PSoC5/USBMIDI_1.c ****                 /* Configure source and destination. */
1921:Generated_Source\PSoC5/USBMIDI_1.c ****                 USBMIDI_1_CyDmaSetSrcAddress(channelNum, USBMIDI_1_DMA_DESCR0, (void*) pData);
1922:Generated_Source\PSoC5/USBMIDI_1.c ****                 USBMIDI_1_CyDmaSetDstAddress(channelNum, USBMIDI_1_DMA_DESCR0, (void*) &USBMIDI_1_A
1923:Generated_Source\PSoC5/USBMIDI_1.c **** 
1924:Generated_Source\PSoC5/USBMIDI_1.c ****                 /* Configure DMA descriptor. */
1925:Generated_Source\PSoC5/USBMIDI_1.c ****                 length = (length >> 1u) - 1u;
1926:Generated_Source\PSoC5/USBMIDI_1.c ****                 USBMIDI_1_CyDmaSetConfiguration(channelNum, USBMIDI_1_DMA_DESCR0, USBMIDI_1_DMA_COM
1927:Generated_Source\PSoC5/USBMIDI_1.c ****                                                         CYDMA_HALFWORD | CYDMA_ELEMENT_WORD | CYDMA
1928:Generated_Source\PSoC5/USBMIDI_1.c **** 
1929:Generated_Source\PSoC5/USBMIDI_1.c ****                 /* Validate descriptor to execute on following DMA request. */
1930:Generated_Source\PSoC5/USBMIDI_1.c ****                 USBMIDI_1_CyDmaValidateDescriptor(channelNum, USBMIDI_1_DMA_DESCR0);
1931:Generated_Source\PSoC5/USBMIDI_1.c **** 
1932:Generated_Source\PSoC5/USBMIDI_1.c ****                 /* Enable DMA channel: configuration complete. */
1933:Generated_Source\PSoC5/USBMIDI_1.c ****                 USBMIDI_1_CyDmaChEnable(channelNum);
1934:Generated_Source\PSoC5/USBMIDI_1.c **** 
1935:Generated_Source\PSoC5/USBMIDI_1.c ****                 /* Generate DMA request. */
1936:Generated_Source\PSoC5/USBMIDI_1.c ****                 USBMIDI_1_ARB_EP_BASE.arbEp[epNumber].epCfg |=  (uint32)  USBMIDI_1_ARB_EPX_CFG_DMA
1937:Generated_Source\PSoC5/USBMIDI_1.c ****                 USBMIDI_1_ARB_EP_BASE.arbEp[epNumber].epCfg &=  (uint32) ~USBMIDI_1_ARB_EPX_CFG_DMA
1938:Generated_Source\PSoC5/USBMIDI_1.c **** 
1939:Generated_Source\PSoC5/USBMIDI_1.c ****                 /* IN endpoint will be armed in ARB_ISR(source: IN_BUF_FULL) after first DMA transf
1940:Generated_Source\PSoC5/USBMIDI_1.c ****             }
1941:Generated_Source\PSoC5/USBMIDI_1.c ****             else
1942:Generated_Source\PSoC5/USBMIDI_1.c ****             {
1943:Generated_Source\PSoC5/USBMIDI_1.c ****                 /* When zero-length packet: arm IN endpoint directly. */
1944:Generated_Source\PSoC5/USBMIDI_1.c ****                 USBMIDI_1_SIE_EP_BASE.sieEp[epNumber].epCr0 = USBMIDI_1_EP[epNumber].epMode;
1945:Generated_Source\PSoC5/USBMIDI_1.c ****             }
1946:Generated_Source\PSoC5/USBMIDI_1.c ****         #endif /* (USBMIDI_1_EP_MANAGEMENT_DMA_MANUAL) */
1947:Generated_Source\PSoC5/USBMIDI_1.c **** 
1948:Generated_Source\PSoC5/USBMIDI_1.c ****         #if (USBMIDI_1_EP_MANAGEMENT_DMA_AUTO)
1949:Generated_Source\PSoC5/USBMIDI_1.c ****             if (pData != NULL)
1950:Generated_Source\PSoC5/USBMIDI_1.c ****             {
1951:Generated_Source\PSoC5/USBMIDI_1.c ****                 uint32 channelNum = (uint32) USBMIDI_1_DmaChan[epNumber];
1952:Generated_Source\PSoC5/USBMIDI_1.c **** 
ARM GAS  C:\Users\214016~1\AppData\Local\Temp\ccCw4MGe.s 			page 51


1953:Generated_Source\PSoC5/USBMIDI_1.c ****                 /* Store address of buffer. */
1954:Generated_Source\PSoC5/USBMIDI_1.c ****                 USBMIDI_1_DmaEpBufferAddrBackup[epNumber] = (uint32) pData;
1955:Generated_Source\PSoC5/USBMIDI_1.c **** 
1956:Generated_Source\PSoC5/USBMIDI_1.c ****                 /* Disable DMA channel: start configuration. */
1957:Generated_Source\PSoC5/USBMIDI_1.c ****                 USBMIDI_1_CyDmaChDisable(channelNum);
1958:Generated_Source\PSoC5/USBMIDI_1.c **** 
1959:Generated_Source\PSoC5/USBMIDI_1.c ****                 /* Set destination address. */
1960:Generated_Source\PSoC5/USBMIDI_1.c ****                 USBMIDI_1_CyDmaSetDstAddress(channelNum, USBMIDI_1_DMA_DESCR0, (void*) &USBMIDI_1_A
1961:Generated_Source\PSoC5/USBMIDI_1.c ****                 USBMIDI_1_CyDmaSetDstAddress(channelNum, USBMIDI_1_DMA_DESCR1, (void*) &USBMIDI_1_A
1962:Generated_Source\PSoC5/USBMIDI_1.c **** 
1963:Generated_Source\PSoC5/USBMIDI_1.c ****                 /* Configure DMA descriptor. */
1964:Generated_Source\PSoC5/USBMIDI_1.c ****                 USBMIDI_1_CyDmaSetConfiguration(channelNum, USBMIDI_1_DMA_DESCR0, USBMIDI_1_DMA_COM
1965:Generated_Source\PSoC5/USBMIDI_1.c ****                                                         CYDMA_HALFWORD | CYDMA_ELEMENT_WORD | CYDMA
1966:Generated_Source\PSoC5/USBMIDI_1.c **** 
1967:Generated_Source\PSoC5/USBMIDI_1.c ****                 /* Configure DMA descriptor. */
1968:Generated_Source\PSoC5/USBMIDI_1.c ****                 USBMIDI_1_CyDmaSetConfiguration(channelNum, USBMIDI_1_DMA_DESCR1, USBMIDI_1_DMA_COM
1969:Generated_Source\PSoC5/USBMIDI_1.c ****                                                         CYDMA_HALFWORD | CYDMA_ELEMENT_WORD | CYDMA
1970:Generated_Source\PSoC5/USBMIDI_1.c **** 
1971:Generated_Source\PSoC5/USBMIDI_1.c ****                 /* Enable interrupt from DMA channel. */
1972:Generated_Source\PSoC5/USBMIDI_1.c ****                 USBMIDI_1_CyDmaSetInterruptMask(channelNum);
1973:Generated_Source\PSoC5/USBMIDI_1.c **** 
1974:Generated_Source\PSoC5/USBMIDI_1.c ****                 /* Enable DMA channel: configuration complete. */
1975:Generated_Source\PSoC5/USBMIDI_1.c ****                 USBMIDI_1_CyDmaChEnable(channelNum);
1976:Generated_Source\PSoC5/USBMIDI_1.c ****             }
1977:Generated_Source\PSoC5/USBMIDI_1.c ****             else
1978:Generated_Source\PSoC5/USBMIDI_1.c ****             {
1979:Generated_Source\PSoC5/USBMIDI_1.c ****                 /* IN endpoint buffer (32 bytes) will shortly be preloaded by DMA. */
1980:Generated_Source\PSoC5/USBMIDI_1.c ****                 USBMIDI_1_EP[epNumber].apiEpState = USBMIDI_1_NO_EVENT_PENDING;
1981:Generated_Source\PSoC5/USBMIDI_1.c **** 
1982:Generated_Source\PSoC5/USBMIDI_1.c ****                 if (length > 0u)
1983:Generated_Source\PSoC5/USBMIDI_1.c ****                 {
1984:Generated_Source\PSoC5/USBMIDI_1.c ****                     uint32 lengthDescr0, lengthDescr1;
1985:Generated_Source\PSoC5/USBMIDI_1.c ****                     uint32 channelNum = (uint32) USBMIDI_1_DmaChan[epNumber];
1986:Generated_Source\PSoC5/USBMIDI_1.c **** 
1987:Generated_Source\PSoC5/USBMIDI_1.c ****                     /* Get number of full bursts. */
1988:Generated_Source\PSoC5/USBMIDI_1.c ****                     USBMIDI_1_DmaEpBurstCnt[epNumber] = (uint8) (length / USBMIDI_1_DMA_BYTES_PER_B
1989:Generated_Source\PSoC5/USBMIDI_1.c **** 
1990:Generated_Source\PSoC5/USBMIDI_1.c ****                     /* Get number of elements in the last burst. */
1991:Generated_Source\PSoC5/USBMIDI_1.c ****                     USBMIDI_1_DmaEpLastBurstEl[epNumber] = (uint8) (length % USBMIDI_1_DMA_BYTES_PE
1992:Generated_Source\PSoC5/USBMIDI_1.c **** 
1993:Generated_Source\PSoC5/USBMIDI_1.c ****                     /* Get total number of bursts. */
1994:Generated_Source\PSoC5/USBMIDI_1.c ****                     USBMIDI_1_DmaEpBurstCnt[epNumber] += (0u != USBMIDI_1_DmaEpLastBurstEl[epNumber
1995:Generated_Source\PSoC5/USBMIDI_1.c **** 
1996:Generated_Source\PSoC5/USBMIDI_1.c ****                     /* Adjust number of data elements transferred in last burst. */
1997:Generated_Source\PSoC5/USBMIDI_1.c ****                     USBMIDI_1_DmaEpLastBurstEl[epNumber] = (0u != USBMIDI_1_DmaEpLastBurstEl[epNumb
1998:Generated_Source\PSoC5/USBMIDI_1.c ****                                                                           ((USBMIDI_1_DmaEpLastBurs
1999:Generated_Source\PSoC5/USBMIDI_1.c ****                                                                            (USBMIDI_1_DMA_HALFWORDS
2000:Generated_Source\PSoC5/USBMIDI_1.c **** 
2001:Generated_Source\PSoC5/USBMIDI_1.c ****                     /* Get number of data elements to transfer for descriptor 0 and 1. */
2002:Generated_Source\PSoC5/USBMIDI_1.c ****                     lengthDescr0 = (1u == USBMIDI_1_DmaEpBurstCnt[epNumber]) ? USBMIDI_1_DmaEpLastB
2003:Generated_Source\PSoC5/USBMIDI_1.c ****                     lengthDescr1 = (2u == USBMIDI_1_DmaEpBurstCnt[epNumber]) ? USBMIDI_1_DmaEpLastB
2004:Generated_Source\PSoC5/USBMIDI_1.c **** 
2005:Generated_Source\PSoC5/USBMIDI_1.c ****                     /* Mark which descriptor is last one to execute. */
2006:Generated_Source\PSoC5/USBMIDI_1.c ****                     USBMIDI_1_DmaEpLastBurstEl[epNumber] |= (0u != (USBMIDI_1_DmaEpBurstCnt[epNumbe
2007:Generated_Source\PSoC5/USBMIDI_1.c ****                                                                             USBMIDI_1_DMA_DESCR0_MA
2008:Generated_Source\PSoC5/USBMIDI_1.c **** 
2009:Generated_Source\PSoC5/USBMIDI_1.c ****                     /* Restore DMA settings for current transfer. */
ARM GAS  C:\Users\214016~1\AppData\Local\Temp\ccCw4MGe.s 			page 52


2010:Generated_Source\PSoC5/USBMIDI_1.c ****                     USBMIDI_1_CyDmaChDisable(channelNum);
2011:Generated_Source\PSoC5/USBMIDI_1.c **** 
2012:Generated_Source\PSoC5/USBMIDI_1.c ****                     /* Restore destination address for input endpoint. */
2013:Generated_Source\PSoC5/USBMIDI_1.c ****                     USBMIDI_1_CyDmaSetSrcAddress(channelNum, USBMIDI_1_DMA_DESCR0, (void*) ((uint32
2014:Generated_Source\PSoC5/USBMIDI_1.c ****                     USBMIDI_1_CyDmaSetSrcAddress(channelNum, USBMIDI_1_DMA_DESCR1, (void*) ((uint32
2015:Generated_Source\PSoC5/USBMIDI_1.c ****                                                                                                    
2016:Generated_Source\PSoC5/USBMIDI_1.c **** 
2017:Generated_Source\PSoC5/USBMIDI_1.c ****                     /* Set number of elements to transfer. */
2018:Generated_Source\PSoC5/USBMIDI_1.c ****                     USBMIDI_1_CyDmaSetNumDataElements(channelNum, USBMIDI_1_DMA_DESCR0, lengthDescr
2019:Generated_Source\PSoC5/USBMIDI_1.c ****                     USBMIDI_1_CyDmaSetNumDataElements(channelNum, USBMIDI_1_DMA_DESCR1, lengthDescr
2020:Generated_Source\PSoC5/USBMIDI_1.c **** 
2021:Generated_Source\PSoC5/USBMIDI_1.c ****                     /* Validate descriptor 0 and command to start with it. */
2022:Generated_Source\PSoC5/USBMIDI_1.c ****                     USBMIDI_1_CyDmaValidateDescriptor(channelNum, USBMIDI_1_DMA_DESCR0);
2023:Generated_Source\PSoC5/USBMIDI_1.c ****                     USBMIDI_1_CyDmaSetDescriptor0Next(channelNum);
2024:Generated_Source\PSoC5/USBMIDI_1.c **** 
2025:Generated_Source\PSoC5/USBMIDI_1.c ****                     /* Validate descriptor 1. */
2026:Generated_Source\PSoC5/USBMIDI_1.c ****                     if (USBMIDI_1_DmaEpBurstCnt[epNumber] > 1u)
2027:Generated_Source\PSoC5/USBMIDI_1.c ****                     {
2028:Generated_Source\PSoC5/USBMIDI_1.c ****                         USBMIDI_1_CyDmaValidateDescriptor(channelNum, USBMIDI_1_DMA_DESCR1);
2029:Generated_Source\PSoC5/USBMIDI_1.c ****                     }
2030:Generated_Source\PSoC5/USBMIDI_1.c **** 
2031:Generated_Source\PSoC5/USBMIDI_1.c ****                     /* Adjust burst counter taking to account: 2 valid descriptors and interrupt tr
2032:Generated_Source\PSoC5/USBMIDI_1.c ****                     USBMIDI_1_DmaEpBurstCnt[epNumber] = USBMIDI_1_DMA_GET_BURST_CNT(USBMIDI_1_DmaEp
2033:Generated_Source\PSoC5/USBMIDI_1.c **** 
2034:Generated_Source\PSoC5/USBMIDI_1.c ****                     /* Enable DMA channel: configuration complete. */
2035:Generated_Source\PSoC5/USBMIDI_1.c ****                     USBMIDI_1_CyDmaChEnable(channelNum);
2036:Generated_Source\PSoC5/USBMIDI_1.c **** 
2037:Generated_Source\PSoC5/USBMIDI_1.c ****                 #if !defined (USBMIDI_1_MANUAL_IN_EP_ARM)
2038:Generated_Source\PSoC5/USBMIDI_1.c ****                     /* Set IN data ready to generate DMA request to load data into endpoint buffer.
2039:Generated_Source\PSoC5/USBMIDI_1.c ****                     USBMIDI_1_ARB_EP_BASE.arbEp[epNumber].epCfg |= USBMIDI_1_ARB_EPX_CFG_IN_DATA_RD
2040:Generated_Source\PSoC5/USBMIDI_1.c ****                 #endif  /* (USBMIDI_1_MANUAL_IN_EP_ARM) */
2041:Generated_Source\PSoC5/USBMIDI_1.c **** 
2042:Generated_Source\PSoC5/USBMIDI_1.c ****                     /* IN endpoint will be armed in ARB_ISR(source: IN_BUF_FULL) after first DMA tr
2043:Generated_Source\PSoC5/USBMIDI_1.c ****                 }
2044:Generated_Source\PSoC5/USBMIDI_1.c ****                 else
2045:Generated_Source\PSoC5/USBMIDI_1.c ****                 {
2046:Generated_Source\PSoC5/USBMIDI_1.c ****                     /* When zero-length packet: arm IN endpoint directly. */
2047:Generated_Source\PSoC5/USBMIDI_1.c ****                     USBMIDI_1_SIE_EP_BASE.sieEp[epNumber].epCr0 = USBMIDI_1_EP[epNumber].epMode;
2048:Generated_Source\PSoC5/USBMIDI_1.c ****                 }
2049:Generated_Source\PSoC5/USBMIDI_1.c ****             }
2050:Generated_Source\PSoC5/USBMIDI_1.c ****         #endif /* (USBMIDI_1_EP_MANAGEMENT_DMA_AUTO) */
2051:Generated_Source\PSoC5/USBMIDI_1.c ****     #endif /* (USBMIDI_1_EP_MANAGEMENT_MANUAL) */
2052:Generated_Source\PSoC5/USBMIDI_1.c ****     }
2053:Generated_Source\PSoC5/USBMIDI_1.c **** }
2054:Generated_Source\PSoC5/USBMIDI_1.c **** 
2055:Generated_Source\PSoC5/USBMIDI_1.c **** 
2056:Generated_Source\PSoC5/USBMIDI_1.c **** /*******************************************************************************
2057:Generated_Source\PSoC5/USBMIDI_1.c **** * Function Name: USBMIDI_1_ReadOutEP16
2058:Generated_Source\PSoC5/USBMIDI_1.c **** ****************************************************************************//**
2059:Generated_Source\PSoC5/USBMIDI_1.c **** *
2060:Generated_Source\PSoC5/USBMIDI_1.c **** *   This function performs different functionality depending on the Component’s
2061:Generated_Source\PSoC5/USBMIDI_1.c **** *   configured Endpoint Buffer Management. This parameter is defined in the
2062:Generated_Source\PSoC5/USBMIDI_1.c **** *   Descriptor Root in Component Configure window.
2063:Generated_Source\PSoC5/USBMIDI_1.c **** *
2064:Generated_Source\PSoC5/USBMIDI_1.c **** *   *Manual (Static/Dynamic Allocation):*
2065:Generated_Source\PSoC5/USBMIDI_1.c **** *   This function moves the specified number of bytes from endpoint buffer to
2066:Generated_Source\PSoC5/USBMIDI_1.c **** *   system RAM. The number of bytes actually transferred from endpoint buffer to
ARM GAS  C:\Users\214016~1\AppData\Local\Temp\ccCw4MGe.s 			page 53


2067:Generated_Source\PSoC5/USBMIDI_1.c **** *   system RAM is the lesser of the actual number of bytes sent by the host or
2068:Generated_Source\PSoC5/USBMIDI_1.c **** *   the number of bytes requested by the length parameter.
2069:Generated_Source\PSoC5/USBMIDI_1.c **** *
2070:Generated_Source\PSoC5/USBMIDI_1.c **** *   *DMA with Manual Buffer Management:*
2071:Generated_Source\PSoC5/USBMIDI_1.c **** *   Configure DMA to transfer data from endpoint buffer to system RAM. Generate
2072:Generated_Source\PSoC5/USBMIDI_1.c **** *   a DMA request. The firmware must wait until the DMA completes the data
2073:Generated_Source\PSoC5/USBMIDI_1.c **** *   transfer after calling the USBMIDI_1_ReadOutEP() API. For example,
2074:Generated_Source\PSoC5/USBMIDI_1.c **** *   by checking EPstate:
2075:Generated_Source\PSoC5/USBMIDI_1.c **** *
2076:Generated_Source\PSoC5/USBMIDI_1.c **** *   \snippet /USBFS_sut_02.cydsn/main.c checking EPstatey
2077:Generated_Source\PSoC5/USBMIDI_1.c **** *
2078:Generated_Source\PSoC5/USBMIDI_1.c **** *   The USBFS_EnableOutEP() has to be called to allow host to write data into
2079:Generated_Source\PSoC5/USBMIDI_1.c **** *   the endpoint buffer after DMA has completed transfer data from OUT endpoint
2080:Generated_Source\PSoC5/USBMIDI_1.c **** *   buffer to SRAM.
2081:Generated_Source\PSoC5/USBMIDI_1.c **** *
2082:Generated_Source\PSoC5/USBMIDI_1.c **** *   *DMA with Automatic Buffer Management:*
2083:Generated_Source\PSoC5/USBMIDI_1.c **** *   Configure DMA. This is required only once and automatically generates DMA
2084:Generated_Source\PSoC5/USBMIDI_1.c **** *   requests as data arrives
2085:Generated_Source\PSoC5/USBMIDI_1.c **** *
2086:Generated_Source\PSoC5/USBMIDI_1.c **** *  \param epNumber: Contains the data endpoint number.
2087:Generated_Source\PSoC5/USBMIDI_1.c **** *         Valid values are between 1 and 8.
2088:Generated_Source\PSoC5/USBMIDI_1.c **** *  \param pData: A pointer to a data array into which the data for the endpoint
2089:Generated_Source\PSoC5/USBMIDI_1.c **** *         space is copied. It shall be ensured that this pointer address is
2090:Generated_Source\PSoC5/USBMIDI_1.c **** *         even to ensure the 16-bit transfer is aligned to even address. Else,
2091:Generated_Source\PSoC5/USBMIDI_1.c **** *         a hard fault condition can occur.
2092:Generated_Source\PSoC5/USBMIDI_1.c **** *  \param length: The number of bytes to transfer from the USB Out endpoint and
2093:Generated_Source\PSoC5/USBMIDI_1.c **** *         loads it into data array. Valid values are between 0 and 1023. The
2094:Generated_Source\PSoC5/USBMIDI_1.c **** *         function moves fewer than the requested number of bytes if the host
2095:Generated_Source\PSoC5/USBMIDI_1.c **** *         sends fewer bytes than requested.
2096:Generated_Source\PSoC5/USBMIDI_1.c **** *
2097:Generated_Source\PSoC5/USBMIDI_1.c **** * \return
2098:Generated_Source\PSoC5/USBMIDI_1.c **** *  Number of bytes received, 0 for an invalid endpoint.
2099:Generated_Source\PSoC5/USBMIDI_1.c **** *
2100:Generated_Source\PSoC5/USBMIDI_1.c **** * \reentrant
2101:Generated_Source\PSoC5/USBMIDI_1.c **** *  No.
2102:Generated_Source\PSoC5/USBMIDI_1.c **** *
2103:Generated_Source\PSoC5/USBMIDI_1.c **** *******************************************************************************/
2104:Generated_Source\PSoC5/USBMIDI_1.c **** uint16 USBMIDI_1_ReadOutEP16(uint8 epNumber, uint8 pData[], uint16 length)
2105:Generated_Source\PSoC5/USBMIDI_1.c **** {
2106:Generated_Source\PSoC5/USBMIDI_1.c ****     uint32 adjLength;
2107:Generated_Source\PSoC5/USBMIDI_1.c **** 
2108:Generated_Source\PSoC5/USBMIDI_1.c ****     /* Check array alignment on half-word boundary */
2109:Generated_Source\PSoC5/USBMIDI_1.c ****     CYASSERT(0u == (((uint32) pData) & 0x01u));
2110:Generated_Source\PSoC5/USBMIDI_1.c **** 
2111:Generated_Source\PSoC5/USBMIDI_1.c ****     if ((pData != NULL) && (epNumber > USBMIDI_1_EP0) && (epNumber < USBMIDI_1_MAX_EP))
2112:Generated_Source\PSoC5/USBMIDI_1.c ****     {
2113:Generated_Source\PSoC5/USBMIDI_1.c ****     #if (!USBMIDI_1_EP_MANAGEMENT_DMA_AUTO)
2114:Generated_Source\PSoC5/USBMIDI_1.c ****         /* Adjust requested length to available data. */
2115:Generated_Source\PSoC5/USBMIDI_1.c ****         length = (length > USBMIDI_1_GetEPCount(epNumber)) ? USBMIDI_1_GetEPCount(epNumber) : lengt
2116:Generated_Source\PSoC5/USBMIDI_1.c ****     #endif /* (!USBMIDI_1_EP_MANAGEMENT_DMA_AUTO) */
2117:Generated_Source\PSoC5/USBMIDI_1.c **** 
2118:Generated_Source\PSoC5/USBMIDI_1.c ****     /* Adjust requested length: 2 bytes are handled at one data register access. */
2119:Generated_Source\PSoC5/USBMIDI_1.c ****     adjLength =  length + ((uint32)length & 1u);
2120:Generated_Source\PSoC5/USBMIDI_1.c **** 
2121:Generated_Source\PSoC5/USBMIDI_1.c ****     #if (USBMIDI_1_EP_MANAGEMENT_MANUAL)
2122:Generated_Source\PSoC5/USBMIDI_1.c ****         {
2123:Generated_Source\PSoC5/USBMIDI_1.c ****             /* Convert uint8 array to uint16. */
ARM GAS  C:\Users\214016~1\AppData\Local\Temp\ccCw4MGe.s 			page 54


2124:Generated_Source\PSoC5/USBMIDI_1.c ****             uint16 *dataBuf = (uint16 *) pData;
2125:Generated_Source\PSoC5/USBMIDI_1.c **** 
2126:Generated_Source\PSoC5/USBMIDI_1.c ****             /* Copy data using 16-bits arbiter data register. */
2127:Generated_Source\PSoC5/USBMIDI_1.c ****             uint16 i;
2128:Generated_Source\PSoC5/USBMIDI_1.c ****             for (i = 0u; i < (adjLength >> 1u); ++i)
2129:Generated_Source\PSoC5/USBMIDI_1.c ****             {
2130:Generated_Source\PSoC5/USBMIDI_1.c ****                 dataBuf[i] = (uint16) USBMIDI_1_ARB_EP16_BASE.arbEp[epNumber].rwDr16;
2131:Generated_Source\PSoC5/USBMIDI_1.c ****             }
2132:Generated_Source\PSoC5/USBMIDI_1.c ****         }
2133:Generated_Source\PSoC5/USBMIDI_1.c **** 
2134:Generated_Source\PSoC5/USBMIDI_1.c ****         /* Arm OUT endpoint after data has been read from endpoint buffer. */
2135:Generated_Source\PSoC5/USBMIDI_1.c ****         USBMIDI_1_EnableOutEP(epNumber);
2136:Generated_Source\PSoC5/USBMIDI_1.c ****     #else
2137:Generated_Source\PSoC5/USBMIDI_1.c **** 
2138:Generated_Source\PSoC5/USBMIDI_1.c ****         #if (USBMIDI_1_EP_MANAGEMENT_DMA_MANUAL)
2139:Generated_Source\PSoC5/USBMIDI_1.c ****         {
2140:Generated_Source\PSoC5/USBMIDI_1.c ****             uint32 channelNum = (uint32) USBMIDI_1_DmaChan[epNumber];
2141:Generated_Source\PSoC5/USBMIDI_1.c **** 
2142:Generated_Source\PSoC5/USBMIDI_1.c ****             /* Disable DMA channel: start configuration. */
2143:Generated_Source\PSoC5/USBMIDI_1.c ****             USBMIDI_1_CyDmaChDisable(channelNum);
2144:Generated_Source\PSoC5/USBMIDI_1.c **** 
2145:Generated_Source\PSoC5/USBMIDI_1.c ****             /* Configure source and destination. */
2146:Generated_Source\PSoC5/USBMIDI_1.c ****             USBMIDI_1_CyDmaSetSrcAddress(channelNum, USBMIDI_1_DMA_DESCR0, (void*) &USBMIDI_1_ARB_E
2147:Generated_Source\PSoC5/USBMIDI_1.c ****             USBMIDI_1_CyDmaSetDstAddress(channelNum, USBMIDI_1_DMA_DESCR0, (void*) pData);
2148:Generated_Source\PSoC5/USBMIDI_1.c **** 
2149:Generated_Source\PSoC5/USBMIDI_1.c ****             /* Configure DMA descriptor. */
2150:Generated_Source\PSoC5/USBMIDI_1.c ****             USBMIDI_1_CyDmaSetConfiguration(channelNum, USBMIDI_1_DMA_DESCR0, USBMIDI_1_DMA_COMMON_
2151:Generated_Source\PSoC5/USBMIDI_1.c ****                                                     CYDMA_HALFWORD | CYDMA_WORD_ELEMENT | CYDMA_INC
2152:Generated_Source\PSoC5/USBMIDI_1.c **** 
2153:Generated_Source\PSoC5/USBMIDI_1.c ****             /* Validate descriptor to execute on following DMA request. */
2154:Generated_Source\PSoC5/USBMIDI_1.c ****             USBMIDI_1_CyDmaValidateDescriptor(channelNum, USBMIDI_1_DMA_DESCR0);
2155:Generated_Source\PSoC5/USBMIDI_1.c **** 
2156:Generated_Source\PSoC5/USBMIDI_1.c ****             /* Enable DMA channel: configuration complete. */
2157:Generated_Source\PSoC5/USBMIDI_1.c ****             USBMIDI_1_CyDmaChEnable(channelNum);
2158:Generated_Source\PSoC5/USBMIDI_1.c **** 
2159:Generated_Source\PSoC5/USBMIDI_1.c ****             /* Generate DMA request. */
2160:Generated_Source\PSoC5/USBMIDI_1.c ****             USBMIDI_1_ARB_EP_BASE.arbEp[epNumber].epCfg |=  (uint32)  USBMIDI_1_ARB_EPX_CFG_DMA_REQ
2161:Generated_Source\PSoC5/USBMIDI_1.c ****             USBMIDI_1_ARB_EP_BASE.arbEp[epNumber].epCfg &=  (uint32) ~USBMIDI_1_ARB_EPX_CFG_DMA_REQ
2162:Generated_Source\PSoC5/USBMIDI_1.c **** 
2163:Generated_Source\PSoC5/USBMIDI_1.c ****             /* OUT endpoint has to be armed again by user when DMA transfers have been completed.
2164:Generated_Source\PSoC5/USBMIDI_1.c ****             * NO_EVENT_PENDING: notifies that data has been copied from endpoint buffer.
2165:Generated_Source\PSoC5/USBMIDI_1.c ****             */
2166:Generated_Source\PSoC5/USBMIDI_1.c ****         }
2167:Generated_Source\PSoC5/USBMIDI_1.c ****         #endif /* (USBMIDI_1_EP_MANAGEMENT_DMA_MANUAL) */
2168:Generated_Source\PSoC5/USBMIDI_1.c **** 
2169:Generated_Source\PSoC5/USBMIDI_1.c ****         #if (USBMIDI_1_EP_MANAGEMENT_DMA_AUTO)
2170:Generated_Source\PSoC5/USBMIDI_1.c ****         {
2171:Generated_Source\PSoC5/USBMIDI_1.c ****             uint32 lengthDescr0, lengthDescr1;
2172:Generated_Source\PSoC5/USBMIDI_1.c ****             uint32 channelNum = (uint32) USBMIDI_1_DmaChan[epNumber];
2173:Generated_Source\PSoC5/USBMIDI_1.c **** 
2174:Generated_Source\PSoC5/USBMIDI_1.c ****             /* Get number of full bursts. */
2175:Generated_Source\PSoC5/USBMIDI_1.c ****             USBMIDI_1_DmaEpBurstCnt[epNumber] = (uint8) (adjLength / USBMIDI_1_DMA_BYTES_PER_BURST)
2176:Generated_Source\PSoC5/USBMIDI_1.c **** 
2177:Generated_Source\PSoC5/USBMIDI_1.c ****             /* Get number of elements in last burst. */
2178:Generated_Source\PSoC5/USBMIDI_1.c ****             USBMIDI_1_DmaEpLastBurstEl[epNumber] = (uint8) (adjLength % USBMIDI_1_DMA_BYTES_PER_BUR
2179:Generated_Source\PSoC5/USBMIDI_1.c **** 
2180:Generated_Source\PSoC5/USBMIDI_1.c ****             /* Get total number of bursts. */
ARM GAS  C:\Users\214016~1\AppData\Local\Temp\ccCw4MGe.s 			page 55


2181:Generated_Source\PSoC5/USBMIDI_1.c ****             USBMIDI_1_DmaEpBurstCnt[epNumber] += (0u != USBMIDI_1_DmaEpLastBurstEl[epNumber]) ? 1u 
2182:Generated_Source\PSoC5/USBMIDI_1.c **** 
2183:Generated_Source\PSoC5/USBMIDI_1.c ****             /* Adjust number of data elements transferred in last burst. */
2184:Generated_Source\PSoC5/USBMIDI_1.c ****             USBMIDI_1_DmaEpLastBurstEl[epNumber] = (0u != USBMIDI_1_DmaEpLastBurstEl[epNumber]) ?
2185:Generated_Source\PSoC5/USBMIDI_1.c ****                                                                   ((USBMIDI_1_DmaEpLastBurstEl[epNu
2186:Generated_Source\PSoC5/USBMIDI_1.c ****                                                                    (USBMIDI_1_DMA_HALFWORDS_PER_BUR
2187:Generated_Source\PSoC5/USBMIDI_1.c **** 
2188:Generated_Source\PSoC5/USBMIDI_1.c ****             /* Get number of data elements to transfer for descriptor 0 and 1. */
2189:Generated_Source\PSoC5/USBMIDI_1.c ****             lengthDescr0 = (1u == USBMIDI_1_DmaEpBurstCnt[epNumber]) ? USBMIDI_1_DmaEpLastBurstEl[e
2190:Generated_Source\PSoC5/USBMIDI_1.c ****             lengthDescr1 = (2u == USBMIDI_1_DmaEpBurstCnt[epNumber]) ? USBMIDI_1_DmaEpLastBurstEl[e
2191:Generated_Source\PSoC5/USBMIDI_1.c **** 
2192:Generated_Source\PSoC5/USBMIDI_1.c ****             /* Mark last descriptor to be executed. */
2193:Generated_Source\PSoC5/USBMIDI_1.c ****             USBMIDI_1_DmaEpLastBurstEl[epNumber] |= (0u != (USBMIDI_1_DmaEpBurstCnt[epNumber] & 0x1
2194:Generated_Source\PSoC5/USBMIDI_1.c ****                                                                     USBMIDI_1_DMA_DESCR0_MASK : USB
2195:Generated_Source\PSoC5/USBMIDI_1.c **** 
2196:Generated_Source\PSoC5/USBMIDI_1.c ****             /* Mark if revert number of data elements in descriptor after transfer completion. */
2197:Generated_Source\PSoC5/USBMIDI_1.c ****             USBMIDI_1_DmaEpLastBurstEl[epNumber] |= (USBMIDI_1_DmaEpBurstCnt[epNumber] > 2u) ? USBM
2198:Generated_Source\PSoC5/USBMIDI_1.c **** 
2199:Generated_Source\PSoC5/USBMIDI_1.c ****             /* Mark that 16-bits access to data register is performed. */
2200:Generated_Source\PSoC5/USBMIDI_1.c ****             USBMIDI_1_DmaEpLastBurstEl[epNumber] |= USBMIDI_1_DMA_DESCR_16BITS;
2201:Generated_Source\PSoC5/USBMIDI_1.c **** 
2202:Generated_Source\PSoC5/USBMIDI_1.c ****             /* Store address of buffer and burst counter for endpoint. */
2203:Generated_Source\PSoC5/USBMIDI_1.c ****             USBMIDI_1_DmaEpBufferAddrBackup[epNumber] = (uint32) pData;
2204:Generated_Source\PSoC5/USBMIDI_1.c ****             USBMIDI_1_DmaEpBurstCntBackup[epNumber]   = USBMIDI_1_DmaEpBurstCnt[epNumber];
2205:Generated_Source\PSoC5/USBMIDI_1.c **** 
2206:Generated_Source\PSoC5/USBMIDI_1.c ****             /* Adjust burst counter taking to account: 2 valid descriptors and interrupt trigger af
2207:Generated_Source\PSoC5/USBMIDI_1.c ****             USBMIDI_1_DmaEpBurstCnt[epNumber] = USBMIDI_1_DMA_GET_BURST_CNT(USBMIDI_1_DmaEpBurstCnt
2208:Generated_Source\PSoC5/USBMIDI_1.c **** 
2209:Generated_Source\PSoC5/USBMIDI_1.c ****             /* Disable DMA channel: start configuration. */
2210:Generated_Source\PSoC5/USBMIDI_1.c ****             USBMIDI_1_CyDmaChDisable(channelNum);
2211:Generated_Source\PSoC5/USBMIDI_1.c **** 
2212:Generated_Source\PSoC5/USBMIDI_1.c ****             /* Set destination address. */
2213:Generated_Source\PSoC5/USBMIDI_1.c ****             USBMIDI_1_CyDmaSetSrcAddress(channelNum, USBMIDI_1_DMA_DESCR0, (void*) &USBMIDI_1_ARB_E
2214:Generated_Source\PSoC5/USBMIDI_1.c ****             USBMIDI_1_CyDmaSetSrcAddress(channelNum, USBMIDI_1_DMA_DESCR1, (void*) &USBMIDI_1_ARB_E
2215:Generated_Source\PSoC5/USBMIDI_1.c **** 
2216:Generated_Source\PSoC5/USBMIDI_1.c ****             USBMIDI_1_CyDmaSetDstAddress(channelNum, USBMIDI_1_DMA_DESCR0, (void*) ((uint32) pData)
2217:Generated_Source\PSoC5/USBMIDI_1.c ****             USBMIDI_1_CyDmaSetDstAddress(channelNum, USBMIDI_1_DMA_DESCR1, (void*) ((uint32) pData 
2218:Generated_Source\PSoC5/USBMIDI_1.c **** 
2219:Generated_Source\PSoC5/USBMIDI_1.c ****             /* Configure DMA descriptor 0. */
2220:Generated_Source\PSoC5/USBMIDI_1.c ****             USBMIDI_1_CyDmaSetConfiguration(channelNum, USBMIDI_1_DMA_DESCR0, USBMIDI_1_DMA_COMMON_
2221:Generated_Source\PSoC5/USBMIDI_1.c ****                                                     CYDMA_HALFWORD | CYDMA_WORD_ELEMENT | CYDMA_INC
2222:Generated_Source\PSoC5/USBMIDI_1.c **** 
2223:Generated_Source\PSoC5/USBMIDI_1.c ****             /* Configure DMA descriptor 1. */
2224:Generated_Source\PSoC5/USBMIDI_1.c ****             USBMIDI_1_CyDmaSetConfiguration(channelNum, USBMIDI_1_DMA_DESCR1, USBMIDI_1_DMA_COMMON_
2225:Generated_Source\PSoC5/USBMIDI_1.c ****                                                     CYDMA_HALFWORD | CYDMA_WORD_ELEMENT | CYDMA_INC
2226:Generated_Source\PSoC5/USBMIDI_1.c **** 
2227:Generated_Source\PSoC5/USBMIDI_1.c ****             /* Enable interrupt from DMA channel. */
2228:Generated_Source\PSoC5/USBMIDI_1.c ****             USBMIDI_1_CyDmaSetInterruptMask(channelNum);
2229:Generated_Source\PSoC5/USBMIDI_1.c **** 
2230:Generated_Source\PSoC5/USBMIDI_1.c ****             /* Validate DMA descriptor 0 and 1. */
2231:Generated_Source\PSoC5/USBMIDI_1.c ****             USBMIDI_1_CyDmaValidateDescriptor(channelNum, USBMIDI_1_DMA_DESCR0);
2232:Generated_Source\PSoC5/USBMIDI_1.c ****             
2233:Generated_Source\PSoC5/USBMIDI_1.c ****             if (USBMIDI_1_DmaEpBurstCntBackup[epNumber] > 1u)
2234:Generated_Source\PSoC5/USBMIDI_1.c ****             {
2235:Generated_Source\PSoC5/USBMIDI_1.c ****                 USBMIDI_1_CyDmaValidateDescriptor(channelNum, USBMIDI_1_DMA_DESCR1);
2236:Generated_Source\PSoC5/USBMIDI_1.c ****             }
2237:Generated_Source\PSoC5/USBMIDI_1.c **** 
ARM GAS  C:\Users\214016~1\AppData\Local\Temp\ccCw4MGe.s 			page 56


2238:Generated_Source\PSoC5/USBMIDI_1.c ****             /* Enable DMA channel: configuration complete. */
2239:Generated_Source\PSoC5/USBMIDI_1.c ****             USBMIDI_1_CyDmaChEnable(channelNum);
2240:Generated_Source\PSoC5/USBMIDI_1.c **** 
2241:Generated_Source\PSoC5/USBMIDI_1.c ****             /* OUT endpoint has to be armed again by user when DMA transfers have been completed.
2242:Generated_Source\PSoC5/USBMIDI_1.c ****             * NO_EVENT_PENDING: notifies that data has been copied from endpoint buffer.
2243:Generated_Source\PSoC5/USBMIDI_1.c ****             */
2244:Generated_Source\PSoC5/USBMIDI_1.c ****         }
2245:Generated_Source\PSoC5/USBMIDI_1.c ****         #endif /* (USBMIDI_1_EP_MANAGEMENT_DMA_AUTO) */
2246:Generated_Source\PSoC5/USBMIDI_1.c ****     #endif /* (USBMIDI_1_EP_MANAGEMENT_MANUAL) */
2247:Generated_Source\PSoC5/USBMIDI_1.c ****     }
2248:Generated_Source\PSoC5/USBMIDI_1.c ****     else
2249:Generated_Source\PSoC5/USBMIDI_1.c ****     {
2250:Generated_Source\PSoC5/USBMIDI_1.c ****         length = 0u;
2251:Generated_Source\PSoC5/USBMIDI_1.c ****     }
2252:Generated_Source\PSoC5/USBMIDI_1.c **** 
2253:Generated_Source\PSoC5/USBMIDI_1.c ****     return (length);
2254:Generated_Source\PSoC5/USBMIDI_1.c **** }
2255:Generated_Source\PSoC5/USBMIDI_1.c **** #endif /* (USBMIDI_1_16BITS_EP_ACCESS_ENABLE) */
2256:Generated_Source\PSoC5/USBMIDI_1.c **** 
2257:Generated_Source\PSoC5/USBMIDI_1.c **** 
2258:Generated_Source\PSoC5/USBMIDI_1.c **** /*******************************************************************************
2259:Generated_Source\PSoC5/USBMIDI_1.c **** * Function Name: USBMIDI_1_EnableOutEP
2260:Generated_Source\PSoC5/USBMIDI_1.c **** ****************************************************************************//**
2261:Generated_Source\PSoC5/USBMIDI_1.c **** *
2262:Generated_Source\PSoC5/USBMIDI_1.c **** *  This function enables the specified endpoint for OUT transfers. Do not call
2263:Generated_Source\PSoC5/USBMIDI_1.c **** *  this function for IN endpoints.
2264:Generated_Source\PSoC5/USBMIDI_1.c **** *
2265:Generated_Source\PSoC5/USBMIDI_1.c **** *  \param epNumber: Contains the data endpoint number. Valid values are between
2266:Generated_Source\PSoC5/USBMIDI_1.c **** *  1 and 8.
2267:Generated_Source\PSoC5/USBMIDI_1.c **** *
2268:Generated_Source\PSoC5/USBMIDI_1.c **** * \globalvars
2269:Generated_Source\PSoC5/USBMIDI_1.c **** *
2270:Generated_Source\PSoC5/USBMIDI_1.c **** *  \ref USBMIDI_1_EP[epNumber].apiEpState - set to NO_EVENT_PENDING
2271:Generated_Source\PSoC5/USBMIDI_1.c **** *
2272:Generated_Source\PSoC5/USBMIDI_1.c **** * \reentrant
2273:Generated_Source\PSoC5/USBMIDI_1.c **** *  No.
2274:Generated_Source\PSoC5/USBMIDI_1.c **** *
2275:Generated_Source\PSoC5/USBMIDI_1.c **** *******************************************************************************/
2276:Generated_Source\PSoC5/USBMIDI_1.c **** void USBMIDI_1_EnableOutEP(uint8 epNumber) 
2277:Generated_Source\PSoC5/USBMIDI_1.c **** {
 889              		.loc 1 2277 0
 890              		.cfi_startproc
 891              		@ args = 0, pretend = 0, frame = 0
 892              		@ frame_needed = 0, uses_anonymous_args = 0
 893              		@ link register save eliminated.
 894              	.LVL58:
2278:Generated_Source\PSoC5/USBMIDI_1.c ****     if ((epNumber > USBMIDI_1_EP0) && (epNumber < USBMIDI_1_MAX_EP))
 895              		.loc 1 2278 0
 896 0000 431E     		subs	r3, r0, #1
 897 0002 DBB2     		uxtb	r3, r3
 898 0004 072B     		cmp	r3, #7
 899 0006 0BD8     		bhi	.L61
2279:Generated_Source\PSoC5/USBMIDI_1.c ****     {
2280:Generated_Source\PSoC5/USBMIDI_1.c ****         USBMIDI_1_EP[epNumber].apiEpState = USBMIDI_1_NO_EVENT_PENDING;
 900              		.loc 1 2280 0
 901 0008 4300     		lsls	r3, r0, #1
 902 000a 0344     		add	r3, r3, r0
ARM GAS  C:\Users\214016~1\AppData\Local\Temp\ccCw4MGe.s 			page 57


 903 000c 9B00     		lsls	r3, r3, #2
 904 000e 054A     		ldr	r2, .L63
 905 0010 1344     		add	r3, r3, r2
 906 0012 0022     		movs	r2, #0
 907 0014 5A70     		strb	r2, [r3, #1]
2281:Generated_Source\PSoC5/USBMIDI_1.c **** 
2282:Generated_Source\PSoC5/USBMIDI_1.c ****         /* Enable OUT endpoint to be written by Host. */
2283:Generated_Source\PSoC5/USBMIDI_1.c ****         USBMIDI_1_SIE_EP_BASE.sieEp[epNumber].epCr0 = USBMIDI_1_EP[epNumber].epMode;
 908              		.loc 1 2283 0
 909 0016 5A79     		ldrb	r2, [r3, #5]	@ zero_extendqisi2
 910 0018 D2B2     		uxtb	r2, r2
 911 001a 0001     		lsls	r0, r0, #4
 912              	.LVL59:
 913 001c 024B     		ldr	r3, .L63+4
 914 001e 1A54     		strb	r2, [r3, r0]
 915              	.L61:
 916 0020 7047     		bx	lr
 917              	.L64:
 918 0022 00BF     		.align	2
 919              	.L63:
 920 0024 00000000 		.word	USBMIDI_1_EP
 921 0028 FE5F0040 		.word	1073766398
 922              		.cfi_endproc
 923              	.LFE13:
 924              		.size	USBMIDI_1_EnableOutEP, .-USBMIDI_1_EnableOutEP
 925              		.section	.text.USBMIDI_1_ReadOutEP,"ax",%progbits
 926              		.align	2
 927              		.global	USBMIDI_1_ReadOutEP
 928              		.thumb
 929              		.thumb_func
 930              		.type	USBMIDI_1_ReadOutEP, %function
 931              	USBMIDI_1_ReadOutEP:
 932              	.LFB12:
1655:Generated_Source\PSoC5/USBMIDI_1.c ****     if ((pData != NULL) && (epNumber > USBMIDI_1_EP0) && (epNumber < USBMIDI_1_MAX_EP))
 933              		.loc 1 1655 0
 934              		.cfi_startproc
 935              		@ args = 0, pretend = 0, frame = 0
 936              		@ frame_needed = 0, uses_anonymous_args = 0
 937              	.LVL60:
 938 0000 70B5     		push	{r4, r5, r6, lr}
 939              		.cfi_def_cfa_offset 16
 940              		.cfi_offset 4, -16
 941              		.cfi_offset 5, -12
 942              		.cfi_offset 6, -8
 943              		.cfi_offset 14, -4
1656:Generated_Source\PSoC5/USBMIDI_1.c ****     {
 944              		.loc 1 1656 0
 945 0002 D9B1     		cbz	r1, .L70
 946 0004 0546     		mov	r5, r0
 947 0006 1446     		mov	r4, r2
 948 0008 0E46     		mov	r6, r1
1656:Generated_Source\PSoC5/USBMIDI_1.c ****     {
 949              		.loc 1 1656 0 is_stmt 0 discriminator 1
 950 000a C8B1     		cbz	r0, .L71
1656:Generated_Source\PSoC5/USBMIDI_1.c ****     {
 951              		.loc 1 1656 0 discriminator 2
 952 000c 0828     		cmp	r0, #8
ARM GAS  C:\Users\214016~1\AppData\Local\Temp\ccCw4MGe.s 			page 58


 953 000e 19D8     		bhi	.L72
1660:Generated_Source\PSoC5/USBMIDI_1.c ****     #endif /* (!USBMIDI_1_EP_MANAGEMENT_DMA_AUTO) */
 954              		.loc 1 1660 0 is_stmt 1
 955 0010 FFF7FEFF 		bl	USBMIDI_1_GetEPCount
 956              	.LVL61:
 957 0014 A042     		cmp	r0, r4
 958 0016 03D2     		bcs	.L67
1660:Generated_Source\PSoC5/USBMIDI_1.c ****     #endif /* (!USBMIDI_1_EP_MANAGEMENT_DMA_AUTO) */
 959              		.loc 1 1660 0 is_stmt 0 discriminator 1
 960 0018 2846     		mov	r0, r5
 961 001a FFF7FEFF 		bl	USBMIDI_1_GetEPCount
 962              	.LVL62:
 963 001e 0446     		mov	r4, r0
 964              	.L67:
 965              	.LVL63:
 966              	.LBB4:
1667:Generated_Source\PSoC5/USBMIDI_1.c ****             {
 967              		.loc 1 1667 0 is_stmt 1 discriminator 4
 968 0020 0023     		movs	r3, #0
 969 0022 05E0     		b	.L68
 970              	.LVL64:
 971              	.L69:
1669:Generated_Source\PSoC5/USBMIDI_1.c ****             }
 972              		.loc 1 1669 0 discriminator 3
 973 0024 2901     		lsls	r1, r5, #4
 974 0026 094A     		ldr	r2, .L74
 975 0028 525C     		ldrb	r2, [r2, r1]	@ zero_extendqisi2
 976 002a F254     		strb	r2, [r6, r3]
1667:Generated_Source\PSoC5/USBMIDI_1.c ****             {
 977              		.loc 1 1667 0 discriminator 3
 978 002c 0133     		adds	r3, r3, #1
 979              	.LVL65:
 980 002e 9BB2     		uxth	r3, r3
 981              	.LVL66:
 982              	.L68:
1667:Generated_Source\PSoC5/USBMIDI_1.c ****             {
 983              		.loc 1 1667 0 is_stmt 0 discriminator 1
 984 0030 A342     		cmp	r3, r4
 985 0032 F7D3     		bcc	.L69
 986              	.LBE4:
1674:Generated_Source\PSoC5/USBMIDI_1.c ****     #else
 987              		.loc 1 1674 0 is_stmt 1
 988 0034 2846     		mov	r0, r5
 989 0036 FFF7FEFF 		bl	USBMIDI_1_EnableOutEP
 990              	.LVL67:
 991 003a 04E0     		b	.L66
 992              	.LVL68:
 993              	.L70:
1820:Generated_Source\PSoC5/USBMIDI_1.c ****     }
 994              		.loc 1 1820 0
 995 003c 0024     		movs	r4, #0
 996 003e 02E0     		b	.L66
 997              	.L71:
 998 0040 0024     		movs	r4, #0
 999 0042 00E0     		b	.L66
 1000              	.L72:
 1001 0044 0024     		movs	r4, #0
ARM GAS  C:\Users\214016~1\AppData\Local\Temp\ccCw4MGe.s 			page 59


 1002              	.LVL69:
 1003              	.L66:
1824:Generated_Source\PSoC5/USBMIDI_1.c **** 
 1004              		.loc 1 1824 0
 1005 0046 2046     		mov	r0, r4
 1006 0048 70BD     		pop	{r4, r5, r6, pc}
 1007              	.LVL70:
 1008              	.L75:
 1009 004a 00BF     		.align	2
 1010              	.L74:
 1011 004c 78600040 		.word	1073766520
 1012              		.cfi_endproc
 1013              	.LFE12:
 1014              		.size	USBMIDI_1_ReadOutEP, .-USBMIDI_1_ReadOutEP
 1015              		.section	.text.USBMIDI_1_DisableOutEP,"ax",%progbits
 1016              		.align	2
 1017              		.global	USBMIDI_1_DisableOutEP
 1018              		.thumb
 1019              		.thumb_func
 1020              		.type	USBMIDI_1_DisableOutEP, %function
 1021              	USBMIDI_1_DisableOutEP:
 1022              	.LFB14:
2284:Generated_Source\PSoC5/USBMIDI_1.c ****         
2285:Generated_Source\PSoC5/USBMIDI_1.c ****     }
2286:Generated_Source\PSoC5/USBMIDI_1.c **** }
2287:Generated_Source\PSoC5/USBMIDI_1.c **** 
2288:Generated_Source\PSoC5/USBMIDI_1.c **** 
2289:Generated_Source\PSoC5/USBMIDI_1.c **** /*******************************************************************************
2290:Generated_Source\PSoC5/USBMIDI_1.c **** * Function Name: USBMIDI_1_DisableOutEP
2291:Generated_Source\PSoC5/USBMIDI_1.c **** ****************************************************************************//**
2292:Generated_Source\PSoC5/USBMIDI_1.c **** *
2293:Generated_Source\PSoC5/USBMIDI_1.c **** *  This function disables the specified USBFS OUT endpoint. Do not call this
2294:Generated_Source\PSoC5/USBMIDI_1.c **** *  function for IN endpoints.
2295:Generated_Source\PSoC5/USBMIDI_1.c **** *
2296:Generated_Source\PSoC5/USBMIDI_1.c **** *  \param epNumber: Contains the data endpoint number.
2297:Generated_Source\PSoC5/USBMIDI_1.c **** *            Valid values are between 1 and 8.
2298:Generated_Source\PSoC5/USBMIDI_1.c **** *
2299:Generated_Source\PSoC5/USBMIDI_1.c **** *******************************************************************************/
2300:Generated_Source\PSoC5/USBMIDI_1.c **** void USBMIDI_1_DisableOutEP(uint8 epNumber) 
2301:Generated_Source\PSoC5/USBMIDI_1.c **** {
 1023              		.loc 1 2301 0
 1024              		.cfi_startproc
 1025              		@ args = 0, pretend = 0, frame = 0
 1026              		@ frame_needed = 0, uses_anonymous_args = 0
 1027              		@ link register save eliminated.
 1028              	.LVL71:
2302:Generated_Source\PSoC5/USBMIDI_1.c ****     if ((epNumber > USBMIDI_1_EP0) && (epNumber < USBMIDI_1_MAX_EP))
 1029              		.loc 1 2302 0
 1030 0000 431E     		subs	r3, r0, #1
 1031 0002 DBB2     		uxtb	r3, r3
 1032 0004 072B     		cmp	r3, #7
 1033 0006 03D8     		bhi	.L76
2303:Generated_Source\PSoC5/USBMIDI_1.c ****     {
2304:Generated_Source\PSoC5/USBMIDI_1.c ****         /* Set NAK response for OUT endpoint. */
2305:Generated_Source\PSoC5/USBMIDI_1.c ****         USBMIDI_1_SIE_EP_BASE.sieEp[epNumber].epCr0 = USBMIDI_1_MODE_NAK_OUT;
 1034              		.loc 1 2305 0
 1035 0008 0001     		lsls	r0, r0, #4
ARM GAS  C:\Users\214016~1\AppData\Local\Temp\ccCw4MGe.s 			page 60


 1036              	.LVL72:
 1037 000a 024B     		ldr	r3, .L78
 1038 000c 0822     		movs	r2, #8
 1039 000e 1A54     		strb	r2, [r3, r0]
 1040              	.L76:
 1041 0010 7047     		bx	lr
 1042              	.L79:
 1043 0012 00BF     		.align	2
 1044              	.L78:
 1045 0014 FE5F0040 		.word	1073766398
 1046              		.cfi_endproc
 1047              	.LFE14:
 1048              		.size	USBMIDI_1_DisableOutEP, .-USBMIDI_1_DisableOutEP
 1049              		.section	.text.USBMIDI_1_Force,"ax",%progbits
 1050              		.align	2
 1051              		.global	USBMIDI_1_Force
 1052              		.thumb
 1053              		.thumb_func
 1054              		.type	USBMIDI_1_Force, %function
 1055              	USBMIDI_1_Force:
 1056              	.LFB15:
2306:Generated_Source\PSoC5/USBMIDI_1.c ****     }
2307:Generated_Source\PSoC5/USBMIDI_1.c **** }
2308:Generated_Source\PSoC5/USBMIDI_1.c **** 
2309:Generated_Source\PSoC5/USBMIDI_1.c **** 
2310:Generated_Source\PSoC5/USBMIDI_1.c **** /*******************************************************************************
2311:Generated_Source\PSoC5/USBMIDI_1.c **** * Function Name: USBMIDI_1_Force
2312:Generated_Source\PSoC5/USBMIDI_1.c **** ****************************************************************************//**
2313:Generated_Source\PSoC5/USBMIDI_1.c **** *
2314:Generated_Source\PSoC5/USBMIDI_1.c **** *  This function forces a USB J, K, or SE0 state on the D+/D– lines. It provides
2315:Generated_Source\PSoC5/USBMIDI_1.c **** *  the necessary mechanism for a USB device application to perform a USB Remote
2316:Generated_Source\PSoC5/USBMIDI_1.c **** *  Wakeup. For more information, see the USB 2.0 Specification for details on
2317:Generated_Source\PSoC5/USBMIDI_1.c **** *  Suspend and Resume.
2318:Generated_Source\PSoC5/USBMIDI_1.c **** *
2319:Generated_Source\PSoC5/USBMIDI_1.c **** *  \param state A byte indicating which of the four bus states to enable.
2320:Generated_Source\PSoC5/USBMIDI_1.c **** *        Symbolic names  and their associated values are listed here:
2321:Generated_Source\PSoC5/USBMIDI_1.c **** *    State                      |Description
2322:Generated_Source\PSoC5/USBMIDI_1.c **** *    ---------------------------|----------------------------------------------
2323:Generated_Source\PSoC5/USBMIDI_1.c **** *    USBMIDI_1_FORCE_J   | Force a J State onto the D+/D– lines
2324:Generated_Source\PSoC5/USBMIDI_1.c **** *    USBMIDI_1_FORCE_K   | Force a K State onto the D+/D– lines
2325:Generated_Source\PSoC5/USBMIDI_1.c **** *    USBMIDI_1_FORCE_SE0 | Force a Single Ended 0 onto the D+/D– lines
2326:Generated_Source\PSoC5/USBMIDI_1.c **** *    USBMIDI_1_FORCE_NONE| Return bus to SIE control
2327:Generated_Source\PSoC5/USBMIDI_1.c **** *
2328:Generated_Source\PSoC5/USBMIDI_1.c **** *
2329:Generated_Source\PSoC5/USBMIDI_1.c **** *******************************************************************************/
2330:Generated_Source\PSoC5/USBMIDI_1.c **** void USBMIDI_1_Force(uint8 bState) 
2331:Generated_Source\PSoC5/USBMIDI_1.c **** {
 1057              		.loc 1 2331 0
 1058              		.cfi_startproc
 1059              		@ args = 0, pretend = 0, frame = 0
 1060              		@ frame_needed = 0, uses_anonymous_args = 0
 1061              		@ link register save eliminated.
 1062              	.LVL73:
2332:Generated_Source\PSoC5/USBMIDI_1.c ****     /* This registers is used only for manual control of SIE (no masking is
2333:Generated_Source\PSoC5/USBMIDI_1.c ****     * needed before write into it).
2334:Generated_Source\PSoC5/USBMIDI_1.c ****     */
2335:Generated_Source\PSoC5/USBMIDI_1.c ****     USBMIDI_1_USBIO_CR0_REG = bState;
ARM GAS  C:\Users\214016~1\AppData\Local\Temp\ccCw4MGe.s 			page 61


 1063              		.loc 1 2335 0
 1064 0000 014B     		ldr	r3, .L81
 1065 0002 1870     		strb	r0, [r3]
 1066 0004 7047     		bx	lr
 1067              	.L82:
 1068 0006 00BF     		.align	2
 1069              	.L81:
 1070 0008 10600040 		.word	1073766416
 1071              		.cfi_endproc
 1072              	.LFE15:
 1073              		.size	USBMIDI_1_Force, .-USBMIDI_1_Force
 1074              		.section	.text.USBMIDI_1_GetEPAckState,"ax",%progbits
 1075              		.align	2
 1076              		.global	USBMIDI_1_GetEPAckState
 1077              		.thumb
 1078              		.thumb_func
 1079              		.type	USBMIDI_1_GetEPAckState, %function
 1080              	USBMIDI_1_GetEPAckState:
 1081              	.LFB16:
2336:Generated_Source\PSoC5/USBMIDI_1.c **** }
2337:Generated_Source\PSoC5/USBMIDI_1.c **** 
2338:Generated_Source\PSoC5/USBMIDI_1.c **** 
2339:Generated_Source\PSoC5/USBMIDI_1.c **** /*******************************************************************************
2340:Generated_Source\PSoC5/USBMIDI_1.c **** * Function Name: USBMIDI_1_GetEPAckState
2341:Generated_Source\PSoC5/USBMIDI_1.c **** ****************************************************************************//**
2342:Generated_Source\PSoC5/USBMIDI_1.c **** *
2343:Generated_Source\PSoC5/USBMIDI_1.c **** *  This function determines whether an ACK transaction occurred on this endpoint
2344:Generated_Source\PSoC5/USBMIDI_1.c **** *  by reading the ACK bit in the control register of the endpoint. It does not
2345:Generated_Source\PSoC5/USBMIDI_1.c **** *  clear the ACK bit.
2346:Generated_Source\PSoC5/USBMIDI_1.c **** *
2347:Generated_Source\PSoC5/USBMIDI_1.c **** *  \param epNumber Contains the data endpoint number.
2348:Generated_Source\PSoC5/USBMIDI_1.c **** *            Valid values are between 1 and 8.
2349:Generated_Source\PSoC5/USBMIDI_1.c **** *
2350:Generated_Source\PSoC5/USBMIDI_1.c **** *  \return
2351:Generated_Source\PSoC5/USBMIDI_1.c **** *  If an ACKed transaction occurred, this function returns a non-zero value.
2352:Generated_Source\PSoC5/USBMIDI_1.c **** *  Otherwise, it returns zero.
2353:Generated_Source\PSoC5/USBMIDI_1.c **** *
2354:Generated_Source\PSoC5/USBMIDI_1.c **** *******************************************************************************/
2355:Generated_Source\PSoC5/USBMIDI_1.c **** uint8 USBMIDI_1_GetEPAckState(uint8 epNumber) 
2356:Generated_Source\PSoC5/USBMIDI_1.c **** {
 1082              		.loc 1 2356 0
 1083              		.cfi_startproc
 1084              		@ args = 0, pretend = 0, frame = 0
 1085              		@ frame_needed = 0, uses_anonymous_args = 0
 1086              		@ link register save eliminated.
 1087              	.LVL74:
2357:Generated_Source\PSoC5/USBMIDI_1.c ****     uint8 cr = 0u;
2358:Generated_Source\PSoC5/USBMIDI_1.c **** 
2359:Generated_Source\PSoC5/USBMIDI_1.c ****     if ((epNumber > USBMIDI_1_EP0) && (epNumber < USBMIDI_1_MAX_EP))
 1088              		.loc 1 2359 0
 1089 0000 431E     		subs	r3, r0, #1
 1090 0002 DBB2     		uxtb	r3, r3
 1091 0004 072B     		cmp	r3, #7
 1092 0006 06D8     		bhi	.L85
2360:Generated_Source\PSoC5/USBMIDI_1.c ****     {
2361:Generated_Source\PSoC5/USBMIDI_1.c ****         cr = USBMIDI_1_SIE_EP_BASE.sieEp[epNumber].epCr0 & USBMIDI_1_MODE_ACKD;
 1093              		.loc 1 2361 0
ARM GAS  C:\Users\214016~1\AppData\Local\Temp\ccCw4MGe.s 			page 62


 1094 0008 0001     		lsls	r0, r0, #4
 1095              	.LVL75:
 1096 000a 044B     		ldr	r3, .L86
 1097 000c 185C     		ldrb	r0, [r3, r0]	@ zero_extendqisi2
 1098 000e 00F01000 		and	r0, r0, #16
 1099 0012 C0B2     		uxtb	r0, r0
 1100              	.LVL76:
 1101 0014 7047     		bx	lr
 1102              	.LVL77:
 1103              	.L85:
2357:Generated_Source\PSoC5/USBMIDI_1.c ****     uint8 cr = 0u;
 1104              		.loc 1 2357 0
 1105 0016 0020     		movs	r0, #0
 1106              	.LVL78:
2362:Generated_Source\PSoC5/USBMIDI_1.c ****     }
2363:Generated_Source\PSoC5/USBMIDI_1.c **** 
2364:Generated_Source\PSoC5/USBMIDI_1.c ****     return ((uint8) cr);
2365:Generated_Source\PSoC5/USBMIDI_1.c **** }
 1107              		.loc 1 2365 0
 1108 0018 7047     		bx	lr
 1109              	.L87:
 1110 001a 00BF     		.align	2
 1111              	.L86:
 1112 001c FE5F0040 		.word	1073766398
 1113              		.cfi_endproc
 1114              	.LFE16:
 1115              		.size	USBMIDI_1_GetEPAckState, .-USBMIDI_1_GetEPAckState
 1116              		.section	.text.USBMIDI_1_SetPowerStatus,"ax",%progbits
 1117              		.align	2
 1118              		.global	USBMIDI_1_SetPowerStatus
 1119              		.thumb
 1120              		.thumb_func
 1121              		.type	USBMIDI_1_SetPowerStatus, %function
 1122              	USBMIDI_1_SetPowerStatus:
 1123              	.LFB17:
2366:Generated_Source\PSoC5/USBMIDI_1.c **** 
2367:Generated_Source\PSoC5/USBMIDI_1.c **** 
2368:Generated_Source\PSoC5/USBMIDI_1.c **** /*******************************************************************************
2369:Generated_Source\PSoC5/USBMIDI_1.c **** * Function Name: USBMIDI_1_SetPowerStatus
2370:Generated_Source\PSoC5/USBMIDI_1.c **** ****************************************************************************//**
2371:Generated_Source\PSoC5/USBMIDI_1.c **** *
2372:Generated_Source\PSoC5/USBMIDI_1.c **** *  This function sets the current power status. The device replies to USB
2373:Generated_Source\PSoC5/USBMIDI_1.c **** *  GET_STATUS requests based on this value. This allows the device to properly
2374:Generated_Source\PSoC5/USBMIDI_1.c **** *  report its status for USB Chapter 9 compliance. Devices can change their
2375:Generated_Source\PSoC5/USBMIDI_1.c **** *  power source from self powered to bus powered at any time and report their
2376:Generated_Source\PSoC5/USBMIDI_1.c **** *  current power source as part of the device status. You should call this
2377:Generated_Source\PSoC5/USBMIDI_1.c **** *  function any time your device changes from self powered to bus powered or
2378:Generated_Source\PSoC5/USBMIDI_1.c **** *  vice versa, and set the status appropriately.
2379:Generated_Source\PSoC5/USBMIDI_1.c **** *
2380:Generated_Source\PSoC5/USBMIDI_1.c **** *  \param powerStatus: Contains the desired power status, one for self powered
2381:Generated_Source\PSoC5/USBMIDI_1.c **** *        or zero for bus powered. Symbolic names and their associated values are
2382:Generated_Source\PSoC5/USBMIDI_1.c **** *        given here:
2383:Generated_Source\PSoC5/USBMIDI_1.c **** *  Power Status                                |Description
2384:Generated_Source\PSoC5/USBMIDI_1.c **** *  --------------------------------------------|---------------------------
2385:Generated_Source\PSoC5/USBMIDI_1.c **** *  USBMIDI_1_DEVICE_STATUS_BUS_POWERED  | Set the device to bus powered
2386:Generated_Source\PSoC5/USBMIDI_1.c **** *  USBMIDI_1_DEVICE_STATUS_SELF_POWERED | Set the device to self powered
2387:Generated_Source\PSoC5/USBMIDI_1.c **** *
ARM GAS  C:\Users\214016~1\AppData\Local\Temp\ccCw4MGe.s 			page 63


2388:Generated_Source\PSoC5/USBMIDI_1.c **** * \globalvars
2389:Generated_Source\PSoC5/USBMIDI_1.c **** *
2390:Generated_Source\PSoC5/USBMIDI_1.c **** *  \ref USBMIDI_1_deviceStatus - set power status
2391:Generated_Source\PSoC5/USBMIDI_1.c **** *
2392:Generated_Source\PSoC5/USBMIDI_1.c **** * \reentrant
2393:Generated_Source\PSoC5/USBMIDI_1.c **** *  No.
2394:Generated_Source\PSoC5/USBMIDI_1.c **** *
2395:Generated_Source\PSoC5/USBMIDI_1.c **** *******************************************************************************/
2396:Generated_Source\PSoC5/USBMIDI_1.c **** void USBMIDI_1_SetPowerStatus(uint8 powerStatus) 
2397:Generated_Source\PSoC5/USBMIDI_1.c **** {
 1124              		.loc 1 2397 0
 1125              		.cfi_startproc
 1126              		@ args = 0, pretend = 0, frame = 0
 1127              		@ frame_needed = 0, uses_anonymous_args = 0
 1128              		@ link register save eliminated.
 1129              	.LVL79:
2398:Generated_Source\PSoC5/USBMIDI_1.c ****     if (powerStatus != USBMIDI_1_DEVICE_STATUS_BUS_POWERED)
 1130              		.loc 1 2398 0
 1131 0000 28B1     		cbz	r0, .L89
2399:Generated_Source\PSoC5/USBMIDI_1.c ****     {
2400:Generated_Source\PSoC5/USBMIDI_1.c ****         USBMIDI_1_deviceStatus |= (uint8)  USBMIDI_1_DEVICE_STATUS_SELF_POWERED;
 1132              		.loc 1 2400 0
 1133 0002 064A     		ldr	r2, .L91
 1134 0004 1378     		ldrb	r3, [r2]	@ zero_extendqisi2
 1135 0006 43F00103 		orr	r3, r3, #1
 1136 000a 1370     		strb	r3, [r2]
 1137 000c 7047     		bx	lr
 1138              	.L89:
2401:Generated_Source\PSoC5/USBMIDI_1.c ****     }
2402:Generated_Source\PSoC5/USBMIDI_1.c ****     else
2403:Generated_Source\PSoC5/USBMIDI_1.c ****     {
2404:Generated_Source\PSoC5/USBMIDI_1.c ****         USBMIDI_1_deviceStatus &= (uint8) ~USBMIDI_1_DEVICE_STATUS_SELF_POWERED;
 1139              		.loc 1 2404 0
 1140 000e 034A     		ldr	r2, .L91
 1141 0010 1378     		ldrb	r3, [r2]	@ zero_extendqisi2
 1142 0012 03F0FE03 		and	r3, r3, #254
 1143 0016 1370     		strb	r3, [r2]
 1144 0018 7047     		bx	lr
 1145              	.L92:
 1146 001a 00BF     		.align	2
 1147              	.L91:
 1148 001c 00000000 		.word	USBMIDI_1_deviceStatus
 1149              		.cfi_endproc
 1150              	.LFE17:
 1151              		.size	USBMIDI_1_SetPowerStatus, .-USBMIDI_1_SetPowerStatus
 1152              		.section	.text.USBMIDI_1_RWUEnabled,"ax",%progbits
 1153              		.align	2
 1154              		.global	USBMIDI_1_RWUEnabled
 1155              		.thumb
 1156              		.thumb_func
 1157              		.type	USBMIDI_1_RWUEnabled, %function
 1158              	USBMIDI_1_RWUEnabled:
 1159              	.LFB18:
2405:Generated_Source\PSoC5/USBMIDI_1.c ****     }
2406:Generated_Source\PSoC5/USBMIDI_1.c **** }
2407:Generated_Source\PSoC5/USBMIDI_1.c **** 
2408:Generated_Source\PSoC5/USBMIDI_1.c **** 
ARM GAS  C:\Users\214016~1\AppData\Local\Temp\ccCw4MGe.s 			page 64


2409:Generated_Source\PSoC5/USBMIDI_1.c **** #if (USBMIDI_1_VBUS_MONITORING_ENABLE)
2410:Generated_Source\PSoC5/USBMIDI_1.c ****     /***************************************************************************
2411:Generated_Source\PSoC5/USBMIDI_1.c ****     * Function Name: USBMIDI_1_VBusPresent
2412:Generated_Source\PSoC5/USBMIDI_1.c ****     ************************************************************************//**
2413:Generated_Source\PSoC5/USBMIDI_1.c ****     *
2414:Generated_Source\PSoC5/USBMIDI_1.c ****     *  Determines VBUS presence for self-powered devices. This function is
2415:Generated_Source\PSoC5/USBMIDI_1.c ****     *  available when the VBUS Monitoring option is enabled in the Advanced tab.
2416:Generated_Source\PSoC5/USBMIDI_1.c ****     *
2417:Generated_Source\PSoC5/USBMIDI_1.c ****     * \return
2418:Generated_Source\PSoC5/USBMIDI_1.c ****     *  The return value can be the following:
2419:Generated_Source\PSoC5/USBMIDI_1.c ****     *  Return Value | Description
2420:Generated_Source\PSoC5/USBMIDI_1.c ****     *  -------------|-----------------
2421:Generated_Source\PSoC5/USBMIDI_1.c ****     *  1            | VBUS is present
2422:Generated_Source\PSoC5/USBMIDI_1.c ****     *  0            | VBUS is absent
2423:Generated_Source\PSoC5/USBMIDI_1.c ****     *
2424:Generated_Source\PSoC5/USBMIDI_1.c ****     *
2425:Generated_Source\PSoC5/USBMIDI_1.c ****     ***************************************************************************/
2426:Generated_Source\PSoC5/USBMIDI_1.c ****     uint8 USBMIDI_1_VBusPresent(void) 
2427:Generated_Source\PSoC5/USBMIDI_1.c ****     {
2428:Generated_Source\PSoC5/USBMIDI_1.c ****         return ((0u != (USBMIDI_1_VBUS_STATUS_REG & USBMIDI_1_VBUS_VALID)) ? (uint8) 1u : (uint8) 0
2429:Generated_Source\PSoC5/USBMIDI_1.c ****     }
2430:Generated_Source\PSoC5/USBMIDI_1.c **** #endif /* (USBMIDI_1_VBUS_MONITORING_ENABLE) */
2431:Generated_Source\PSoC5/USBMIDI_1.c **** 
2432:Generated_Source\PSoC5/USBMIDI_1.c **** 
2433:Generated_Source\PSoC5/USBMIDI_1.c **** /*******************************************************************************
2434:Generated_Source\PSoC5/USBMIDI_1.c **** * Function Name: USBMIDI_1_RWUEnabled
2435:Generated_Source\PSoC5/USBMIDI_1.c **** ****************************************************************************//**
2436:Generated_Source\PSoC5/USBMIDI_1.c **** *
2437:Generated_Source\PSoC5/USBMIDI_1.c **** *  This function returns the current remote wakeup status.
2438:Generated_Source\PSoC5/USBMIDI_1.c **** *  If the device supports remote wakeup, the application should use this
2439:Generated_Source\PSoC5/USBMIDI_1.c **** *  function to determine if remote wakeup was enabled by the host. When the
2440:Generated_Source\PSoC5/USBMIDI_1.c **** *  device is suspended and it determines the conditions to initiate a remote
2441:Generated_Source\PSoC5/USBMIDI_1.c **** *  wakeup are met, the application should use the USBFS_Force() function to
2442:Generated_Source\PSoC5/USBMIDI_1.c **** *  force the appropriate J and K states onto the USB bus, signaling a remote
2443:Generated_Source\PSoC5/USBMIDI_1.c **** *  wakeup.
2444:Generated_Source\PSoC5/USBMIDI_1.c **** *
2445:Generated_Source\PSoC5/USBMIDI_1.c **** *
2446:Generated_Source\PSoC5/USBMIDI_1.c **** * \return
2447:Generated_Source\PSoC5/USBMIDI_1.c **** *  Returns non-zero value if remote wakeup is enabled and zero otherwise.
2448:Generated_Source\PSoC5/USBMIDI_1.c **** *
2449:Generated_Source\PSoC5/USBMIDI_1.c **** * \globalvars
2450:Generated_Source\PSoC5/USBMIDI_1.c **** *  USBMIDI_1_deviceStatus - checked to determine remote status
2451:Generated_Source\PSoC5/USBMIDI_1.c **** *
2452:Generated_Source\PSoC5/USBMIDI_1.c **** *******************************************************************************/
2453:Generated_Source\PSoC5/USBMIDI_1.c **** uint8 USBMIDI_1_RWUEnabled(void) 
2454:Generated_Source\PSoC5/USBMIDI_1.c **** {
 1160              		.loc 1 2454 0
 1161              		.cfi_startproc
 1162              		@ args = 0, pretend = 0, frame = 0
 1163              		@ frame_needed = 0, uses_anonymous_args = 0
 1164              		@ link register save eliminated.
 1165              	.LVL80:
2455:Generated_Source\PSoC5/USBMIDI_1.c ****     uint8 result = USBMIDI_1_FALSE;
2456:Generated_Source\PSoC5/USBMIDI_1.c **** 
2457:Generated_Source\PSoC5/USBMIDI_1.c ****     if (0u != (USBMIDI_1_deviceStatus & USBMIDI_1_DEVICE_STATUS_REMOTE_WAKEUP))
 1166              		.loc 1 2457 0
 1167 0000 044B     		ldr	r3, .L96
ARM GAS  C:\Users\214016~1\AppData\Local\Temp\ccCw4MGe.s 			page 65


 1168 0002 1B78     		ldrb	r3, [r3]	@ zero_extendqisi2
 1169 0004 13F0020F 		tst	r3, #2
 1170 0008 01D1     		bne	.L95
2455:Generated_Source\PSoC5/USBMIDI_1.c ****     uint8 result = USBMIDI_1_FALSE;
 1171              		.loc 1 2455 0
 1172 000a 0020     		movs	r0, #0
 1173 000c 7047     		bx	lr
 1174              	.L95:
2458:Generated_Source\PSoC5/USBMIDI_1.c ****     {
2459:Generated_Source\PSoC5/USBMIDI_1.c ****         result = USBMIDI_1_TRUE;
 1175              		.loc 1 2459 0
 1176 000e 0120     		movs	r0, #1
 1177              	.LVL81:
2460:Generated_Source\PSoC5/USBMIDI_1.c ****     }
2461:Generated_Source\PSoC5/USBMIDI_1.c **** 
2462:Generated_Source\PSoC5/USBMIDI_1.c ****     return (result);
2463:Generated_Source\PSoC5/USBMIDI_1.c **** }
 1178              		.loc 1 2463 0
 1179 0010 7047     		bx	lr
 1180              	.L97:
 1181 0012 00BF     		.align	2
 1182              	.L96:
 1183 0014 00000000 		.word	USBMIDI_1_deviceStatus
 1184              		.cfi_endproc
 1185              	.LFE18:
 1186              		.size	USBMIDI_1_RWUEnabled, .-USBMIDI_1_RWUEnabled
 1187              		.section	.text.USBMIDI_1_GetDeviceAddress,"ax",%progbits
 1188              		.align	2
 1189              		.global	USBMIDI_1_GetDeviceAddress
 1190              		.thumb
 1191              		.thumb_func
 1192              		.type	USBMIDI_1_GetDeviceAddress, %function
 1193              	USBMIDI_1_GetDeviceAddress:
 1194              	.LFB19:
2464:Generated_Source\PSoC5/USBMIDI_1.c **** 
2465:Generated_Source\PSoC5/USBMIDI_1.c **** 
2466:Generated_Source\PSoC5/USBMIDI_1.c **** /*******************************************************************************
2467:Generated_Source\PSoC5/USBMIDI_1.c **** * Function Name: USBMIDI_1_GetDeviceAddress
2468:Generated_Source\PSoC5/USBMIDI_1.c **** ****************************************************************************//**
2469:Generated_Source\PSoC5/USBMIDI_1.c **** *
2470:Generated_Source\PSoC5/USBMIDI_1.c **** *  This function returns the currently assigned address for the USB device.
2471:Generated_Source\PSoC5/USBMIDI_1.c **** *
2472:Generated_Source\PSoC5/USBMIDI_1.c **** * \return
2473:Generated_Source\PSoC5/USBMIDI_1.c **** *  Returns the currently assigned address.
2474:Generated_Source\PSoC5/USBMIDI_1.c **** *  Returns 0 if the device has not yet been assigned an address.
2475:Generated_Source\PSoC5/USBMIDI_1.c **** *
2476:Generated_Source\PSoC5/USBMIDI_1.c **** *******************************************************************************/
2477:Generated_Source\PSoC5/USBMIDI_1.c **** uint8 USBMIDI_1_GetDeviceAddress(void) 
2478:Generated_Source\PSoC5/USBMIDI_1.c **** {
 1195              		.loc 1 2478 0
 1196              		.cfi_startproc
 1197              		@ args = 0, pretend = 0, frame = 0
 1198              		@ frame_needed = 0, uses_anonymous_args = 0
 1199              		@ link register save eliminated.
2479:Generated_Source\PSoC5/USBMIDI_1.c ****     return (uint8)(USBMIDI_1_CR0_REG & USBMIDI_1_CR0_DEVICE_ADDRESS_MASK);
 1200              		.loc 1 2479 0
 1201 0000 024B     		ldr	r3, .L99
ARM GAS  C:\Users\214016~1\AppData\Local\Temp\ccCw4MGe.s 			page 66


 1202 0002 1878     		ldrb	r0, [r3]	@ zero_extendqisi2
2480:Generated_Source\PSoC5/USBMIDI_1.c **** }
 1203              		.loc 1 2480 0
 1204 0004 00F07F00 		and	r0, r0, #127
 1205 0008 7047     		bx	lr
 1206              	.L100:
 1207 000a 00BF     		.align	2
 1208              	.L99:
 1209 000c 08600040 		.word	1073766408
 1210              		.cfi_endproc
 1211              	.LFE19:
 1212              		.size	USBMIDI_1_GetDeviceAddress, .-USBMIDI_1_GetDeviceAddress
 1213              		.section	.text.USBMIDI_1_EnableSofInt,"ax",%progbits
 1214              		.align	2
 1215              		.global	USBMIDI_1_EnableSofInt
 1216              		.thumb
 1217              		.thumb_func
 1218              		.type	USBMIDI_1_EnableSofInt, %function
 1219              	USBMIDI_1_EnableSofInt:
 1220              	.LFB20:
2481:Generated_Source\PSoC5/USBMIDI_1.c **** 
2482:Generated_Source\PSoC5/USBMIDI_1.c **** 
2483:Generated_Source\PSoC5/USBMIDI_1.c **** /*******************************************************************************
2484:Generated_Source\PSoC5/USBMIDI_1.c **** * Function Name: USBMIDI_1_EnableSofInt
2485:Generated_Source\PSoC5/USBMIDI_1.c **** ****************************************************************************//**
2486:Generated_Source\PSoC5/USBMIDI_1.c **** *
2487:Generated_Source\PSoC5/USBMIDI_1.c **** *  This function enables interrupt generation when a Start-of-Frame (SOF)
2488:Generated_Source\PSoC5/USBMIDI_1.c **** *  packet is received from the host.
2489:Generated_Source\PSoC5/USBMIDI_1.c **** *
2490:Generated_Source\PSoC5/USBMIDI_1.c **** *******************************************************************************/
2491:Generated_Source\PSoC5/USBMIDI_1.c **** void USBMIDI_1_EnableSofInt(void) 
2492:Generated_Source\PSoC5/USBMIDI_1.c **** {
 1221              		.loc 1 2492 0
 1222              		.cfi_startproc
 1223              		@ args = 0, pretend = 0, frame = 0
 1224              		@ frame_needed = 0, uses_anonymous_args = 0
 1225              		@ link register save eliminated.
2493:Generated_Source\PSoC5/USBMIDI_1.c **** #if (CY_PSOC4)
2494:Generated_Source\PSoC5/USBMIDI_1.c ****     /* Enable SOF interrupt interrupt source. */
2495:Generated_Source\PSoC5/USBMIDI_1.c ****     USBMIDI_1_INTR_SIE_MASK_REG |= (uint32) USBMIDI_1_INTR_SIE_SOF_INTR;
2496:Generated_Source\PSoC5/USBMIDI_1.c **** #else
2497:Generated_Source\PSoC5/USBMIDI_1.c ****     /* Enable SOF interrupt if it is present. */
2498:Generated_Source\PSoC5/USBMIDI_1.c ****     #if (USBMIDI_1_SOF_ISR_ACTIVE)
2499:Generated_Source\PSoC5/USBMIDI_1.c ****         CyIntEnable(USBMIDI_1_SOF_VECT_NUM);
 1226              		.loc 1 2499 0
 1227 0000 4FF40012 		mov	r2, #2097152
 1228 0004 014B     		ldr	r3, .L102
 1229 0006 1A60     		str	r2, [r3]
 1230 0008 7047     		bx	lr
 1231              	.L103:
 1232 000a 00BF     		.align	2
 1233              	.L102:
 1234 000c 00E100E0 		.word	-536813312
 1235              		.cfi_endproc
 1236              	.LFE20:
 1237              		.size	USBMIDI_1_EnableSofInt, .-USBMIDI_1_EnableSofInt
 1238              		.section	.text.USBMIDI_1_DisableSofInt,"ax",%progbits
ARM GAS  C:\Users\214016~1\AppData\Local\Temp\ccCw4MGe.s 			page 67


 1239              		.align	2
 1240              		.global	USBMIDI_1_DisableSofInt
 1241              		.thumb
 1242              		.thumb_func
 1243              		.type	USBMIDI_1_DisableSofInt, %function
 1244              	USBMIDI_1_DisableSofInt:
 1245              	.LFB21:
2500:Generated_Source\PSoC5/USBMIDI_1.c ****     #endif /* (USBMIDI_1_SOF_ISR_ACTIVE) */
2501:Generated_Source\PSoC5/USBMIDI_1.c **** #endif /* (CY_PSOC4) */
2502:Generated_Source\PSoC5/USBMIDI_1.c **** }
2503:Generated_Source\PSoC5/USBMIDI_1.c **** 
2504:Generated_Source\PSoC5/USBMIDI_1.c **** 
2505:Generated_Source\PSoC5/USBMIDI_1.c **** /*******************************************************************************
2506:Generated_Source\PSoC5/USBMIDI_1.c **** * Function Name: USBMIDI_1_DisableSofInt
2507:Generated_Source\PSoC5/USBMIDI_1.c **** ****************************************************************************//**
2508:Generated_Source\PSoC5/USBMIDI_1.c **** *
2509:Generated_Source\PSoC5/USBMIDI_1.c **** *  This function disables interrupt generation when a Start-of-Frame (SOF)
2510:Generated_Source\PSoC5/USBMIDI_1.c **** *  packet is received from the host.
2511:Generated_Source\PSoC5/USBMIDI_1.c **** *
2512:Generated_Source\PSoC5/USBMIDI_1.c **** *******************************************************************************/
2513:Generated_Source\PSoC5/USBMIDI_1.c **** void USBMIDI_1_DisableSofInt(void) 
2514:Generated_Source\PSoC5/USBMIDI_1.c **** {
 1246              		.loc 1 2514 0
 1247              		.cfi_startproc
 1248              		@ args = 0, pretend = 0, frame = 0
 1249              		@ frame_needed = 0, uses_anonymous_args = 0
 1250              		@ link register save eliminated.
2515:Generated_Source\PSoC5/USBMIDI_1.c **** #if (CY_PSOC4)
2516:Generated_Source\PSoC5/USBMIDI_1.c ****     /* Disable SOF interrupt interrupt source. */
2517:Generated_Source\PSoC5/USBMIDI_1.c ****     USBMIDI_1_INTR_SIE_MASK_REG &= (uint32) ~USBMIDI_1_INTR_SIE_SOF_INTR;
2518:Generated_Source\PSoC5/USBMIDI_1.c **** #else
2519:Generated_Source\PSoC5/USBMIDI_1.c ****     /* Disable SOF interrupt if it is present. */
2520:Generated_Source\PSoC5/USBMIDI_1.c ****     #if (USBMIDI_1_SOF_ISR_ACTIVE)
2521:Generated_Source\PSoC5/USBMIDI_1.c ****         CyIntDisable(USBMIDI_1_SOF_VECT_NUM);
 1251              		.loc 1 2521 0
 1252 0000 4FF40012 		mov	r2, #2097152
 1253 0004 014B     		ldr	r3, .L105
 1254 0006 1A60     		str	r2, [r3]
 1255 0008 7047     		bx	lr
 1256              	.L106:
 1257 000a 00BF     		.align	2
 1258              	.L105:
 1259 000c 80E100E0 		.word	-536813184
 1260              		.cfi_endproc
 1261              	.LFE21:
 1262              		.size	USBMIDI_1_DisableSofInt, .-USBMIDI_1_DisableSofInt
 1263              		.global	USBMIDI_1_initVar
 1264              		.bss
 1265              		.set	.LANCHOR0,. + 0
 1266              		.type	USBMIDI_1_initVar, %object
 1267              		.size	USBMIDI_1_initVar, 1
 1268              	USBMIDI_1_initVar:
 1269 0000 00       		.space	1
 1270              		.text
 1271              	.Letext0:
 1272              		.file 2 "Generated_Source\\PSoC5\\cytypes.h"
 1273              		.file 3 "Generated_Source\\PSoC5\\USBMIDI_1.h"
ARM GAS  C:\Users\214016~1\AppData\Local\Temp\ccCw4MGe.s 			page 68


 1274              		.file 4 "Generated_Source\\PSoC5\\USBMIDI_1_pvt.h"
 1275              		.file 5 "Generated_Source\\PSoC5\\CyLib.h"
 1276              		.file 6 "Generated_Source\\PSoC5\\USBMIDI_1_Dp.h"
 1277              		.section	.debug_info,"",%progbits
 1278              	.Ldebug_info0:
 1279 0000 95090000 		.4byte	0x995
 1280 0004 0400     		.2byte	0x4
 1281 0006 00000000 		.4byte	.Ldebug_abbrev0
 1282 000a 04       		.byte	0x4
 1283 000b 01       		.uleb128 0x1
 1284 000c 8E050000 		.4byte	.LASF98
 1285 0010 01       		.byte	0x1
 1286 0011 B5030000 		.4byte	.LASF99
 1287 0015 A4000000 		.4byte	.LASF100
 1288 0019 18000000 		.4byte	.Ldebug_ranges0+0x18
 1289 001d 00000000 		.4byte	0
 1290 0021 00000000 		.4byte	.Ldebug_line0
 1291 0025 02       		.uleb128 0x2
 1292 0026 01       		.byte	0x1
 1293 0027 06       		.byte	0x6
 1294 0028 8C010000 		.4byte	.LASF0
 1295 002c 02       		.uleb128 0x2
 1296 002d 01       		.byte	0x1
 1297 002e 08       		.byte	0x8
 1298 002f 61040000 		.4byte	.LASF1
 1299 0033 02       		.uleb128 0x2
 1300 0034 02       		.byte	0x2
 1301 0035 05       		.byte	0x5
 1302 0036 6F040000 		.4byte	.LASF2
 1303 003a 02       		.uleb128 0x2
 1304 003b 02       		.byte	0x2
 1305 003c 07       		.byte	0x7
 1306 003d 2B030000 		.4byte	.LASF3
 1307 0041 02       		.uleb128 0x2
 1308 0042 04       		.byte	0x4
 1309 0043 05       		.byte	0x5
 1310 0044 E4010000 		.4byte	.LASF4
 1311 0048 02       		.uleb128 0x2
 1312 0049 04       		.byte	0x4
 1313 004a 07       		.byte	0x7
 1314 004b F2020000 		.4byte	.LASF5
 1315 004f 02       		.uleb128 0x2
 1316 0050 08       		.byte	0x8
 1317 0051 05       		.byte	0x5
 1318 0052 7E010000 		.4byte	.LASF6
 1319 0056 02       		.uleb128 0x2
 1320 0057 08       		.byte	0x8
 1321 0058 07       		.byte	0x7
 1322 0059 8D000000 		.4byte	.LASF7
 1323 005d 03       		.uleb128 0x3
 1324 005e 04       		.byte	0x4
 1325 005f 05       		.byte	0x5
 1326 0060 696E7400 		.ascii	"int\000"
 1327 0064 02       		.uleb128 0x2
 1328 0065 04       		.byte	0x4
 1329 0066 07       		.byte	0x7
 1330 0067 CD020000 		.4byte	.LASF8
ARM GAS  C:\Users\214016~1\AppData\Local\Temp\ccCw4MGe.s 			page 69


 1331 006b 04       		.uleb128 0x4
 1332 006c ED010000 		.4byte	.LASF9
 1333 0070 02       		.byte	0x2
 1334 0071 9201     		.2byte	0x192
 1335 0073 2C000000 		.4byte	0x2c
 1336 0077 04       		.uleb128 0x4
 1337 0078 00000000 		.4byte	.LASF10
 1338 007c 02       		.byte	0x2
 1339 007d 9301     		.2byte	0x193
 1340 007f 3A000000 		.4byte	0x3a
 1341 0083 04       		.uleb128 0x4
 1342 0084 4E020000 		.4byte	.LASF11
 1343 0088 02       		.byte	0x2
 1344 0089 9401     		.2byte	0x194
 1345 008b 48000000 		.4byte	0x48
 1346 008f 02       		.uleb128 0x2
 1347 0090 04       		.byte	0x4
 1348 0091 04       		.byte	0x4
 1349 0092 25040000 		.4byte	.LASF12
 1350 0096 02       		.uleb128 0x2
 1351 0097 08       		.byte	0x8
 1352 0098 04       		.byte	0x4
 1353 0099 10020000 		.4byte	.LASF13
 1354 009d 02       		.uleb128 0x2
 1355 009e 01       		.byte	0x1
 1356 009f 08       		.byte	0x8
 1357 00a0 19050000 		.4byte	.LASF14
 1358 00a4 04       		.uleb128 0x4
 1359 00a5 44040000 		.4byte	.LASF15
 1360 00a9 02       		.byte	0x2
 1361 00aa 3C02     		.2byte	0x23c
 1362 00ac B0000000 		.4byte	0xb0
 1363 00b0 05       		.uleb128 0x5
 1364 00b1 6B000000 		.4byte	0x6b
 1365 00b5 04       		.uleb128 0x4
 1366 00b6 64030000 		.4byte	.LASF16
 1367 00ba 02       		.byte	0x2
 1368 00bb 3E02     		.2byte	0x23e
 1369 00bd C1000000 		.4byte	0xc1
 1370 00c1 05       		.uleb128 0x5
 1371 00c2 83000000 		.4byte	0x83
 1372 00c6 04       		.uleb128 0x4
 1373 00c7 23050000 		.4byte	.LASF17
 1374 00cb 02       		.byte	0x2
 1375 00cc 4E02     		.2byte	0x24e
 1376 00ce D2000000 		.4byte	0xd2
 1377 00d2 06       		.uleb128 0x6
 1378 00d3 04       		.byte	0x4
 1379 00d4 D8000000 		.4byte	0xd8
 1380 00d8 07       		.uleb128 0x7
 1381 00d9 02       		.uleb128 0x2
 1382 00da 04       		.byte	0x4
 1383 00db 07       		.byte	0x7
 1384 00dc A6030000 		.4byte	.LASF18
 1385 00e0 08       		.uleb128 0x8
 1386 00e1 0C       		.byte	0xc
 1387 00e2 03       		.byte	0x3
ARM GAS  C:\Users\214016~1\AppData\Local\Temp\ccCw4MGe.s 			page 70


 1388 00e3 8D       		.byte	0x8d
 1389 00e4 55010000 		.4byte	0x155
 1390 00e8 09       		.uleb128 0x9
 1391 00e9 D8030000 		.4byte	.LASF19
 1392 00ed 03       		.byte	0x3
 1393 00ee 8F       		.byte	0x8f
 1394 00ef 6B000000 		.4byte	0x6b
 1395 00f3 00       		.byte	0
 1396 00f4 09       		.uleb128 0x9
 1397 00f5 2B040000 		.4byte	.LASF20
 1398 00f9 03       		.byte	0x3
 1399 00fa 90       		.byte	0x90
 1400 00fb 6B000000 		.4byte	0x6b
 1401 00ff 01       		.byte	0x1
 1402 0100 09       		.uleb128 0x9
 1403 0101 9C030000 		.4byte	.LASF21
 1404 0105 03       		.byte	0x3
 1405 0106 91       		.byte	0x91
 1406 0107 6B000000 		.4byte	0x6b
 1407 010b 02       		.byte	0x2
 1408 010c 09       		.uleb128 0x9
 1409 010d F3010000 		.4byte	.LASF22
 1410 0111 03       		.byte	0x3
 1411 0112 92       		.byte	0x92
 1412 0113 6B000000 		.4byte	0x6b
 1413 0117 03       		.byte	0x3
 1414 0118 09       		.uleb128 0x9
 1415 0119 FC000000 		.4byte	.LASF23
 1416 011d 03       		.byte	0x3
 1417 011e 93       		.byte	0x93
 1418 011f 6B000000 		.4byte	0x6b
 1419 0123 04       		.byte	0x4
 1420 0124 09       		.uleb128 0x9
 1421 0125 75020000 		.4byte	.LASF24
 1422 0129 03       		.byte	0x3
 1423 012a 94       		.byte	0x94
 1424 012b 6B000000 		.4byte	0x6b
 1425 012f 05       		.byte	0x5
 1426 0130 09       		.uleb128 0x9
 1427 0131 3B050000 		.4byte	.LASF25
 1428 0135 03       		.byte	0x3
 1429 0136 95       		.byte	0x95
 1430 0137 77000000 		.4byte	0x77
 1431 013b 06       		.byte	0x6
 1432 013c 09       		.uleb128 0x9
 1433 013d 30050000 		.4byte	.LASF26
 1434 0141 03       		.byte	0x3
 1435 0142 96       		.byte	0x96
 1436 0143 77000000 		.4byte	0x77
 1437 0147 08       		.byte	0x8
 1438 0148 09       		.uleb128 0x9
 1439 0149 53030000 		.4byte	.LASF27
 1440 014d 03       		.byte	0x3
 1441 014e 97       		.byte	0x97
 1442 014f 6B000000 		.4byte	0x6b
 1443 0153 0A       		.byte	0xa
 1444 0154 00       		.byte	0
ARM GAS  C:\Users\214016~1\AppData\Local\Temp\ccCw4MGe.s 			page 71


 1445 0155 0A       		.uleb128 0xa
 1446 0156 9D020000 		.4byte	.LASF28
 1447 015a 03       		.byte	0x3
 1448 015b 98       		.byte	0x98
 1449 015c E0000000 		.4byte	0xe0
 1450 0160 08       		.uleb128 0x8
 1451 0161 10       		.byte	0x10
 1452 0162 03       		.byte	0x3
 1453 0163 D4       		.byte	0xd4
 1454 0164 99010000 		.4byte	0x199
 1455 0168 09       		.uleb128 0x9
 1456 0169 00040000 		.4byte	.LASF29
 1457 016d 03       		.byte	0x3
 1458 016e D6       		.byte	0xd6
 1459 016f 6B000000 		.4byte	0x6b
 1460 0173 00       		.byte	0
 1461 0174 09       		.uleb128 0x9
 1462 0175 07040000 		.4byte	.LASF30
 1463 0179 03       		.byte	0x3
 1464 017a D7       		.byte	0xd7
 1465 017b 6B000000 		.4byte	0x6b
 1466 017f 01       		.byte	0x1
 1467 0180 09       		.uleb128 0x9
 1468 0181 1F040000 		.4byte	.LASF31
 1469 0185 03       		.byte	0x3
 1470 0186 D8       		.byte	0xd8
 1471 0187 6B000000 		.4byte	0x6b
 1472 018b 02       		.byte	0x2
 1473 018c 0B       		.uleb128 0xb
 1474 018d 67617000 		.ascii	"gap\000"
 1475 0191 03       		.byte	0x3
 1476 0192 D9       		.byte	0xd9
 1477 0193 99010000 		.4byte	0x199
 1478 0197 03       		.byte	0x3
 1479 0198 00       		.byte	0
 1480 0199 0C       		.uleb128 0xc
 1481 019a 6B000000 		.4byte	0x6b
 1482 019e A9010000 		.4byte	0x1a9
 1483 01a2 0D       		.uleb128 0xd
 1484 01a3 D9000000 		.4byte	0xd9
 1485 01a7 0C       		.byte	0xc
 1486 01a8 00       		.byte	0
 1487 01a9 0A       		.uleb128 0xa
 1488 01aa 76050000 		.4byte	.LASF32
 1489 01ae 03       		.byte	0x3
 1490 01af DA       		.byte	0xda
 1491 01b0 60010000 		.4byte	0x160
 1492 01b4 08       		.uleb128 0x8
 1493 01b5 10       		.byte	0x10
 1494 01b6 03       		.byte	0x3
 1495 01b7 E6       		.byte	0xe6
 1496 01b8 35020000 		.4byte	0x235
 1497 01bc 09       		.uleb128 0x9
 1498 01bd 34010000 		.4byte	.LASF33
 1499 01c1 03       		.byte	0x3
 1500 01c2 E8       		.byte	0xe8
 1501 01c3 6B000000 		.4byte	0x6b
ARM GAS  C:\Users\214016~1\AppData\Local\Temp\ccCw4MGe.s 			page 72


 1502 01c7 00       		.byte	0
 1503 01c8 09       		.uleb128 0x9
 1504 01c9 49060000 		.4byte	.LASF34
 1505 01cd 03       		.byte	0x3
 1506 01ce E9       		.byte	0xe9
 1507 01cf 6B000000 		.4byte	0x6b
 1508 01d3 01       		.byte	0x1
 1509 01d4 09       		.uleb128 0x9
 1510 01d5 34020000 		.4byte	.LASF35
 1511 01d9 03       		.byte	0x3
 1512 01da EA       		.byte	0xea
 1513 01db 6B000000 		.4byte	0x6b
 1514 01df 02       		.byte	0x2
 1515 01e0 09       		.uleb128 0x9
 1516 01e1 94020000 		.4byte	.LASF36
 1517 01e5 03       		.byte	0x3
 1518 01e6 EB       		.byte	0xeb
 1519 01e7 6B000000 		.4byte	0x6b
 1520 01eb 03       		.byte	0x3
 1521 01ec 09       		.uleb128 0x9
 1522 01ed FC010000 		.4byte	.LASF37
 1523 01f1 03       		.byte	0x3
 1524 01f2 EC       		.byte	0xec
 1525 01f3 6B000000 		.4byte	0x6b
 1526 01f7 04       		.byte	0x4
 1527 01f8 09       		.uleb128 0x9
 1528 01f9 AD040000 		.4byte	.LASF38
 1529 01fd 03       		.byte	0x3
 1530 01fe ED       		.byte	0xed
 1531 01ff 6B000000 		.4byte	0x6b
 1532 0203 05       		.byte	0x5
 1533 0204 09       		.uleb128 0x9
 1534 0205 91040000 		.4byte	.LASF39
 1535 0209 03       		.byte	0x3
 1536 020a EE       		.byte	0xee
 1537 020b 6B000000 		.4byte	0x6b
 1538 020f 06       		.byte	0x6
 1539 0210 09       		.uleb128 0x9
 1540 0211 F8030000 		.4byte	.LASF40
 1541 0215 03       		.byte	0x3
 1542 0216 EF       		.byte	0xef
 1543 0217 6B000000 		.4byte	0x6b
 1544 021b 07       		.byte	0x7
 1545 021c 09       		.uleb128 0x9
 1546 021d 1C060000 		.4byte	.LASF41
 1547 0221 03       		.byte	0x3
 1548 0222 F0       		.byte	0xf0
 1549 0223 6B000000 		.4byte	0x6b
 1550 0227 08       		.byte	0x8
 1551 0228 0B       		.uleb128 0xb
 1552 0229 67617000 		.ascii	"gap\000"
 1553 022d 03       		.byte	0x3
 1554 022e F1       		.byte	0xf1
 1555 022f 35020000 		.4byte	0x235
 1556 0233 09       		.byte	0x9
 1557 0234 00       		.byte	0
 1558 0235 0C       		.uleb128 0xc
ARM GAS  C:\Users\214016~1\AppData\Local\Temp\ccCw4MGe.s 			page 73


 1559 0236 6B000000 		.4byte	0x6b
 1560 023a 45020000 		.4byte	0x245
 1561 023e 0D       		.uleb128 0xd
 1562 023f D9000000 		.4byte	0xd9
 1563 0243 06       		.byte	0x6
 1564 0244 00       		.byte	0
 1565 0245 0A       		.uleb128 0xa
 1566 0246 7C020000 		.4byte	.LASF42
 1567 024a 03       		.byte	0x3
 1568 024b F2       		.byte	0xf2
 1569 024c B4010000 		.4byte	0x1b4
 1570 0250 0E       		.uleb128 0xe
 1571 0251 90       		.byte	0x90
 1572 0252 03       		.byte	0x3
 1573 0253 0E01     		.2byte	0x10e
 1574 0255 67020000 		.4byte	0x267
 1575 0259 0F       		.uleb128 0xf
 1576 025a AF030000 		.4byte	.LASF43
 1577 025e 03       		.byte	0x3
 1578 025f 1001     		.2byte	0x110
 1579 0261 67020000 		.4byte	0x267
 1580 0265 00       		.byte	0
 1581 0266 00       		.byte	0
 1582 0267 0C       		.uleb128 0xc
 1583 0268 A9010000 		.4byte	0x1a9
 1584 026c 77020000 		.4byte	0x277
 1585 0270 0D       		.uleb128 0xd
 1586 0271 D9000000 		.4byte	0xd9
 1587 0275 08       		.byte	0x8
 1588 0276 00       		.byte	0
 1589 0277 04       		.uleb128 0x4
 1590 0278 6A030000 		.4byte	.LASF44
 1591 027c 03       		.byte	0x3
 1592 027d 1101     		.2byte	0x111
 1593 027f 50020000 		.4byte	0x250
 1594 0283 0E       		.uleb128 0xe
 1595 0284 90       		.byte	0x90
 1596 0285 03       		.byte	0x3
 1597 0286 1401     		.2byte	0x114
 1598 0288 9A020000 		.4byte	0x29a
 1599 028c 0F       		.uleb128 0xf
 1600 028d 4D030000 		.4byte	.LASF45
 1601 0291 03       		.byte	0x3
 1602 0292 1601     		.2byte	0x116
 1603 0294 9A020000 		.4byte	0x29a
 1604 0298 00       		.byte	0
 1605 0299 00       		.byte	0
 1606 029a 0C       		.uleb128 0xc
 1607 029b 45020000 		.4byte	0x245
 1608 029f AA020000 		.4byte	0x2aa
 1609 02a3 0D       		.uleb128 0xd
 1610 02a4 D9000000 		.4byte	0xd9
 1611 02a8 08       		.byte	0x8
 1612 02a9 00       		.byte	0
 1613 02aa 04       		.uleb128 0x4
 1614 02ab 83030000 		.4byte	.LASF46
 1615 02af 03       		.byte	0x3
ARM GAS  C:\Users\214016~1\AppData\Local\Temp\ccCw4MGe.s 			page 74


 1616 02b0 1701     		.2byte	0x117
 1617 02b2 83020000 		.4byte	0x283
 1618 02b6 10       		.uleb128 0x10
 1619 02b7 01020000 		.4byte	.LASF47
 1620 02bb 01       		.byte	0x1
 1621 02bc D3       		.byte	0xd3
 1622 02bd 00000000 		.4byte	.LFB1
 1623 02c1 2C010000 		.4byte	.LFE1-.LFB1
 1624 02c5 01       		.uleb128 0x1
 1625 02c6 9C       		.byte	0x9c
 1626 02c7 47040000 		.4byte	0x447
 1627 02cb 11       		.uleb128 0x11
 1628 02cc 65050000 		.4byte	.LASF53
 1629 02d0 01       		.byte	0x1
 1630 02d1 FA       		.byte	0xfa
 1631 02d2 6B000000 		.4byte	0x6b
 1632 02d6 00000000 		.4byte	.LLST0
 1633 02da 12       		.uleb128 0x12
 1634 02db 06000000 		.4byte	.LVL0
 1635 02df 1F090000 		.4byte	0x91f
 1636 02e3 13       		.uleb128 0x13
 1637 02e4 3C000000 		.4byte	.LVL2
 1638 02e8 2A090000 		.4byte	0x92a
 1639 02ec F6020000 		.4byte	0x2f6
 1640 02f0 14       		.uleb128 0x14
 1641 02f1 01       		.uleb128 0x1
 1642 02f2 50       		.byte	0x50
 1643 02f3 01       		.uleb128 0x1
 1644 02f4 30       		.byte	0x30
 1645 02f5 00       		.byte	0
 1646 02f6 13       		.uleb128 0x13
 1647 02f7 5C000000 		.4byte	.LVL3
 1648 02fb 2A090000 		.4byte	0x92a
 1649 02ff 0A030000 		.4byte	0x30a
 1650 0303 14       		.uleb128 0x14
 1651 0304 01       		.uleb128 0x1
 1652 0305 50       		.byte	0x50
 1653 0306 02       		.uleb128 0x2
 1654 0307 77       		.byte	0x77
 1655 0308 00       		.sleb128 0
 1656 0309 00       		.byte	0
 1657 030a 13       		.uleb128 0x13
 1658 030b 62000000 		.4byte	.LVL4
 1659 030f 2A090000 		.4byte	0x92a
 1660 0313 1E030000 		.4byte	0x31e
 1661 0317 14       		.uleb128 0x14
 1662 0318 01       		.uleb128 0x1
 1663 0319 50       		.byte	0x50
 1664 031a 02       		.uleb128 0x2
 1665 031b 08       		.byte	0x8
 1666 031c 28       		.byte	0x28
 1667 031d 00       		.byte	0
 1668 031e 13       		.uleb128 0x13
 1669 031f 80000000 		.4byte	.LVL5
 1670 0323 2A090000 		.4byte	0x92a
 1671 0327 32030000 		.4byte	0x332
 1672 032b 14       		.uleb128 0x14
ARM GAS  C:\Users\214016~1\AppData\Local\Temp\ccCw4MGe.s 			page 75


 1673 032c 01       		.uleb128 0x1
 1674 032d 50       		.byte	0x50
 1675 032e 02       		.uleb128 0x2
 1676 032f 75       		.byte	0x75
 1677 0330 00       		.sleb128 0
 1678 0331 00       		.byte	0
 1679 0332 13       		.uleb128 0x13
 1680 0333 98000000 		.4byte	.LVL6
 1681 0337 3B090000 		.4byte	0x93b
 1682 033b 46030000 		.4byte	0x346
 1683 033f 14       		.uleb128 0x14
 1684 0340 01       		.uleb128 0x1
 1685 0341 50       		.byte	0x50
 1686 0342 02       		.uleb128 0x2
 1687 0343 76       		.byte	0x76
 1688 0344 00       		.sleb128 0
 1689 0345 00       		.byte	0
 1690 0346 13       		.uleb128 0x13
 1691 0347 A0000000 		.4byte	.LVL7
 1692 034b 4C090000 		.4byte	0x94c
 1693 034f 5E030000 		.4byte	0x35e
 1694 0353 14       		.uleb128 0x14
 1695 0354 01       		.uleb128 0x1
 1696 0355 51       		.byte	0x51
 1697 0356 01       		.uleb128 0x1
 1698 0357 37       		.byte	0x37
 1699 0358 14       		.uleb128 0x14
 1700 0359 01       		.uleb128 0x1
 1701 035a 50       		.byte	0x50
 1702 035b 01       		.uleb128 0x1
 1703 035c 47       		.byte	0x47
 1704 035d 00       		.byte	0
 1705 035e 13       		.uleb128 0x13
 1706 035f A8000000 		.4byte	.LVL8
 1707 0363 62090000 		.4byte	0x962
 1708 0367 71030000 		.4byte	0x371
 1709 036b 14       		.uleb128 0x14
 1710 036c 01       		.uleb128 0x1
 1711 036d 50       		.byte	0x50
 1712 036e 01       		.uleb128 0x1
 1713 036f 47       		.byte	0x47
 1714 0370 00       		.byte	0
 1715 0371 13       		.uleb128 0x13
 1716 0372 B0000000 		.4byte	.LVL9
 1717 0376 4C090000 		.4byte	0x94c
 1718 037a 89030000 		.4byte	0x389
 1719 037e 14       		.uleb128 0x14
 1720 037f 01       		.uleb128 0x1
 1721 0380 51       		.byte	0x51
 1722 0381 01       		.uleb128 0x1
 1723 0382 37       		.byte	0x37
 1724 0383 14       		.uleb128 0x14
 1725 0384 01       		.uleb128 0x1
 1726 0385 50       		.byte	0x50
 1727 0386 01       		.uleb128 0x1
 1728 0387 48       		.byte	0x48
 1729 0388 00       		.byte	0
ARM GAS  C:\Users\214016~1\AppData\Local\Temp\ccCw4MGe.s 			page 76


 1730 0389 13       		.uleb128 0x13
 1731 038a B8000000 		.4byte	.LVL10
 1732 038e 62090000 		.4byte	0x962
 1733 0392 9C030000 		.4byte	0x39c
 1734 0396 14       		.uleb128 0x14
 1735 0397 01       		.uleb128 0x1
 1736 0398 50       		.byte	0x50
 1737 0399 01       		.uleb128 0x1
 1738 039a 48       		.byte	0x48
 1739 039b 00       		.byte	0
 1740 039c 13       		.uleb128 0x13
 1741 039d C0000000 		.4byte	.LVL11
 1742 03a1 4C090000 		.4byte	0x94c
 1743 03a5 B4030000 		.4byte	0x3b4
 1744 03a9 14       		.uleb128 0x14
 1745 03aa 01       		.uleb128 0x1
 1746 03ab 51       		.byte	0x51
 1747 03ac 01       		.uleb128 0x1
 1748 03ad 37       		.byte	0x37
 1749 03ae 14       		.uleb128 0x14
 1750 03af 01       		.uleb128 0x1
 1751 03b0 50       		.byte	0x50
 1752 03b1 01       		.uleb128 0x1
 1753 03b2 45       		.byte	0x45
 1754 03b3 00       		.byte	0
 1755 03b4 13       		.uleb128 0x13
 1756 03b5 C8000000 		.4byte	.LVL12
 1757 03b9 62090000 		.4byte	0x962
 1758 03bd C7030000 		.4byte	0x3c7
 1759 03c1 14       		.uleb128 0x14
 1760 03c2 01       		.uleb128 0x1
 1761 03c3 50       		.byte	0x50
 1762 03c4 01       		.uleb128 0x1
 1763 03c5 45       		.byte	0x45
 1764 03c6 00       		.byte	0
 1765 03c7 13       		.uleb128 0x13
 1766 03c8 D0000000 		.4byte	.LVL13
 1767 03cc 4C090000 		.4byte	0x94c
 1768 03d0 E0030000 		.4byte	0x3e0
 1769 03d4 14       		.uleb128 0x14
 1770 03d5 01       		.uleb128 0x1
 1771 03d6 51       		.byte	0x51
 1772 03d7 01       		.uleb128 0x1
 1773 03d8 37       		.byte	0x37
 1774 03d9 14       		.uleb128 0x14
 1775 03da 01       		.uleb128 0x1
 1776 03db 50       		.byte	0x50
 1777 03dc 02       		.uleb128 0x2
 1778 03dd 75       		.byte	0x75
 1779 03de 00       		.sleb128 0
 1780 03df 00       		.byte	0
 1781 03e0 13       		.uleb128 0x13
 1782 03e1 D8000000 		.4byte	.LVL14
 1783 03e5 62090000 		.4byte	0x962
 1784 03e9 F4030000 		.4byte	0x3f4
 1785 03ed 14       		.uleb128 0x14
 1786 03ee 01       		.uleb128 0x1
ARM GAS  C:\Users\214016~1\AppData\Local\Temp\ccCw4MGe.s 			page 77


 1787 03ef 50       		.byte	0x50
 1788 03f0 02       		.uleb128 0x2
 1789 03f1 75       		.byte	0x75
 1790 03f2 00       		.sleb128 0
 1791 03f3 00       		.byte	0
 1792 03f4 13       		.uleb128 0x13
 1793 03f5 E0000000 		.4byte	.LVL15
 1794 03f9 4C090000 		.4byte	0x94c
 1795 03fd 0C040000 		.4byte	0x40c
 1796 0401 14       		.uleb128 0x14
 1797 0402 01       		.uleb128 0x1
 1798 0403 51       		.byte	0x51
 1799 0404 01       		.uleb128 0x1
 1800 0405 37       		.byte	0x37
 1801 0406 14       		.uleb128 0x14
 1802 0407 01       		.uleb128 0x1
 1803 0408 50       		.byte	0x50
 1804 0409 01       		.uleb128 0x1
 1805 040a 33       		.byte	0x33
 1806 040b 00       		.byte	0
 1807 040c 13       		.uleb128 0x13
 1808 040d E8000000 		.4byte	.LVL16
 1809 0411 62090000 		.4byte	0x962
 1810 0415 1F040000 		.4byte	0x41f
 1811 0419 14       		.uleb128 0x14
 1812 041a 01       		.uleb128 0x1
 1813 041b 50       		.byte	0x50
 1814 041c 01       		.uleb128 0x1
 1815 041d 33       		.byte	0x33
 1816 041e 00       		.byte	0
 1817 041f 13       		.uleb128 0x13
 1818 0420 F0000000 		.4byte	.LVL17
 1819 0424 4C090000 		.4byte	0x94c
 1820 0428 37040000 		.4byte	0x437
 1821 042c 14       		.uleb128 0x14
 1822 042d 01       		.uleb128 0x1
 1823 042e 51       		.byte	0x51
 1824 042f 01       		.uleb128 0x1
 1825 0430 37       		.byte	0x37
 1826 0431 14       		.uleb128 0x14
 1827 0432 01       		.uleb128 0x1
 1828 0433 50       		.byte	0x50
 1829 0434 01       		.uleb128 0x1
 1830 0435 3C       		.byte	0x3c
 1831 0436 00       		.byte	0
 1832 0437 15       		.uleb128 0x15
 1833 0438 F8000000 		.4byte	.LVL18
 1834 043c 62090000 		.4byte	0x962
 1835 0440 14       		.uleb128 0x14
 1836 0441 01       		.uleb128 0x1
 1837 0442 50       		.byte	0x50
 1838 0443 01       		.uleb128 0x1
 1839 0444 3C       		.byte	0x3c
 1840 0445 00       		.byte	0
 1841 0446 00       		.byte	0
 1842 0447 16       		.uleb128 0x16
 1843 0448 E2040000 		.4byte	.LASF48
ARM GAS  C:\Users\214016~1\AppData\Local\Temp\ccCw4MGe.s 			page 78


 1844 044c 01       		.byte	0x1
 1845 044d CC01     		.2byte	0x1cc
 1846 044f 00000000 		.4byte	.LFB2
 1847 0453 B4000000 		.4byte	.LFE2-.LFB2
 1848 0457 01       		.uleb128 0x1
 1849 0458 9C       		.byte	0x9c
 1850 0459 8D040000 		.4byte	0x48d
 1851 045d 17       		.uleb128 0x17
 1852 045e 59010000 		.4byte	.LASF49
 1853 0462 01       		.byte	0x1
 1854 0463 CC01     		.2byte	0x1cc
 1855 0465 6B000000 		.4byte	0x6b
 1856 0469 13000000 		.4byte	.LLST1
 1857 046d 17       		.uleb128 0x17
 1858 046e 1E050000 		.4byte	.LASF50
 1859 0472 01       		.byte	0x1
 1860 0473 CC01     		.2byte	0x1cc
 1861 0475 6B000000 		.4byte	0x6b
 1862 0479 34000000 		.4byte	.LLST2
 1863 047d 15       		.uleb128 0x15
 1864 047e 7C000000 		.4byte	.LVL22
 1865 0482 7C090000 		.4byte	0x97c
 1866 0486 14       		.uleb128 0x14
 1867 0487 01       		.uleb128 0x1
 1868 0488 50       		.byte	0x50
 1869 0489 01       		.uleb128 0x1
 1870 048a 31       		.byte	0x31
 1871 048b 00       		.byte	0
 1872 048c 00       		.byte	0
 1873 048d 10       		.uleb128 0x10
 1874 048e 7D000000 		.4byte	.LASF51
 1875 0492 01       		.byte	0x1
 1876 0493 BA       		.byte	0xba
 1877 0494 00000000 		.4byte	.LFB0
 1878 0498 24000000 		.4byte	.LFE0-.LFB0
 1879 049c 01       		.uleb128 0x1
 1880 049d 9C       		.byte	0x9c
 1881 049e E0040000 		.4byte	0x4e0
 1882 04a2 18       		.uleb128 0x18
 1883 04a3 59010000 		.4byte	.LASF49
 1884 04a7 01       		.byte	0x1
 1885 04a8 BA       		.byte	0xba
 1886 04a9 6B000000 		.4byte	0x6b
 1887 04ad 55000000 		.4byte	.LLST3
 1888 04b1 18       		.uleb128 0x18
 1889 04b2 1E050000 		.4byte	.LASF50
 1890 04b6 01       		.byte	0x1
 1891 04b7 BA       		.byte	0xba
 1892 04b8 6B000000 		.4byte	0x6b
 1893 04bc 76000000 		.4byte	.LLST4
 1894 04c0 12       		.uleb128 0x12
 1895 04c1 10000000 		.4byte	.LVL24
 1896 04c5 B6020000 		.4byte	0x2b6
 1897 04c9 15       		.uleb128 0x15
 1898 04ca 1E000000 		.4byte	.LVL25
 1899 04ce 47040000 		.4byte	0x447
 1900 04d2 14       		.uleb128 0x14
ARM GAS  C:\Users\214016~1\AppData\Local\Temp\ccCw4MGe.s 			page 79


 1901 04d3 01       		.uleb128 0x1
 1902 04d4 51       		.byte	0x51
 1903 04d5 02       		.uleb128 0x2
 1904 04d6 74       		.byte	0x74
 1905 04d7 00       		.sleb128 0
 1906 04d8 14       		.uleb128 0x14
 1907 04d9 01       		.uleb128 0x1
 1908 04da 50       		.byte	0x50
 1909 04db 02       		.uleb128 0x2
 1910 04dc 75       		.byte	0x75
 1911 04dd 00       		.sleb128 0
 1912 04de 00       		.byte	0
 1913 04df 00       		.byte	0
 1914 04e0 19       		.uleb128 0x19
 1915 04e1 66060000 		.4byte	.LASF78
 1916 04e5 01       		.byte	0x1
 1917 04e6 9F02     		.2byte	0x29f
 1918 04e8 00000000 		.4byte	.LFB3
 1919 04ec 4C000000 		.4byte	.LFE3-.LFB3
 1920 04f0 01       		.uleb128 0x1
 1921 04f1 9C       		.byte	0x9c
 1922 04f2 16       		.uleb128 0x16
 1923 04f3 56050000 		.4byte	.LASF52
 1924 04f7 01       		.byte	0x1
 1925 04f8 D902     		.2byte	0x2d9
 1926 04fa 00000000 		.4byte	.LFB4
 1927 04fe B4000000 		.4byte	.LFE4-.LFB4
 1928 0502 01       		.uleb128 0x1
 1929 0503 9C       		.byte	0x9c
 1930 0504 34050000 		.4byte	0x534
 1931 0508 1A       		.uleb128 0x1a
 1932 0509 65050000 		.4byte	.LASF53
 1933 050d 01       		.byte	0x1
 1934 050e DB02     		.2byte	0x2db
 1935 0510 6B000000 		.4byte	0x6b
 1936 0514 97000000 		.4byte	.LLST5
 1937 0518 12       		.uleb128 0x12
 1938 0519 06000000 		.4byte	.LVL26
 1939 051d 1F090000 		.4byte	0x91f
 1940 0521 12       		.uleb128 0x12
 1941 0522 48000000 		.4byte	.LVL27
 1942 0526 3B090000 		.4byte	0x93b
 1943 052a 12       		.uleb128 0x12
 1944 052b 68000000 		.4byte	.LVL28
 1945 052f 8D090000 		.4byte	0x98d
 1946 0533 00       		.byte	0
 1947 0534 1B       		.uleb128 0x1b
 1948 0535 DA020000 		.4byte	.LASF55
 1949 0539 01       		.byte	0x1
 1950 053a 5103     		.2byte	0x351
 1951 053c 6B000000 		.4byte	0x6b
 1952 0540 00000000 		.4byte	.LFB5
 1953 0544 20000000 		.4byte	.LFE5-.LFB5
 1954 0548 01       		.uleb128 0x1
 1955 0549 9C       		.byte	0x9c
 1956 054a 5F050000 		.4byte	0x55f
 1957 054e 1A       		.uleb128 0x1a
ARM GAS  C:\Users\214016~1\AppData\Local\Temp\ccCw4MGe.s 			page 80


 1958 054f 5D030000 		.4byte	.LASF54
 1959 0553 01       		.byte	0x1
 1960 0554 5303     		.2byte	0x353
 1961 0556 6B000000 		.4byte	0x6b
 1962 055a AA000000 		.4byte	.LLST6
 1963 055e 00       		.byte	0
 1964 055f 1C       		.uleb128 0x1c
 1965 0560 01010000 		.4byte	.LASF76
 1966 0564 01       		.byte	0x1
 1967 0565 6803     		.2byte	0x368
 1968 0567 6B000000 		.4byte	0x6b
 1969 056b 00000000 		.4byte	.LFB6
 1970 056f 0C000000 		.4byte	.LFE6-.LFB6
 1971 0573 01       		.uleb128 0x1
 1972 0574 9C       		.byte	0x9c
 1973 0575 1B       		.uleb128 0x1b
 1974 0576 B4010000 		.4byte	.LASF56
 1975 057a 01       		.byte	0x1
 1976 057b 8203     		.2byte	0x382
 1977 057d 6B000000 		.4byte	0x6b
 1978 0581 00000000 		.4byte	.LFB7
 1979 0585 20000000 		.4byte	.LFE7-.LFB7
 1980 0589 01       		.uleb128 0x1
 1981 058a 9C       		.byte	0x9c
 1982 058b A0050000 		.4byte	0x5a0
 1983 058f 1D       		.uleb128 0x1d
 1984 0590 72657300 		.ascii	"res\000"
 1985 0594 01       		.byte	0x1
 1986 0595 8403     		.2byte	0x384
 1987 0597 6B000000 		.4byte	0x6b
 1988 059b BD000000 		.4byte	.LLST7
 1989 059f 00       		.byte	0
 1990 05a0 1B       		.uleb128 0x1b
 1991 05a1 60010000 		.4byte	.LASF57
 1992 05a5 01       		.byte	0x1
 1993 05a6 9F03     		.2byte	0x39f
 1994 05a8 6B000000 		.4byte	0x6b
 1995 05ac 00000000 		.4byte	.LFB8
 1996 05b0 0C000000 		.4byte	.LFE8-.LFB8
 1997 05b4 01       		.uleb128 0x1
 1998 05b5 9C       		.byte	0x9c
 1999 05b6 CB050000 		.4byte	0x5cb
 2000 05ba 17       		.uleb128 0x17
 2001 05bb 46050000 		.4byte	.LASF58
 2002 05bf 01       		.byte	0x1
 2003 05c0 9F03     		.2byte	0x39f
 2004 05c2 6B000000 		.4byte	0x6b
 2005 05c6 F3000000 		.4byte	.LLST8
 2006 05ca 00       		.byte	0
 2007 05cb 1B       		.uleb128 0x1b
 2008 05cc 51060000 		.4byte	.LASF59
 2009 05d0 01       		.byte	0x1
 2010 05d1 BF03     		.2byte	0x3bf
 2011 05d3 6B000000 		.4byte	0x6b
 2012 05d7 00000000 		.4byte	.LFB9
 2013 05db 14000000 		.4byte	.LFE9-.LFB9
 2014 05df 01       		.uleb128 0x1
ARM GAS  C:\Users\214016~1\AppData\Local\Temp\ccCw4MGe.s 			page 81


 2015 05e0 9C       		.byte	0x9c
 2016 05e1 F6050000 		.4byte	0x5f6
 2017 05e5 17       		.uleb128 0x17
 2018 05e6 3A010000 		.4byte	.LASF60
 2019 05ea 01       		.byte	0x1
 2020 05eb BF03     		.2byte	0x3bf
 2021 05ed 6B000000 		.4byte	0x6b
 2022 05f1 14010000 		.4byte	.LLST9
 2023 05f5 00       		.byte	0
 2024 05f6 1B       		.uleb128 0x1b
 2025 05f7 68000000 		.4byte	.LASF61
 2026 05fb 01       		.byte	0x1
 2027 05fc D603     		.2byte	0x3d6
 2028 05fe 77000000 		.4byte	0x77
 2029 0602 00000000 		.4byte	.LFB10
 2030 0606 28000000 		.4byte	.LFE10-.LFB10
 2031 060a 01       		.uleb128 0x1
 2032 060b 9C       		.byte	0x9c
 2033 060c 31060000 		.4byte	0x631
 2034 0610 17       		.uleb128 0x17
 2035 0611 3A010000 		.4byte	.LASF60
 2036 0615 01       		.byte	0x1
 2037 0616 D603     		.2byte	0x3d6
 2038 0618 6B000000 		.4byte	0x6b
 2039 061c 35010000 		.4byte	.LLST10
 2040 0620 1A       		.uleb128 0x1a
 2041 0621 DF010000 		.4byte	.LASF62
 2042 0625 01       		.byte	0x1
 2043 0626 D803     		.2byte	0x3d8
 2044 0628 77000000 		.4byte	0x77
 2045 062c 6F010000 		.4byte	.LLST11
 2046 0630 00       		.byte	0
 2047 0631 16       		.uleb128 0x16
 2048 0632 3C000000 		.4byte	.LASF63
 2049 0636 01       		.byte	0x1
 2050 0637 3E05     		.2byte	0x53e
 2051 0639 00000000 		.4byte	.LFB11
 2052 063d 94000000 		.4byte	.LFE11-.LFB11
 2053 0641 01       		.uleb128 0x1
 2054 0642 9C       		.byte	0x9c
 2055 0643 8A060000 		.4byte	0x68a
 2056 0647 17       		.uleb128 0x17
 2057 0648 3A010000 		.4byte	.LASF60
 2058 064c 01       		.byte	0x1
 2059 064d 3E05     		.2byte	0x53e
 2060 064f 6B000000 		.4byte	0x6b
 2061 0653 BD010000 		.4byte	.LLST12
 2062 0657 1E       		.uleb128 0x1e
 2063 0658 6F020000 		.4byte	.LASF64
 2064 065c 01       		.byte	0x1
 2065 065d 3E05     		.2byte	0x53e
 2066 065f 8A060000 		.4byte	0x68a
 2067 0663 01       		.uleb128 0x1
 2068 0664 51       		.byte	0x51
 2069 0665 17       		.uleb128 0x17
 2070 0666 12050000 		.4byte	.LASF65
 2071 066a 01       		.byte	0x1
ARM GAS  C:\Users\214016~1\AppData\Local\Temp\ccCw4MGe.s 			page 82


 2072 066b 3E05     		.2byte	0x53e
 2073 066d 77000000 		.4byte	0x77
 2074 0671 DE010000 		.4byte	.LLST13
 2075 0675 1F       		.uleb128 0x1f
 2076 0676 00000000 		.4byte	.Ldebug_ranges0+0
 2077 067a 1D       		.uleb128 0x1d
 2078 067b 6900     		.ascii	"i\000"
 2079 067d 01       		.byte	0x1
 2080 067e 5305     		.2byte	0x553
 2081 0680 77000000 		.4byte	0x77
 2082 0684 0A020000 		.4byte	.LLST14
 2083 0688 00       		.byte	0
 2084 0689 00       		.byte	0
 2085 068a 06       		.uleb128 0x6
 2086 068b 04       		.byte	0x4
 2087 068c 90060000 		.4byte	0x690
 2088 0690 20       		.uleb128 0x20
 2089 0691 6B000000 		.4byte	0x6b
 2090 0695 16       		.uleb128 0x16
 2091 0696 43010000 		.4byte	.LASF66
 2092 069a 01       		.byte	0x1
 2093 069b E408     		.2byte	0x8e4
 2094 069d 00000000 		.4byte	.LFB13
 2095 06a1 2C000000 		.4byte	.LFE13-.LFB13
 2096 06a5 01       		.uleb128 0x1
 2097 06a6 9C       		.byte	0x9c
 2098 06a7 BC060000 		.4byte	0x6bc
 2099 06ab 17       		.uleb128 0x17
 2100 06ac 3A010000 		.4byte	.LASF60
 2101 06b0 01       		.byte	0x1
 2102 06b1 E408     		.2byte	0x8e4
 2103 06b3 6B000000 		.4byte	0x6b
 2104 06b7 33020000 		.4byte	.LLST15
 2105 06bb 00       		.byte	0
 2106 06bc 1B       		.uleb128 0x1b
 2107 06bd B5040000 		.4byte	.LASF67
 2108 06c1 01       		.byte	0x1
 2109 06c2 7506     		.2byte	0x675
 2110 06c4 77000000 		.4byte	0x77
 2111 06c8 00000000 		.4byte	.LFB12
 2112 06cc 50000000 		.4byte	.LFE12-.LFB12
 2113 06d0 01       		.uleb128 0x1
 2114 06d1 9C       		.byte	0x9c
 2115 06d2 5B070000 		.4byte	0x75b
 2116 06d6 17       		.uleb128 0x17
 2117 06d7 3A010000 		.4byte	.LASF60
 2118 06db 01       		.byte	0x1
 2119 06dc 7506     		.2byte	0x675
 2120 06de 6B000000 		.4byte	0x6b
 2121 06e2 54020000 		.4byte	.LLST16
 2122 06e6 17       		.uleb128 0x17
 2123 06e7 6F020000 		.4byte	.LASF64
 2124 06eb 01       		.byte	0x1
 2125 06ec 7506     		.2byte	0x675
 2126 06ee 5B070000 		.4byte	0x75b
 2127 06f2 8E020000 		.4byte	.LLST17
 2128 06f6 17       		.uleb128 0x17
ARM GAS  C:\Users\214016~1\AppData\Local\Temp\ccCw4MGe.s 			page 83


 2129 06f7 12050000 		.4byte	.LASF65
 2130 06fb 01       		.byte	0x1
 2131 06fc 7506     		.2byte	0x675
 2132 06fe 77000000 		.4byte	0x77
 2133 0702 C5020000 		.4byte	.LLST18
 2134 0706 21       		.uleb128 0x21
 2135 0707 20000000 		.4byte	.LBB4
 2136 070b 14000000 		.4byte	.LBE4-.LBB4
 2137 070f 22070000 		.4byte	0x722
 2138 0713 1D       		.uleb128 0x1d
 2139 0714 6900     		.ascii	"i\000"
 2140 0716 01       		.byte	0x1
 2141 0717 8206     		.2byte	0x682
 2142 0719 77000000 		.4byte	0x77
 2143 071d 07030000 		.4byte	.LLST19
 2144 0721 00       		.byte	0
 2145 0722 13       		.uleb128 0x13
 2146 0723 14000000 		.4byte	.LVL61
 2147 0727 F6050000 		.4byte	0x5f6
 2148 072b 36070000 		.4byte	0x736
 2149 072f 14       		.uleb128 0x14
 2150 0730 01       		.uleb128 0x1
 2151 0731 50       		.byte	0x50
 2152 0732 02       		.uleb128 0x2
 2153 0733 75       		.byte	0x75
 2154 0734 00       		.sleb128 0
 2155 0735 00       		.byte	0
 2156 0736 13       		.uleb128 0x13
 2157 0737 1E000000 		.4byte	.LVL62
 2158 073b F6050000 		.4byte	0x5f6
 2159 073f 4A070000 		.4byte	0x74a
 2160 0743 14       		.uleb128 0x14
 2161 0744 01       		.uleb128 0x1
 2162 0745 50       		.byte	0x50
 2163 0746 02       		.uleb128 0x2
 2164 0747 75       		.byte	0x75
 2165 0748 00       		.sleb128 0
 2166 0749 00       		.byte	0
 2167 074a 15       		.uleb128 0x15
 2168 074b 3A000000 		.4byte	.LVL67
 2169 074f 95060000 		.4byte	0x695
 2170 0753 14       		.uleb128 0x14
 2171 0754 01       		.uleb128 0x1
 2172 0755 50       		.byte	0x50
 2173 0756 02       		.uleb128 0x2
 2174 0757 75       		.byte	0x75
 2175 0758 00       		.sleb128 0
 2176 0759 00       		.byte	0
 2177 075a 00       		.byte	0
 2178 075b 06       		.uleb128 0x6
 2179 075c 04       		.byte	0x4
 2180 075d 6B000000 		.4byte	0x6b
 2181 0761 16       		.uleb128 0x16
 2182 0762 96040000 		.4byte	.LASF68
 2183 0766 01       		.byte	0x1
 2184 0767 FC08     		.2byte	0x8fc
 2185 0769 00000000 		.4byte	.LFB14
ARM GAS  C:\Users\214016~1\AppData\Local\Temp\ccCw4MGe.s 			page 84


 2186 076d 18000000 		.4byte	.LFE14-.LFB14
 2187 0771 01       		.uleb128 0x1
 2188 0772 9C       		.byte	0x9c
 2189 0773 88070000 		.4byte	0x788
 2190 0777 17       		.uleb128 0x17
 2191 0778 3A010000 		.4byte	.LASF60
 2192 077c 01       		.byte	0x1
 2193 077d FC08     		.2byte	0x8fc
 2194 077f 6B000000 		.4byte	0x6b
 2195 0783 31030000 		.4byte	.LLST20
 2196 0787 00       		.byte	0
 2197 0788 16       		.uleb128 0x16
 2198 0789 1B030000 		.4byte	.LASF69
 2199 078d 01       		.byte	0x1
 2200 078e 1A09     		.2byte	0x91a
 2201 0790 00000000 		.4byte	.LFB15
 2202 0794 0C000000 		.4byte	.LFE15-.LFB15
 2203 0798 01       		.uleb128 0x1
 2204 0799 9C       		.byte	0x9c
 2205 079a AD070000 		.4byte	0x7ad
 2206 079e 1E       		.uleb128 0x1e
 2207 079f C9040000 		.4byte	.LASF70
 2208 07a3 01       		.byte	0x1
 2209 07a4 1A09     		.2byte	0x91a
 2210 07a6 6B000000 		.4byte	0x6b
 2211 07aa 01       		.uleb128 0x1
 2212 07ab 50       		.byte	0x50
 2213 07ac 00       		.byte	0
 2214 07ad 1B       		.uleb128 0x1b
 2215 07ae 79040000 		.4byte	.LASF71
 2216 07b2 01       		.byte	0x1
 2217 07b3 3309     		.2byte	0x933
 2218 07b5 6B000000 		.4byte	0x6b
 2219 07b9 00000000 		.4byte	.LFB16
 2220 07bd 20000000 		.4byte	.LFE16-.LFB16
 2221 07c1 01       		.uleb128 0x1
 2222 07c2 9C       		.byte	0x9c
 2223 07c3 E7070000 		.4byte	0x7e7
 2224 07c7 17       		.uleb128 0x17
 2225 07c8 3A010000 		.4byte	.LASF60
 2226 07cc 01       		.byte	0x1
 2227 07cd 3309     		.2byte	0x933
 2228 07cf 6B000000 		.4byte	0x6b
 2229 07d3 52030000 		.4byte	.LLST21
 2230 07d7 1D       		.uleb128 0x1d
 2231 07d8 637200   		.ascii	"cr\000"
 2232 07db 01       		.byte	0x1
 2233 07dc 3509     		.2byte	0x935
 2234 07de 6B000000 		.4byte	0x6b
 2235 07e2 8C030000 		.4byte	.LLST22
 2236 07e6 00       		.byte	0
 2237 07e7 16       		.uleb128 0x16
 2238 07e8 DF030000 		.4byte	.LASF72
 2239 07ec 01       		.byte	0x1
 2240 07ed 5C09     		.2byte	0x95c
 2241 07ef 00000000 		.4byte	.LFB17
 2242 07f3 20000000 		.4byte	.LFE17-.LFB17
ARM GAS  C:\Users\214016~1\AppData\Local\Temp\ccCw4MGe.s 			page 85


 2243 07f7 01       		.uleb128 0x1
 2244 07f8 9C       		.byte	0x9c
 2245 07f9 0C080000 		.4byte	0x80c
 2246 07fd 1E       		.uleb128 0x1e
 2247 07fe 17020000 		.4byte	.LASF73
 2248 0802 01       		.byte	0x1
 2249 0803 5C09     		.2byte	0x95c
 2250 0805 6B000000 		.4byte	0x6b
 2251 0809 01       		.uleb128 0x1
 2252 080a 50       		.byte	0x50
 2253 080b 00       		.byte	0
 2254 080c 1B       		.uleb128 0x1b
 2255 080d 39020000 		.4byte	.LASF74
 2256 0811 01       		.byte	0x1
 2257 0812 9509     		.2byte	0x995
 2258 0814 6B000000 		.4byte	0x6b
 2259 0818 00000000 		.4byte	.LFB18
 2260 081c 18000000 		.4byte	.LFE18-.LFB18
 2261 0820 01       		.uleb128 0x1
 2262 0821 9C       		.byte	0x9c
 2263 0822 37080000 		.4byte	0x837
 2264 0826 1A       		.uleb128 0x1a
 2265 0827 97060000 		.4byte	.LASF75
 2266 082b 01       		.byte	0x1
 2267 082c 9709     		.2byte	0x997
 2268 082e 6B000000 		.4byte	0x6b
 2269 0832 C2030000 		.4byte	.LLST23
 2270 0836 00       		.byte	0
 2271 0837 1C       		.uleb128 0x1c
 2272 0838 9E060000 		.4byte	.LASF77
 2273 083c 01       		.byte	0x1
 2274 083d AD09     		.2byte	0x9ad
 2275 083f 6B000000 		.4byte	0x6b
 2276 0843 00000000 		.4byte	.LFB19
 2277 0847 10000000 		.4byte	.LFE19-.LFB19
 2278 084b 01       		.uleb128 0x1
 2279 084c 9C       		.byte	0x9c
 2280 084d 19       		.uleb128 0x19
 2281 084e 80060000 		.4byte	.LASF79
 2282 0852 01       		.byte	0x1
 2283 0853 BB09     		.2byte	0x9bb
 2284 0855 00000000 		.4byte	.LFB20
 2285 0859 10000000 		.4byte	.LFE20-.LFB20
 2286 085d 01       		.uleb128 0x1
 2287 085e 9C       		.byte	0x9c
 2288 085f 19       		.uleb128 0x19
 2289 0860 E4000000 		.4byte	.LASF80
 2290 0864 01       		.byte	0x1
 2291 0865 D109     		.2byte	0x9d1
 2292 0867 00000000 		.4byte	.LFB21
 2293 086b 10000000 		.4byte	.LFE21-.LFB21
 2294 086f 01       		.uleb128 0x1
 2295 0870 9C       		.byte	0x9c
 2296 0871 22       		.uleb128 0x22
 2297 0872 D0040000 		.4byte	.LASF81
 2298 0876 01       		.byte	0x1
 2299 0877 28       		.byte	0x28
ARM GAS  C:\Users\214016~1\AppData\Local\Temp\ccCw4MGe.s 			page 86


 2300 0878 6B000000 		.4byte	0x6b
 2301 087c 05       		.uleb128 0x5
 2302 087d 03       		.byte	0x3
 2303 087e 00000000 		.4byte	USBMIDI_1_initVar
 2304 0882 23       		.uleb128 0x23
 2305 0883 23020000 		.4byte	.LASF82
 2306 0887 03       		.byte	0x3
 2307 0888 D202     		.2byte	0x2d2
 2308 088a B0000000 		.4byte	0xb0
 2309 088e 23       		.uleb128 0x23
 2310 088f 1C010000 		.4byte	.LASF83
 2311 0893 03       		.byte	0x3
 2312 0894 D302     		.2byte	0x2d3
 2313 0896 B0000000 		.4byte	0xb0
 2314 089a 23       		.uleb128 0x23
 2315 089b FA040000 		.4byte	.LASF84
 2316 089f 03       		.byte	0x3
 2317 08a0 D402     		.2byte	0x2d4
 2318 08a2 B0000000 		.4byte	0xb0
 2319 08a6 23       		.uleb128 0x23
 2320 08a7 1D000000 		.4byte	.LASF85
 2321 08ab 03       		.byte	0x3
 2322 08ac D502     		.2byte	0x2d5
 2323 08ae B0000000 		.4byte	0xb0
 2324 08b2 23       		.uleb128 0x23
 2325 08b3 B6020000 		.4byte	.LASF86
 2326 08b7 03       		.byte	0x3
 2327 08b8 D602     		.2byte	0x2d6
 2328 08ba B0000000 		.4byte	0xb0
 2329 08be 24       		.uleb128 0x24
 2330 08bf 55020000 		.4byte	.LASF87
 2331 08c3 04       		.byte	0x4
 2332 08c4 72       		.byte	0x72
 2333 08c5 B0000000 		.4byte	0xb0
 2334 08c9 0C       		.uleb128 0xc
 2335 08ca 6B000000 		.4byte	0x6b
 2336 08ce D9080000 		.4byte	0x8d9
 2337 08d2 0D       		.uleb128 0xd
 2338 08d3 D9000000 		.4byte	0xd9
 2339 08d7 01       		.byte	0x1
 2340 08d8 00       		.byte	0
 2341 08d9 24       		.uleb128 0x24
 2342 08da 21060000 		.4byte	.LASF88
 2343 08de 04       		.byte	0x4
 2344 08df 73       		.byte	0x73
 2345 08e0 E4080000 		.4byte	0x8e4
 2346 08e4 05       		.uleb128 0x5
 2347 08e5 C9080000 		.4byte	0x8c9
 2348 08e9 24       		.uleb128 0x24
 2349 08ea 49040000 		.4byte	.LASF89
 2350 08ee 04       		.byte	0x4
 2351 08ef 75       		.byte	0x75
 2352 08f0 B0000000 		.4byte	0xb0
 2353 08f4 0C       		.uleb128 0xc
 2354 08f5 55010000 		.4byte	0x155
 2355 08f9 04090000 		.4byte	0x904
 2356 08fd 0D       		.uleb128 0xd
ARM GAS  C:\Users\214016~1\AppData\Local\Temp\ccCw4MGe.s 			page 87


 2357 08fe D9000000 		.4byte	0xd9
 2358 0902 08       		.byte	0x8
 2359 0903 00       		.byte	0
 2360 0904 24       		.uleb128 0x24
 2361 0905 3C060000 		.4byte	.LASF90
 2362 0909 04       		.byte	0x4
 2363 090a 79       		.byte	0x79
 2364 090b 0F090000 		.4byte	0x90f
 2365 090f 05       		.uleb128 0x5
 2366 0910 F4080000 		.4byte	0x8f4
 2367 0914 24       		.uleb128 0x24
 2368 0915 4F000000 		.4byte	.LASF91
 2369 0919 04       		.byte	0x4
 2370 091a 9B       		.byte	0x9b
 2371 091b B0000000 		.4byte	0xb0
 2372 091f 25       		.uleb128 0x25
 2373 0920 04030000 		.4byte	.LASF96
 2374 0924 05       		.byte	0x5
 2375 0925 7D       		.byte	0x7d
 2376 0926 6B000000 		.4byte	0x6b
 2377 092a 26       		.uleb128 0x26
 2378 092b D5010000 		.4byte	.LASF92
 2379 092f 05       		.byte	0x5
 2380 0930 77       		.byte	0x77
 2381 0931 3B090000 		.4byte	0x93b
 2382 0935 27       		.uleb128 0x27
 2383 0936 77000000 		.4byte	0x77
 2384 093a 00       		.byte	0
 2385 093b 26       		.uleb128 0x26
 2386 093c 07000000 		.4byte	.LASF93
 2387 0940 05       		.byte	0x5
 2388 0941 7E       		.byte	0x7e
 2389 0942 4C090000 		.4byte	0x94c
 2390 0946 27       		.uleb128 0x27
 2391 0947 6B000000 		.4byte	0x6b
 2392 094b 00       		.byte	0
 2393 094c 26       		.uleb128 0x26
 2394 094d 0E040000 		.4byte	.LASF94
 2395 0951 05       		.byte	0x5
 2396 0952 8B       		.byte	0x8b
 2397 0953 62090000 		.4byte	0x962
 2398 0957 27       		.uleb128 0x27
 2399 0958 6B000000 		.4byte	0x6b
 2400 095c 27       		.uleb128 0x27
 2401 095d 6B000000 		.4byte	0x6b
 2402 0961 00       		.byte	0
 2403 0962 28       		.uleb128 0x28
 2404 0963 3E030000 		.4byte	.LASF101
 2405 0967 05       		.byte	0x5
 2406 0968 88       		.byte	0x88
 2407 0969 C6000000 		.4byte	0xc6
 2408 096d 7C090000 		.4byte	0x97c
 2409 0971 27       		.uleb128 0x27
 2410 0972 6B000000 		.4byte	0x6b
 2411 0976 27       		.uleb128 0x27
 2412 0977 C6000000 		.4byte	0xc6
 2413 097b 00       		.byte	0
ARM GAS  C:\Users\214016~1\AppData\Local\Temp\ccCw4MGe.s 			page 88


 2414 097c 26       		.uleb128 0x26
 2415 097d 36040000 		.4byte	.LASF95
 2416 0981 05       		.byte	0x5
 2417 0982 79       		.byte	0x79
 2418 0983 8D090000 		.4byte	0x98d
 2419 0987 27       		.uleb128 0x27
 2420 0988 83000000 		.4byte	0x83
 2421 098c 00       		.byte	0
 2422 098d 25       		.uleb128 0x25
 2423 098e 98010000 		.4byte	.LASF97
 2424 0992 06       		.byte	0x6
 2425 0993 2B       		.byte	0x2b
 2426 0994 6B000000 		.4byte	0x6b
 2427 0998 00       		.byte	0
 2428              		.section	.debug_abbrev,"",%progbits
 2429              	.Ldebug_abbrev0:
 2430 0000 01       		.uleb128 0x1
 2431 0001 11       		.uleb128 0x11
 2432 0002 01       		.byte	0x1
 2433 0003 25       		.uleb128 0x25
 2434 0004 0E       		.uleb128 0xe
 2435 0005 13       		.uleb128 0x13
 2436 0006 0B       		.uleb128 0xb
 2437 0007 03       		.uleb128 0x3
 2438 0008 0E       		.uleb128 0xe
 2439 0009 1B       		.uleb128 0x1b
 2440 000a 0E       		.uleb128 0xe
 2441 000b 55       		.uleb128 0x55
 2442 000c 17       		.uleb128 0x17
 2443 000d 11       		.uleb128 0x11
 2444 000e 01       		.uleb128 0x1
 2445 000f 10       		.uleb128 0x10
 2446 0010 17       		.uleb128 0x17
 2447 0011 00       		.byte	0
 2448 0012 00       		.byte	0
 2449 0013 02       		.uleb128 0x2
 2450 0014 24       		.uleb128 0x24
 2451 0015 00       		.byte	0
 2452 0016 0B       		.uleb128 0xb
 2453 0017 0B       		.uleb128 0xb
 2454 0018 3E       		.uleb128 0x3e
 2455 0019 0B       		.uleb128 0xb
 2456 001a 03       		.uleb128 0x3
 2457 001b 0E       		.uleb128 0xe
 2458 001c 00       		.byte	0
 2459 001d 00       		.byte	0
 2460 001e 03       		.uleb128 0x3
 2461 001f 24       		.uleb128 0x24
 2462 0020 00       		.byte	0
 2463 0021 0B       		.uleb128 0xb
 2464 0022 0B       		.uleb128 0xb
 2465 0023 3E       		.uleb128 0x3e
 2466 0024 0B       		.uleb128 0xb
 2467 0025 03       		.uleb128 0x3
 2468 0026 08       		.uleb128 0x8
 2469 0027 00       		.byte	0
 2470 0028 00       		.byte	0
ARM GAS  C:\Users\214016~1\AppData\Local\Temp\ccCw4MGe.s 			page 89


 2471 0029 04       		.uleb128 0x4
 2472 002a 16       		.uleb128 0x16
 2473 002b 00       		.byte	0
 2474 002c 03       		.uleb128 0x3
 2475 002d 0E       		.uleb128 0xe
 2476 002e 3A       		.uleb128 0x3a
 2477 002f 0B       		.uleb128 0xb
 2478 0030 3B       		.uleb128 0x3b
 2479 0031 05       		.uleb128 0x5
 2480 0032 49       		.uleb128 0x49
 2481 0033 13       		.uleb128 0x13
 2482 0034 00       		.byte	0
 2483 0035 00       		.byte	0
 2484 0036 05       		.uleb128 0x5
 2485 0037 35       		.uleb128 0x35
 2486 0038 00       		.byte	0
 2487 0039 49       		.uleb128 0x49
 2488 003a 13       		.uleb128 0x13
 2489 003b 00       		.byte	0
 2490 003c 00       		.byte	0
 2491 003d 06       		.uleb128 0x6
 2492 003e 0F       		.uleb128 0xf
 2493 003f 00       		.byte	0
 2494 0040 0B       		.uleb128 0xb
 2495 0041 0B       		.uleb128 0xb
 2496 0042 49       		.uleb128 0x49
 2497 0043 13       		.uleb128 0x13
 2498 0044 00       		.byte	0
 2499 0045 00       		.byte	0
 2500 0046 07       		.uleb128 0x7
 2501 0047 15       		.uleb128 0x15
 2502 0048 00       		.byte	0
 2503 0049 27       		.uleb128 0x27
 2504 004a 19       		.uleb128 0x19
 2505 004b 00       		.byte	0
 2506 004c 00       		.byte	0
 2507 004d 08       		.uleb128 0x8
 2508 004e 13       		.uleb128 0x13
 2509 004f 01       		.byte	0x1
 2510 0050 0B       		.uleb128 0xb
 2511 0051 0B       		.uleb128 0xb
 2512 0052 3A       		.uleb128 0x3a
 2513 0053 0B       		.uleb128 0xb
 2514 0054 3B       		.uleb128 0x3b
 2515 0055 0B       		.uleb128 0xb
 2516 0056 01       		.uleb128 0x1
 2517 0057 13       		.uleb128 0x13
 2518 0058 00       		.byte	0
 2519 0059 00       		.byte	0
 2520 005a 09       		.uleb128 0x9
 2521 005b 0D       		.uleb128 0xd
 2522 005c 00       		.byte	0
 2523 005d 03       		.uleb128 0x3
 2524 005e 0E       		.uleb128 0xe
 2525 005f 3A       		.uleb128 0x3a
 2526 0060 0B       		.uleb128 0xb
 2527 0061 3B       		.uleb128 0x3b
ARM GAS  C:\Users\214016~1\AppData\Local\Temp\ccCw4MGe.s 			page 90


 2528 0062 0B       		.uleb128 0xb
 2529 0063 49       		.uleb128 0x49
 2530 0064 13       		.uleb128 0x13
 2531 0065 38       		.uleb128 0x38
 2532 0066 0B       		.uleb128 0xb
 2533 0067 00       		.byte	0
 2534 0068 00       		.byte	0
 2535 0069 0A       		.uleb128 0xa
 2536 006a 16       		.uleb128 0x16
 2537 006b 00       		.byte	0
 2538 006c 03       		.uleb128 0x3
 2539 006d 0E       		.uleb128 0xe
 2540 006e 3A       		.uleb128 0x3a
 2541 006f 0B       		.uleb128 0xb
 2542 0070 3B       		.uleb128 0x3b
 2543 0071 0B       		.uleb128 0xb
 2544 0072 49       		.uleb128 0x49
 2545 0073 13       		.uleb128 0x13
 2546 0074 00       		.byte	0
 2547 0075 00       		.byte	0
 2548 0076 0B       		.uleb128 0xb
 2549 0077 0D       		.uleb128 0xd
 2550 0078 00       		.byte	0
 2551 0079 03       		.uleb128 0x3
 2552 007a 08       		.uleb128 0x8
 2553 007b 3A       		.uleb128 0x3a
 2554 007c 0B       		.uleb128 0xb
 2555 007d 3B       		.uleb128 0x3b
 2556 007e 0B       		.uleb128 0xb
 2557 007f 49       		.uleb128 0x49
 2558 0080 13       		.uleb128 0x13
 2559 0081 38       		.uleb128 0x38
 2560 0082 0B       		.uleb128 0xb
 2561 0083 00       		.byte	0
 2562 0084 00       		.byte	0
 2563 0085 0C       		.uleb128 0xc
 2564 0086 01       		.uleb128 0x1
 2565 0087 01       		.byte	0x1
 2566 0088 49       		.uleb128 0x49
 2567 0089 13       		.uleb128 0x13
 2568 008a 01       		.uleb128 0x1
 2569 008b 13       		.uleb128 0x13
 2570 008c 00       		.byte	0
 2571 008d 00       		.byte	0
 2572 008e 0D       		.uleb128 0xd
 2573 008f 21       		.uleb128 0x21
 2574 0090 00       		.byte	0
 2575 0091 49       		.uleb128 0x49
 2576 0092 13       		.uleb128 0x13
 2577 0093 2F       		.uleb128 0x2f
 2578 0094 0B       		.uleb128 0xb
 2579 0095 00       		.byte	0
 2580 0096 00       		.byte	0
 2581 0097 0E       		.uleb128 0xe
 2582 0098 13       		.uleb128 0x13
 2583 0099 01       		.byte	0x1
 2584 009a 0B       		.uleb128 0xb
ARM GAS  C:\Users\214016~1\AppData\Local\Temp\ccCw4MGe.s 			page 91


 2585 009b 0B       		.uleb128 0xb
 2586 009c 3A       		.uleb128 0x3a
 2587 009d 0B       		.uleb128 0xb
 2588 009e 3B       		.uleb128 0x3b
 2589 009f 05       		.uleb128 0x5
 2590 00a0 01       		.uleb128 0x1
 2591 00a1 13       		.uleb128 0x13
 2592 00a2 00       		.byte	0
 2593 00a3 00       		.byte	0
 2594 00a4 0F       		.uleb128 0xf
 2595 00a5 0D       		.uleb128 0xd
 2596 00a6 00       		.byte	0
 2597 00a7 03       		.uleb128 0x3
 2598 00a8 0E       		.uleb128 0xe
 2599 00a9 3A       		.uleb128 0x3a
 2600 00aa 0B       		.uleb128 0xb
 2601 00ab 3B       		.uleb128 0x3b
 2602 00ac 05       		.uleb128 0x5
 2603 00ad 49       		.uleb128 0x49
 2604 00ae 13       		.uleb128 0x13
 2605 00af 38       		.uleb128 0x38
 2606 00b0 0B       		.uleb128 0xb
 2607 00b1 00       		.byte	0
 2608 00b2 00       		.byte	0
 2609 00b3 10       		.uleb128 0x10
 2610 00b4 2E       		.uleb128 0x2e
 2611 00b5 01       		.byte	0x1
 2612 00b6 3F       		.uleb128 0x3f
 2613 00b7 19       		.uleb128 0x19
 2614 00b8 03       		.uleb128 0x3
 2615 00b9 0E       		.uleb128 0xe
 2616 00ba 3A       		.uleb128 0x3a
 2617 00bb 0B       		.uleb128 0xb
 2618 00bc 3B       		.uleb128 0x3b
 2619 00bd 0B       		.uleb128 0xb
 2620 00be 27       		.uleb128 0x27
 2621 00bf 19       		.uleb128 0x19
 2622 00c0 11       		.uleb128 0x11
 2623 00c1 01       		.uleb128 0x1
 2624 00c2 12       		.uleb128 0x12
 2625 00c3 06       		.uleb128 0x6
 2626 00c4 40       		.uleb128 0x40
 2627 00c5 18       		.uleb128 0x18
 2628 00c6 9742     		.uleb128 0x2117
 2629 00c8 19       		.uleb128 0x19
 2630 00c9 01       		.uleb128 0x1
 2631 00ca 13       		.uleb128 0x13
 2632 00cb 00       		.byte	0
 2633 00cc 00       		.byte	0
 2634 00cd 11       		.uleb128 0x11
 2635 00ce 34       		.uleb128 0x34
 2636 00cf 00       		.byte	0
 2637 00d0 03       		.uleb128 0x3
 2638 00d1 0E       		.uleb128 0xe
 2639 00d2 3A       		.uleb128 0x3a
 2640 00d3 0B       		.uleb128 0xb
 2641 00d4 3B       		.uleb128 0x3b
ARM GAS  C:\Users\214016~1\AppData\Local\Temp\ccCw4MGe.s 			page 92


 2642 00d5 0B       		.uleb128 0xb
 2643 00d6 49       		.uleb128 0x49
 2644 00d7 13       		.uleb128 0x13
 2645 00d8 02       		.uleb128 0x2
 2646 00d9 17       		.uleb128 0x17
 2647 00da 00       		.byte	0
 2648 00db 00       		.byte	0
 2649 00dc 12       		.uleb128 0x12
 2650 00dd 898201   		.uleb128 0x4109
 2651 00e0 00       		.byte	0
 2652 00e1 11       		.uleb128 0x11
 2653 00e2 01       		.uleb128 0x1
 2654 00e3 31       		.uleb128 0x31
 2655 00e4 13       		.uleb128 0x13
 2656 00e5 00       		.byte	0
 2657 00e6 00       		.byte	0
 2658 00e7 13       		.uleb128 0x13
 2659 00e8 898201   		.uleb128 0x4109
 2660 00eb 01       		.byte	0x1
 2661 00ec 11       		.uleb128 0x11
 2662 00ed 01       		.uleb128 0x1
 2663 00ee 31       		.uleb128 0x31
 2664 00ef 13       		.uleb128 0x13
 2665 00f0 01       		.uleb128 0x1
 2666 00f1 13       		.uleb128 0x13
 2667 00f2 00       		.byte	0
 2668 00f3 00       		.byte	0
 2669 00f4 14       		.uleb128 0x14
 2670 00f5 8A8201   		.uleb128 0x410a
 2671 00f8 00       		.byte	0
 2672 00f9 02       		.uleb128 0x2
 2673 00fa 18       		.uleb128 0x18
 2674 00fb 9142     		.uleb128 0x2111
 2675 00fd 18       		.uleb128 0x18
 2676 00fe 00       		.byte	0
 2677 00ff 00       		.byte	0
 2678 0100 15       		.uleb128 0x15
 2679 0101 898201   		.uleb128 0x4109
 2680 0104 01       		.byte	0x1
 2681 0105 11       		.uleb128 0x11
 2682 0106 01       		.uleb128 0x1
 2683 0107 31       		.uleb128 0x31
 2684 0108 13       		.uleb128 0x13
 2685 0109 00       		.byte	0
 2686 010a 00       		.byte	0
 2687 010b 16       		.uleb128 0x16
 2688 010c 2E       		.uleb128 0x2e
 2689 010d 01       		.byte	0x1
 2690 010e 3F       		.uleb128 0x3f
 2691 010f 19       		.uleb128 0x19
 2692 0110 03       		.uleb128 0x3
 2693 0111 0E       		.uleb128 0xe
 2694 0112 3A       		.uleb128 0x3a
 2695 0113 0B       		.uleb128 0xb
 2696 0114 3B       		.uleb128 0x3b
 2697 0115 05       		.uleb128 0x5
 2698 0116 27       		.uleb128 0x27
ARM GAS  C:\Users\214016~1\AppData\Local\Temp\ccCw4MGe.s 			page 93


 2699 0117 19       		.uleb128 0x19
 2700 0118 11       		.uleb128 0x11
 2701 0119 01       		.uleb128 0x1
 2702 011a 12       		.uleb128 0x12
 2703 011b 06       		.uleb128 0x6
 2704 011c 40       		.uleb128 0x40
 2705 011d 18       		.uleb128 0x18
 2706 011e 9742     		.uleb128 0x2117
 2707 0120 19       		.uleb128 0x19
 2708 0121 01       		.uleb128 0x1
 2709 0122 13       		.uleb128 0x13
 2710 0123 00       		.byte	0
 2711 0124 00       		.byte	0
 2712 0125 17       		.uleb128 0x17
 2713 0126 05       		.uleb128 0x5
 2714 0127 00       		.byte	0
 2715 0128 03       		.uleb128 0x3
 2716 0129 0E       		.uleb128 0xe
 2717 012a 3A       		.uleb128 0x3a
 2718 012b 0B       		.uleb128 0xb
 2719 012c 3B       		.uleb128 0x3b
 2720 012d 05       		.uleb128 0x5
 2721 012e 49       		.uleb128 0x49
 2722 012f 13       		.uleb128 0x13
 2723 0130 02       		.uleb128 0x2
 2724 0131 17       		.uleb128 0x17
 2725 0132 00       		.byte	0
 2726 0133 00       		.byte	0
 2727 0134 18       		.uleb128 0x18
 2728 0135 05       		.uleb128 0x5
 2729 0136 00       		.byte	0
 2730 0137 03       		.uleb128 0x3
 2731 0138 0E       		.uleb128 0xe
 2732 0139 3A       		.uleb128 0x3a
 2733 013a 0B       		.uleb128 0xb
 2734 013b 3B       		.uleb128 0x3b
 2735 013c 0B       		.uleb128 0xb
 2736 013d 49       		.uleb128 0x49
 2737 013e 13       		.uleb128 0x13
 2738 013f 02       		.uleb128 0x2
 2739 0140 17       		.uleb128 0x17
 2740 0141 00       		.byte	0
 2741 0142 00       		.byte	0
 2742 0143 19       		.uleb128 0x19
 2743 0144 2E       		.uleb128 0x2e
 2744 0145 00       		.byte	0
 2745 0146 3F       		.uleb128 0x3f
 2746 0147 19       		.uleb128 0x19
 2747 0148 03       		.uleb128 0x3
 2748 0149 0E       		.uleb128 0xe
 2749 014a 3A       		.uleb128 0x3a
 2750 014b 0B       		.uleb128 0xb
 2751 014c 3B       		.uleb128 0x3b
 2752 014d 05       		.uleb128 0x5
 2753 014e 27       		.uleb128 0x27
 2754 014f 19       		.uleb128 0x19
 2755 0150 11       		.uleb128 0x11
ARM GAS  C:\Users\214016~1\AppData\Local\Temp\ccCw4MGe.s 			page 94


 2756 0151 01       		.uleb128 0x1
 2757 0152 12       		.uleb128 0x12
 2758 0153 06       		.uleb128 0x6
 2759 0154 40       		.uleb128 0x40
 2760 0155 18       		.uleb128 0x18
 2761 0156 9742     		.uleb128 0x2117
 2762 0158 19       		.uleb128 0x19
 2763 0159 00       		.byte	0
 2764 015a 00       		.byte	0
 2765 015b 1A       		.uleb128 0x1a
 2766 015c 34       		.uleb128 0x34
 2767 015d 00       		.byte	0
 2768 015e 03       		.uleb128 0x3
 2769 015f 0E       		.uleb128 0xe
 2770 0160 3A       		.uleb128 0x3a
 2771 0161 0B       		.uleb128 0xb
 2772 0162 3B       		.uleb128 0x3b
 2773 0163 05       		.uleb128 0x5
 2774 0164 49       		.uleb128 0x49
 2775 0165 13       		.uleb128 0x13
 2776 0166 02       		.uleb128 0x2
 2777 0167 17       		.uleb128 0x17
 2778 0168 00       		.byte	0
 2779 0169 00       		.byte	0
 2780 016a 1B       		.uleb128 0x1b
 2781 016b 2E       		.uleb128 0x2e
 2782 016c 01       		.byte	0x1
 2783 016d 3F       		.uleb128 0x3f
 2784 016e 19       		.uleb128 0x19
 2785 016f 03       		.uleb128 0x3
 2786 0170 0E       		.uleb128 0xe
 2787 0171 3A       		.uleb128 0x3a
 2788 0172 0B       		.uleb128 0xb
 2789 0173 3B       		.uleb128 0x3b
 2790 0174 05       		.uleb128 0x5
 2791 0175 27       		.uleb128 0x27
 2792 0176 19       		.uleb128 0x19
 2793 0177 49       		.uleb128 0x49
 2794 0178 13       		.uleb128 0x13
 2795 0179 11       		.uleb128 0x11
 2796 017a 01       		.uleb128 0x1
 2797 017b 12       		.uleb128 0x12
 2798 017c 06       		.uleb128 0x6
 2799 017d 40       		.uleb128 0x40
 2800 017e 18       		.uleb128 0x18
 2801 017f 9742     		.uleb128 0x2117
 2802 0181 19       		.uleb128 0x19
 2803 0182 01       		.uleb128 0x1
 2804 0183 13       		.uleb128 0x13
 2805 0184 00       		.byte	0
 2806 0185 00       		.byte	0
 2807 0186 1C       		.uleb128 0x1c
 2808 0187 2E       		.uleb128 0x2e
 2809 0188 00       		.byte	0
 2810 0189 3F       		.uleb128 0x3f
 2811 018a 19       		.uleb128 0x19
 2812 018b 03       		.uleb128 0x3
ARM GAS  C:\Users\214016~1\AppData\Local\Temp\ccCw4MGe.s 			page 95


 2813 018c 0E       		.uleb128 0xe
 2814 018d 3A       		.uleb128 0x3a
 2815 018e 0B       		.uleb128 0xb
 2816 018f 3B       		.uleb128 0x3b
 2817 0190 05       		.uleb128 0x5
 2818 0191 27       		.uleb128 0x27
 2819 0192 19       		.uleb128 0x19
 2820 0193 49       		.uleb128 0x49
 2821 0194 13       		.uleb128 0x13
 2822 0195 11       		.uleb128 0x11
 2823 0196 01       		.uleb128 0x1
 2824 0197 12       		.uleb128 0x12
 2825 0198 06       		.uleb128 0x6
 2826 0199 40       		.uleb128 0x40
 2827 019a 18       		.uleb128 0x18
 2828 019b 9742     		.uleb128 0x2117
 2829 019d 19       		.uleb128 0x19
 2830 019e 00       		.byte	0
 2831 019f 00       		.byte	0
 2832 01a0 1D       		.uleb128 0x1d
 2833 01a1 34       		.uleb128 0x34
 2834 01a2 00       		.byte	0
 2835 01a3 03       		.uleb128 0x3
 2836 01a4 08       		.uleb128 0x8
 2837 01a5 3A       		.uleb128 0x3a
 2838 01a6 0B       		.uleb128 0xb
 2839 01a7 3B       		.uleb128 0x3b
 2840 01a8 05       		.uleb128 0x5
 2841 01a9 49       		.uleb128 0x49
 2842 01aa 13       		.uleb128 0x13
 2843 01ab 02       		.uleb128 0x2
 2844 01ac 17       		.uleb128 0x17
 2845 01ad 00       		.byte	0
 2846 01ae 00       		.byte	0
 2847 01af 1E       		.uleb128 0x1e
 2848 01b0 05       		.uleb128 0x5
 2849 01b1 00       		.byte	0
 2850 01b2 03       		.uleb128 0x3
 2851 01b3 0E       		.uleb128 0xe
 2852 01b4 3A       		.uleb128 0x3a
 2853 01b5 0B       		.uleb128 0xb
 2854 01b6 3B       		.uleb128 0x3b
 2855 01b7 05       		.uleb128 0x5
 2856 01b8 49       		.uleb128 0x49
 2857 01b9 13       		.uleb128 0x13
 2858 01ba 02       		.uleb128 0x2
 2859 01bb 18       		.uleb128 0x18
 2860 01bc 00       		.byte	0
 2861 01bd 00       		.byte	0
 2862 01be 1F       		.uleb128 0x1f
 2863 01bf 0B       		.uleb128 0xb
 2864 01c0 01       		.byte	0x1
 2865 01c1 55       		.uleb128 0x55
 2866 01c2 17       		.uleb128 0x17
 2867 01c3 00       		.byte	0
 2868 01c4 00       		.byte	0
 2869 01c5 20       		.uleb128 0x20
ARM GAS  C:\Users\214016~1\AppData\Local\Temp\ccCw4MGe.s 			page 96


 2870 01c6 26       		.uleb128 0x26
 2871 01c7 00       		.byte	0
 2872 01c8 49       		.uleb128 0x49
 2873 01c9 13       		.uleb128 0x13
 2874 01ca 00       		.byte	0
 2875 01cb 00       		.byte	0
 2876 01cc 21       		.uleb128 0x21
 2877 01cd 0B       		.uleb128 0xb
 2878 01ce 01       		.byte	0x1
 2879 01cf 11       		.uleb128 0x11
 2880 01d0 01       		.uleb128 0x1
 2881 01d1 12       		.uleb128 0x12
 2882 01d2 06       		.uleb128 0x6
 2883 01d3 01       		.uleb128 0x1
 2884 01d4 13       		.uleb128 0x13
 2885 01d5 00       		.byte	0
 2886 01d6 00       		.byte	0
 2887 01d7 22       		.uleb128 0x22
 2888 01d8 34       		.uleb128 0x34
 2889 01d9 00       		.byte	0
 2890 01da 03       		.uleb128 0x3
 2891 01db 0E       		.uleb128 0xe
 2892 01dc 3A       		.uleb128 0x3a
 2893 01dd 0B       		.uleb128 0xb
 2894 01de 3B       		.uleb128 0x3b
 2895 01df 0B       		.uleb128 0xb
 2896 01e0 49       		.uleb128 0x49
 2897 01e1 13       		.uleb128 0x13
 2898 01e2 3F       		.uleb128 0x3f
 2899 01e3 19       		.uleb128 0x19
 2900 01e4 02       		.uleb128 0x2
 2901 01e5 18       		.uleb128 0x18
 2902 01e6 00       		.byte	0
 2903 01e7 00       		.byte	0
 2904 01e8 23       		.uleb128 0x23
 2905 01e9 34       		.uleb128 0x34
 2906 01ea 00       		.byte	0
 2907 01eb 03       		.uleb128 0x3
 2908 01ec 0E       		.uleb128 0xe
 2909 01ed 3A       		.uleb128 0x3a
 2910 01ee 0B       		.uleb128 0xb
 2911 01ef 3B       		.uleb128 0x3b
 2912 01f0 05       		.uleb128 0x5
 2913 01f1 49       		.uleb128 0x49
 2914 01f2 13       		.uleb128 0x13
 2915 01f3 3F       		.uleb128 0x3f
 2916 01f4 19       		.uleb128 0x19
 2917 01f5 3C       		.uleb128 0x3c
 2918 01f6 19       		.uleb128 0x19
 2919 01f7 00       		.byte	0
 2920 01f8 00       		.byte	0
 2921 01f9 24       		.uleb128 0x24
 2922 01fa 34       		.uleb128 0x34
 2923 01fb 00       		.byte	0
 2924 01fc 03       		.uleb128 0x3
 2925 01fd 0E       		.uleb128 0xe
 2926 01fe 3A       		.uleb128 0x3a
ARM GAS  C:\Users\214016~1\AppData\Local\Temp\ccCw4MGe.s 			page 97


 2927 01ff 0B       		.uleb128 0xb
 2928 0200 3B       		.uleb128 0x3b
 2929 0201 0B       		.uleb128 0xb
 2930 0202 49       		.uleb128 0x49
 2931 0203 13       		.uleb128 0x13
 2932 0204 3F       		.uleb128 0x3f
 2933 0205 19       		.uleb128 0x19
 2934 0206 3C       		.uleb128 0x3c
 2935 0207 19       		.uleb128 0x19
 2936 0208 00       		.byte	0
 2937 0209 00       		.byte	0
 2938 020a 25       		.uleb128 0x25
 2939 020b 2E       		.uleb128 0x2e
 2940 020c 00       		.byte	0
 2941 020d 3F       		.uleb128 0x3f
 2942 020e 19       		.uleb128 0x19
 2943 020f 03       		.uleb128 0x3
 2944 0210 0E       		.uleb128 0xe
 2945 0211 3A       		.uleb128 0x3a
 2946 0212 0B       		.uleb128 0xb
 2947 0213 3B       		.uleb128 0x3b
 2948 0214 0B       		.uleb128 0xb
 2949 0215 27       		.uleb128 0x27
 2950 0216 19       		.uleb128 0x19
 2951 0217 49       		.uleb128 0x49
 2952 0218 13       		.uleb128 0x13
 2953 0219 3C       		.uleb128 0x3c
 2954 021a 19       		.uleb128 0x19
 2955 021b 00       		.byte	0
 2956 021c 00       		.byte	0
 2957 021d 26       		.uleb128 0x26
 2958 021e 2E       		.uleb128 0x2e
 2959 021f 01       		.byte	0x1
 2960 0220 3F       		.uleb128 0x3f
 2961 0221 19       		.uleb128 0x19
 2962 0222 03       		.uleb128 0x3
 2963 0223 0E       		.uleb128 0xe
 2964 0224 3A       		.uleb128 0x3a
 2965 0225 0B       		.uleb128 0xb
 2966 0226 3B       		.uleb128 0x3b
 2967 0227 0B       		.uleb128 0xb
 2968 0228 27       		.uleb128 0x27
 2969 0229 19       		.uleb128 0x19
 2970 022a 3C       		.uleb128 0x3c
 2971 022b 19       		.uleb128 0x19
 2972 022c 01       		.uleb128 0x1
 2973 022d 13       		.uleb128 0x13
 2974 022e 00       		.byte	0
 2975 022f 00       		.byte	0
 2976 0230 27       		.uleb128 0x27
 2977 0231 05       		.uleb128 0x5
 2978 0232 00       		.byte	0
 2979 0233 49       		.uleb128 0x49
 2980 0234 13       		.uleb128 0x13
 2981 0235 00       		.byte	0
 2982 0236 00       		.byte	0
 2983 0237 28       		.uleb128 0x28
ARM GAS  C:\Users\214016~1\AppData\Local\Temp\ccCw4MGe.s 			page 98


 2984 0238 2E       		.uleb128 0x2e
 2985 0239 01       		.byte	0x1
 2986 023a 3F       		.uleb128 0x3f
 2987 023b 19       		.uleb128 0x19
 2988 023c 03       		.uleb128 0x3
 2989 023d 0E       		.uleb128 0xe
 2990 023e 3A       		.uleb128 0x3a
 2991 023f 0B       		.uleb128 0xb
 2992 0240 3B       		.uleb128 0x3b
 2993 0241 0B       		.uleb128 0xb
 2994 0242 27       		.uleb128 0x27
 2995 0243 19       		.uleb128 0x19
 2996 0244 49       		.uleb128 0x49
 2997 0245 13       		.uleb128 0x13
 2998 0246 3C       		.uleb128 0x3c
 2999 0247 19       		.uleb128 0x19
 3000 0248 01       		.uleb128 0x1
 3001 0249 13       		.uleb128 0x13
 3002 024a 00       		.byte	0
 3003 024b 00       		.byte	0
 3004 024c 00       		.byte	0
 3005              		.section	.debug_loc,"",%progbits
 3006              	.Ldebug_loc0:
 3007              	.LLST0:
 3008 0000 08000000 		.4byte	.LVL1
 3009 0004 FA000000 		.4byte	.LVL19
 3010 0008 0100     		.2byte	0x1
 3011 000a 56       		.byte	0x56
 3012 000b 00000000 		.4byte	0
 3013 000f 00000000 		.4byte	0
 3014              	.LLST1:
 3015 0013 00000000 		.4byte	.LVL20
 3016 0017 78000000 		.4byte	.LVL21
 3017 001b 0100     		.2byte	0x1
 3018 001d 50       		.byte	0x50
 3019 001e 78000000 		.4byte	.LVL21
 3020 0022 B4000000 		.4byte	.LFE2
 3021 0026 0400     		.2byte	0x4
 3022 0028 F3       		.byte	0xf3
 3023 0029 01       		.uleb128 0x1
 3024 002a 50       		.byte	0x50
 3025 002b 9F       		.byte	0x9f
 3026 002c 00000000 		.4byte	0
 3027 0030 00000000 		.4byte	0
 3028              	.LLST2:
 3029 0034 00000000 		.4byte	.LVL20
 3030 0038 7B000000 		.4byte	.LVL22-1
 3031 003c 0100     		.2byte	0x1
 3032 003e 51       		.byte	0x51
 3033 003f 7B000000 		.4byte	.LVL22-1
 3034 0043 B4000000 		.4byte	.LFE2
 3035 0047 0400     		.2byte	0x4
 3036 0049 F3       		.byte	0xf3
 3037 004a 01       		.uleb128 0x1
 3038 004b 51       		.byte	0x51
 3039 004c 9F       		.byte	0x9f
 3040 004d 00000000 		.4byte	0
ARM GAS  C:\Users\214016~1\AppData\Local\Temp\ccCw4MGe.s 			page 99


 3041 0051 00000000 		.4byte	0
 3042              	.LLST3:
 3043 0055 00000000 		.4byte	.LVL23
 3044 0059 0F000000 		.4byte	.LVL24-1
 3045 005d 0100     		.2byte	0x1
 3046 005f 50       		.byte	0x50
 3047 0060 0F000000 		.4byte	.LVL24-1
 3048 0064 24000000 		.4byte	.LFE0
 3049 0068 0400     		.2byte	0x4
 3050 006a F3       		.byte	0xf3
 3051 006b 01       		.uleb128 0x1
 3052 006c 50       		.byte	0x50
 3053 006d 9F       		.byte	0x9f
 3054 006e 00000000 		.4byte	0
 3055 0072 00000000 		.4byte	0
 3056              	.LLST4:
 3057 0076 00000000 		.4byte	.LVL23
 3058 007a 0F000000 		.4byte	.LVL24-1
 3059 007e 0100     		.2byte	0x1
 3060 0080 51       		.byte	0x51
 3061 0081 0F000000 		.4byte	.LVL24-1
 3062 0085 24000000 		.4byte	.LFE0
 3063 0089 0400     		.2byte	0x4
 3064 008b F3       		.byte	0xf3
 3065 008c 01       		.uleb128 0x1
 3066 008d 51       		.byte	0x51
 3067 008e 9F       		.byte	0x9f
 3068 008f 00000000 		.4byte	0
 3069 0093 00000000 		.4byte	0
 3070              	.LLST5:
 3071 0097 06000000 		.4byte	.LVL26
 3072 009b 47000000 		.4byte	.LVL27-1
 3073 009f 0100     		.2byte	0x1
 3074 00a1 50       		.byte	0x50
 3075 00a2 00000000 		.4byte	0
 3076 00a6 00000000 		.4byte	0
 3077              	.LLST6:
 3078 00aa 06000000 		.4byte	.LVL29
 3079 00ae 10000000 		.4byte	.LVL30
 3080 00b2 0100     		.2byte	0x1
 3081 00b4 53       		.byte	0x53
 3082 00b5 00000000 		.4byte	0
 3083 00b9 00000000 		.4byte	0
 3084              	.LLST7:
 3085 00bd 00000000 		.4byte	.LVL31
 3086 00c1 10000000 		.4byte	.LVL32
 3087 00c5 0200     		.2byte	0x2
 3088 00c7 30       		.byte	0x30
 3089 00c8 9F       		.byte	0x9f
 3090 00c9 10000000 		.4byte	.LVL32
 3091 00cd 16000000 		.4byte	.LVL33
 3092 00d1 0100     		.2byte	0x1
 3093 00d3 50       		.byte	0x50
 3094 00d4 16000000 		.4byte	.LVL33
 3095 00d8 18000000 		.4byte	.LVL34
 3096 00dc 0200     		.2byte	0x2
 3097 00de 30       		.byte	0x30
ARM GAS  C:\Users\214016~1\AppData\Local\Temp\ccCw4MGe.s 			page 100


 3098 00df 9F       		.byte	0x9f
 3099 00e0 18000000 		.4byte	.LVL34
 3100 00e4 20000000 		.4byte	.LFE7
 3101 00e8 0100     		.2byte	0x1
 3102 00ea 50       		.byte	0x50
 3103 00eb 00000000 		.4byte	0
 3104 00ef 00000000 		.4byte	0
 3105              	.LLST8:
 3106 00f3 00000000 		.4byte	.LVL35
 3107 00f7 04000000 		.4byte	.LVL36
 3108 00fb 0100     		.2byte	0x1
 3109 00fd 50       		.byte	0x50
 3110 00fe 04000000 		.4byte	.LVL36
 3111 0102 0C000000 		.4byte	.LFE8
 3112 0106 0400     		.2byte	0x4
 3113 0108 F3       		.byte	0xf3
 3114 0109 01       		.uleb128 0x1
 3115 010a 50       		.byte	0x50
 3116 010b 9F       		.byte	0x9f
 3117 010c 00000000 		.4byte	0
 3118 0110 00000000 		.4byte	0
 3119              	.LLST9:
 3120 0114 00000000 		.4byte	.LVL37
 3121 0118 04000000 		.4byte	.LVL38
 3122 011c 0100     		.2byte	0x1
 3123 011e 50       		.byte	0x50
 3124 011f 04000000 		.4byte	.LVL38
 3125 0123 14000000 		.4byte	.LFE9
 3126 0127 0400     		.2byte	0x4
 3127 0129 F3       		.byte	0xf3
 3128 012a 01       		.uleb128 0x1
 3129 012b 50       		.byte	0x50
 3130 012c 9F       		.byte	0x9f
 3131 012d 00000000 		.4byte	0
 3132 0131 00000000 		.4byte	0
 3133              	.LLST10:
 3134 0135 00000000 		.4byte	.LVL39
 3135 0139 0C000000 		.4byte	.LVL40
 3136 013d 0100     		.2byte	0x1
 3137 013f 50       		.byte	0x50
 3138 0140 0C000000 		.4byte	.LVL40
 3139 0144 20000000 		.4byte	.LVL45
 3140 0148 0400     		.2byte	0x4
 3141 014a F3       		.byte	0xf3
 3142 014b 01       		.uleb128 0x1
 3143 014c 50       		.byte	0x50
 3144 014d 9F       		.byte	0x9f
 3145 014e 20000000 		.4byte	.LVL45
 3146 0152 22000000 		.4byte	.LVL46
 3147 0156 0100     		.2byte	0x1
 3148 0158 50       		.byte	0x50
 3149 0159 22000000 		.4byte	.LVL46
 3150 015d 28000000 		.4byte	.LFE10
 3151 0161 0400     		.2byte	0x4
 3152 0163 F3       		.byte	0xf3
 3153 0164 01       		.uleb128 0x1
 3154 0165 50       		.byte	0x50
ARM GAS  C:\Users\214016~1\AppData\Local\Temp\ccCw4MGe.s 			page 101


 3155 0166 9F       		.byte	0x9f
 3156 0167 00000000 		.4byte	0
 3157 016b 00000000 		.4byte	0
 3158              	.LLST11:
 3159 016f 00000000 		.4byte	.LVL39
 3160 0173 14000000 		.4byte	.LVL41
 3161 0177 0200     		.2byte	0x2
 3162 0179 30       		.byte	0x30
 3163 017a 9F       		.byte	0x9f
 3164 017b 14000000 		.4byte	.LVL41
 3165 017f 1C000000 		.4byte	.LVL43
 3166 0183 0100     		.2byte	0x1
 3167 0185 50       		.byte	0x50
 3168 0186 1C000000 		.4byte	.LVL43
 3169 018a 1E000000 		.4byte	.LVL44
 3170 018e 0300     		.2byte	0x3
 3171 0190 70       		.byte	0x70
 3172 0191 02       		.sleb128 2
 3173 0192 9F       		.byte	0x9f
 3174 0193 1E000000 		.4byte	.LVL44
 3175 0197 20000000 		.4byte	.LVL45
 3176 019b 0100     		.2byte	0x1
 3177 019d 50       		.byte	0x50
 3178 019e 20000000 		.4byte	.LVL45
 3179 01a2 22000000 		.4byte	.LVL46
 3180 01a6 0200     		.2byte	0x2
 3181 01a8 30       		.byte	0x30
 3182 01a9 9F       		.byte	0x9f
 3183 01aa 22000000 		.4byte	.LVL46
 3184 01ae 28000000 		.4byte	.LFE10
 3185 01b2 0100     		.2byte	0x1
 3186 01b4 50       		.byte	0x50
 3187 01b5 00000000 		.4byte	0
 3188 01b9 00000000 		.4byte	0
 3189              	.LLST12:
 3190 01bd 00000000 		.4byte	.LVL47
 3191 01c1 7A000000 		.4byte	.LVL57
 3192 01c5 0100     		.2byte	0x1
 3193 01c7 50       		.byte	0x50
 3194 01c8 7A000000 		.4byte	.LVL57
 3195 01cc 94000000 		.4byte	.LFE11
 3196 01d0 0400     		.2byte	0x4
 3197 01d2 F3       		.byte	0xf3
 3198 01d3 01       		.uleb128 0x1
 3199 01d4 50       		.byte	0x50
 3200 01d5 9F       		.byte	0x9f
 3201 01d6 00000000 		.4byte	0
 3202 01da 00000000 		.4byte	0
 3203              	.LLST13:
 3204 01de 00000000 		.4byte	.LVL47
 3205 01e2 2C000000 		.4byte	.LVL48
 3206 01e6 0100     		.2byte	0x1
 3207 01e8 52       		.byte	0x52
 3208 01e9 2C000000 		.4byte	.LVL48
 3209 01ed 32000000 		.4byte	.LVL49
 3210 01f1 0400     		.2byte	0x4
 3211 01f3 F3       		.byte	0xf3
ARM GAS  C:\Users\214016~1\AppData\Local\Temp\ccCw4MGe.s 			page 102


 3212 01f4 01       		.uleb128 0x1
 3213 01f5 52       		.byte	0x52
 3214 01f6 9F       		.byte	0x9f
 3215 01f7 32000000 		.4byte	.LVL49
 3216 01fb 6E000000 		.4byte	.LVL56
 3217 01ff 0100     		.2byte	0x1
 3218 0201 52       		.byte	0x52
 3219 0202 00000000 		.4byte	0
 3220 0206 00000000 		.4byte	0
 3221              	.LLST14:
 3222 020a 52000000 		.4byte	.LVL50
 3223 020e 5C000000 		.4byte	.LVL51
 3224 0212 0100     		.2byte	0x1
 3225 0214 53       		.byte	0x53
 3226 0215 5E000000 		.4byte	.LVL52
 3227 0219 60000000 		.4byte	.LVL53
 3228 021d 0100     		.2byte	0x1
 3229 021f 53       		.byte	0x53
 3230 0220 62000000 		.4byte	.LVL54
 3231 0224 66000000 		.4byte	.LVL55
 3232 0228 0100     		.2byte	0x1
 3233 022a 53       		.byte	0x53
 3234 022b 00000000 		.4byte	0
 3235 022f 00000000 		.4byte	0
 3236              	.LLST15:
 3237 0233 00000000 		.4byte	.LVL58
 3238 0237 1C000000 		.4byte	.LVL59
 3239 023b 0100     		.2byte	0x1
 3240 023d 50       		.byte	0x50
 3241 023e 1C000000 		.4byte	.LVL59
 3242 0242 2C000000 		.4byte	.LFE13
 3243 0246 0400     		.2byte	0x4
 3244 0248 F3       		.byte	0xf3
 3245 0249 01       		.uleb128 0x1
 3246 024a 50       		.byte	0x50
 3247 024b 9F       		.byte	0x9f
 3248 024c 00000000 		.4byte	0
 3249 0250 00000000 		.4byte	0
 3250              	.LLST16:
 3251 0254 00000000 		.4byte	.LVL60
 3252 0258 13000000 		.4byte	.LVL61-1
 3253 025c 0100     		.2byte	0x1
 3254 025e 50       		.byte	0x50
 3255 025f 13000000 		.4byte	.LVL61-1
 3256 0263 3C000000 		.4byte	.LVL68
 3257 0267 0400     		.2byte	0x4
 3258 0269 F3       		.byte	0xf3
 3259 026a 01       		.uleb128 0x1
 3260 026b 50       		.byte	0x50
 3261 026c 9F       		.byte	0x9f
 3262 026d 3C000000 		.4byte	.LVL68
 3263 0271 46000000 		.4byte	.LVL69
 3264 0275 0100     		.2byte	0x1
 3265 0277 50       		.byte	0x50
 3266 0278 46000000 		.4byte	.LVL69
 3267 027c 50000000 		.4byte	.LFE12
 3268 0280 0400     		.2byte	0x4
ARM GAS  C:\Users\214016~1\AppData\Local\Temp\ccCw4MGe.s 			page 103


 3269 0282 F3       		.byte	0xf3
 3270 0283 01       		.uleb128 0x1
 3271 0284 50       		.byte	0x50
 3272 0285 9F       		.byte	0x9f
 3273 0286 00000000 		.4byte	0
 3274 028a 00000000 		.4byte	0
 3275              	.LLST17:
 3276 028e 00000000 		.4byte	.LVL60
 3277 0292 13000000 		.4byte	.LVL61-1
 3278 0296 0100     		.2byte	0x1
 3279 0298 51       		.byte	0x51
 3280 0299 13000000 		.4byte	.LVL61-1
 3281 029d 3C000000 		.4byte	.LVL68
 3282 02a1 0100     		.2byte	0x1
 3283 02a3 56       		.byte	0x56
 3284 02a4 3C000000 		.4byte	.LVL68
 3285 02a8 46000000 		.4byte	.LVL69
 3286 02ac 0100     		.2byte	0x1
 3287 02ae 51       		.byte	0x51
 3288 02af 46000000 		.4byte	.LVL69
 3289 02b3 50000000 		.4byte	.LFE12
 3290 02b7 0400     		.2byte	0x4
 3291 02b9 F3       		.byte	0xf3
 3292 02ba 01       		.uleb128 0x1
 3293 02bb 51       		.byte	0x51
 3294 02bc 9F       		.byte	0x9f
 3295 02bd 00000000 		.4byte	0
 3296 02c1 00000000 		.4byte	0
 3297              	.LLST18:
 3298 02c5 00000000 		.4byte	.LVL60
 3299 02c9 13000000 		.4byte	.LVL61-1
 3300 02cd 0100     		.2byte	0x1
 3301 02cf 52       		.byte	0x52
 3302 02d0 13000000 		.4byte	.LVL61-1
 3303 02d4 20000000 		.4byte	.LVL63
 3304 02d8 0400     		.2byte	0x4
 3305 02da F3       		.byte	0xf3
 3306 02db 01       		.uleb128 0x1
 3307 02dc 52       		.byte	0x52
 3308 02dd 9F       		.byte	0x9f
 3309 02de 20000000 		.4byte	.LVL63
 3310 02e2 3C000000 		.4byte	.LVL68
 3311 02e6 0100     		.2byte	0x1
 3312 02e8 54       		.byte	0x54
 3313 02e9 3C000000 		.4byte	.LVL68
 3314 02ed 46000000 		.4byte	.LVL69
 3315 02f1 0100     		.2byte	0x1
 3316 02f3 52       		.byte	0x52
 3317 02f4 46000000 		.4byte	.LVL69
 3318 02f8 4A000000 		.4byte	.LVL70
 3319 02fc 0100     		.2byte	0x1
 3320 02fe 54       		.byte	0x54
 3321 02ff 00000000 		.4byte	0
 3322 0303 00000000 		.4byte	0
 3323              	.LLST19:
 3324 0307 20000000 		.4byte	.LVL63
 3325 030b 24000000 		.4byte	.LVL64
ARM GAS  C:\Users\214016~1\AppData\Local\Temp\ccCw4MGe.s 			page 104


 3326 030f 0200     		.2byte	0x2
 3327 0311 30       		.byte	0x30
 3328 0312 9F       		.byte	0x9f
 3329 0313 24000000 		.4byte	.LVL64
 3330 0317 2E000000 		.4byte	.LVL65
 3331 031b 0100     		.2byte	0x1
 3332 031d 53       		.byte	0x53
 3333 031e 30000000 		.4byte	.LVL66
 3334 0322 39000000 		.4byte	.LVL67-1
 3335 0326 0100     		.2byte	0x1
 3336 0328 53       		.byte	0x53
 3337 0329 00000000 		.4byte	0
 3338 032d 00000000 		.4byte	0
 3339              	.LLST20:
 3340 0331 00000000 		.4byte	.LVL71
 3341 0335 0A000000 		.4byte	.LVL72
 3342 0339 0100     		.2byte	0x1
 3343 033b 50       		.byte	0x50
 3344 033c 0A000000 		.4byte	.LVL72
 3345 0340 18000000 		.4byte	.LFE14
 3346 0344 0400     		.2byte	0x4
 3347 0346 F3       		.byte	0xf3
 3348 0347 01       		.uleb128 0x1
 3349 0348 50       		.byte	0x50
 3350 0349 9F       		.byte	0x9f
 3351 034a 00000000 		.4byte	0
 3352 034e 00000000 		.4byte	0
 3353              	.LLST21:
 3354 0352 00000000 		.4byte	.LVL74
 3355 0356 0A000000 		.4byte	.LVL75
 3356 035a 0100     		.2byte	0x1
 3357 035c 50       		.byte	0x50
 3358 035d 0A000000 		.4byte	.LVL75
 3359 0361 16000000 		.4byte	.LVL77
 3360 0365 0400     		.2byte	0x4
 3361 0367 F3       		.byte	0xf3
 3362 0368 01       		.uleb128 0x1
 3363 0369 50       		.byte	0x50
 3364 036a 9F       		.byte	0x9f
 3365 036b 16000000 		.4byte	.LVL77
 3366 036f 18000000 		.4byte	.LVL78
 3367 0373 0100     		.2byte	0x1
 3368 0375 50       		.byte	0x50
 3369 0376 18000000 		.4byte	.LVL78
 3370 037a 20000000 		.4byte	.LFE16
 3371 037e 0400     		.2byte	0x4
 3372 0380 F3       		.byte	0xf3
 3373 0381 01       		.uleb128 0x1
 3374 0382 50       		.byte	0x50
 3375 0383 9F       		.byte	0x9f
 3376 0384 00000000 		.4byte	0
 3377 0388 00000000 		.4byte	0
 3378              	.LLST22:
 3379 038c 00000000 		.4byte	.LVL74
 3380 0390 14000000 		.4byte	.LVL76
 3381 0394 0200     		.2byte	0x2
 3382 0396 30       		.byte	0x30
ARM GAS  C:\Users\214016~1\AppData\Local\Temp\ccCw4MGe.s 			page 105


 3383 0397 9F       		.byte	0x9f
 3384 0398 14000000 		.4byte	.LVL76
 3385 039c 16000000 		.4byte	.LVL77
 3386 03a0 0100     		.2byte	0x1
 3387 03a2 50       		.byte	0x50
 3388 03a3 16000000 		.4byte	.LVL77
 3389 03a7 18000000 		.4byte	.LVL78
 3390 03ab 0200     		.2byte	0x2
 3391 03ad 30       		.byte	0x30
 3392 03ae 9F       		.byte	0x9f
 3393 03af 18000000 		.4byte	.LVL78
 3394 03b3 20000000 		.4byte	.LFE16
 3395 03b7 0100     		.2byte	0x1
 3396 03b9 50       		.byte	0x50
 3397 03ba 00000000 		.4byte	0
 3398 03be 00000000 		.4byte	0
 3399              	.LLST23:
 3400 03c2 00000000 		.4byte	.LVL80
 3401 03c6 10000000 		.4byte	.LVL81
 3402 03ca 0200     		.2byte	0x2
 3403 03cc 30       		.byte	0x30
 3404 03cd 9F       		.byte	0x9f
 3405 03ce 10000000 		.4byte	.LVL81
 3406 03d2 18000000 		.4byte	.LFE18
 3407 03d6 0100     		.2byte	0x1
 3408 03d8 50       		.byte	0x50
 3409 03d9 00000000 		.4byte	0
 3410 03dd 00000000 		.4byte	0
 3411              		.section	.debug_aranges,"",%progbits
 3412 0000 C4000000 		.4byte	0xc4
 3413 0004 0200     		.2byte	0x2
 3414 0006 00000000 		.4byte	.Ldebug_info0
 3415 000a 04       		.byte	0x4
 3416 000b 00       		.byte	0
 3417 000c 0000     		.2byte	0
 3418 000e 0000     		.2byte	0
 3419 0010 00000000 		.4byte	.LFB1
 3420 0014 2C010000 		.4byte	.LFE1-.LFB1
 3421 0018 00000000 		.4byte	.LFB2
 3422 001c B4000000 		.4byte	.LFE2-.LFB2
 3423 0020 00000000 		.4byte	.LFB0
 3424 0024 24000000 		.4byte	.LFE0-.LFB0
 3425 0028 00000000 		.4byte	.LFB3
 3426 002c 4C000000 		.4byte	.LFE3-.LFB3
 3427 0030 00000000 		.4byte	.LFB4
 3428 0034 B4000000 		.4byte	.LFE4-.LFB4
 3429 0038 00000000 		.4byte	.LFB5
 3430 003c 20000000 		.4byte	.LFE5-.LFB5
 3431 0040 00000000 		.4byte	.LFB6
 3432 0044 0C000000 		.4byte	.LFE6-.LFB6
 3433 0048 00000000 		.4byte	.LFB7
 3434 004c 20000000 		.4byte	.LFE7-.LFB7
 3435 0050 00000000 		.4byte	.LFB8
 3436 0054 0C000000 		.4byte	.LFE8-.LFB8
 3437 0058 00000000 		.4byte	.LFB9
 3438 005c 14000000 		.4byte	.LFE9-.LFB9
 3439 0060 00000000 		.4byte	.LFB10
ARM GAS  C:\Users\214016~1\AppData\Local\Temp\ccCw4MGe.s 			page 106


 3440 0064 28000000 		.4byte	.LFE10-.LFB10
 3441 0068 00000000 		.4byte	.LFB11
 3442 006c 94000000 		.4byte	.LFE11-.LFB11
 3443 0070 00000000 		.4byte	.LFB13
 3444 0074 2C000000 		.4byte	.LFE13-.LFB13
 3445 0078 00000000 		.4byte	.LFB12
 3446 007c 50000000 		.4byte	.LFE12-.LFB12
 3447 0080 00000000 		.4byte	.LFB14
 3448 0084 18000000 		.4byte	.LFE14-.LFB14
 3449 0088 00000000 		.4byte	.LFB15
 3450 008c 0C000000 		.4byte	.LFE15-.LFB15
 3451 0090 00000000 		.4byte	.LFB16
 3452 0094 20000000 		.4byte	.LFE16-.LFB16
 3453 0098 00000000 		.4byte	.LFB17
 3454 009c 20000000 		.4byte	.LFE17-.LFB17
 3455 00a0 00000000 		.4byte	.LFB18
 3456 00a4 18000000 		.4byte	.LFE18-.LFB18
 3457 00a8 00000000 		.4byte	.LFB19
 3458 00ac 10000000 		.4byte	.LFE19-.LFB19
 3459 00b0 00000000 		.4byte	.LFB20
 3460 00b4 10000000 		.4byte	.LFE20-.LFB20
 3461 00b8 00000000 		.4byte	.LFB21
 3462 00bc 10000000 		.4byte	.LFE21-.LFB21
 3463 00c0 00000000 		.4byte	0
 3464 00c4 00000000 		.4byte	0
 3465              		.section	.debug_ranges,"",%progbits
 3466              	.Ldebug_ranges0:
 3467 0000 50000000 		.4byte	.LBB2
 3468 0004 60000000 		.4byte	.LBE2
 3469 0008 62000000 		.4byte	.LBB3
 3470 000c 66000000 		.4byte	.LBE3
 3471 0010 00000000 		.4byte	0
 3472 0014 00000000 		.4byte	0
 3473 0018 00000000 		.4byte	.LFB1
 3474 001c 2C010000 		.4byte	.LFE1
 3475 0020 00000000 		.4byte	.LFB2
 3476 0024 B4000000 		.4byte	.LFE2
 3477 0028 00000000 		.4byte	.LFB0
 3478 002c 24000000 		.4byte	.LFE0
 3479 0030 00000000 		.4byte	.LFB3
 3480 0034 4C000000 		.4byte	.LFE3
 3481 0038 00000000 		.4byte	.LFB4
 3482 003c B4000000 		.4byte	.LFE4
 3483 0040 00000000 		.4byte	.LFB5
 3484 0044 20000000 		.4byte	.LFE5
 3485 0048 00000000 		.4byte	.LFB6
 3486 004c 0C000000 		.4byte	.LFE6
 3487 0050 00000000 		.4byte	.LFB7
 3488 0054 20000000 		.4byte	.LFE7
 3489 0058 00000000 		.4byte	.LFB8
 3490 005c 0C000000 		.4byte	.LFE8
 3491 0060 00000000 		.4byte	.LFB9
 3492 0064 14000000 		.4byte	.LFE9
 3493 0068 00000000 		.4byte	.LFB10
 3494 006c 28000000 		.4byte	.LFE10
 3495 0070 00000000 		.4byte	.LFB11
 3496 0074 94000000 		.4byte	.LFE11
ARM GAS  C:\Users\214016~1\AppData\Local\Temp\ccCw4MGe.s 			page 107


 3497 0078 00000000 		.4byte	.LFB13
 3498 007c 2C000000 		.4byte	.LFE13
 3499 0080 00000000 		.4byte	.LFB12
 3500 0084 50000000 		.4byte	.LFE12
 3501 0088 00000000 		.4byte	.LFB14
 3502 008c 18000000 		.4byte	.LFE14
 3503 0090 00000000 		.4byte	.LFB15
 3504 0094 0C000000 		.4byte	.LFE15
 3505 0098 00000000 		.4byte	.LFB16
 3506 009c 20000000 		.4byte	.LFE16
 3507 00a0 00000000 		.4byte	.LFB17
 3508 00a4 20000000 		.4byte	.LFE17
 3509 00a8 00000000 		.4byte	.LFB18
 3510 00ac 18000000 		.4byte	.LFE18
 3511 00b0 00000000 		.4byte	.LFB19
 3512 00b4 10000000 		.4byte	.LFE19
 3513 00b8 00000000 		.4byte	.LFB20
 3514 00bc 10000000 		.4byte	.LFE20
 3515 00c0 00000000 		.4byte	.LFB21
 3516 00c4 10000000 		.4byte	.LFE21
 3517 00c8 00000000 		.4byte	0
 3518 00cc 00000000 		.4byte	0
 3519              		.section	.debug_line,"",%progbits
 3520              	.Ldebug_line0:
 3521 0000 DC020000 		.section	.debug_str,"MS",%progbits,1
 3521      02008500 
 3521      00000201 
 3521      FB0E0D00 
 3521      01010101 
 3522              	.LASF10:
 3523 0000 75696E74 		.ascii	"uint16\000"
 3523      313600
 3524              	.LASF93:
 3525 0007 43794578 		.ascii	"CyExitCriticalSection\000"
 3525      69744372 
 3525      69746963 
 3525      616C5365 
 3525      6374696F 
 3526              	.LASF85:
 3527 001d 5553424D 		.ascii	"USBMIDI_1_configurationChanged\000"
 3527      4944495F 
 3527      315F636F 
 3527      6E666967 
 3527      75726174 
 3528              	.LASF63:
 3529 003c 5553424D 		.ascii	"USBMIDI_1_LoadInEP\000"
 3529      4944495F 
 3529      315F4C6F 
 3529      6164496E 
 3529      455000
 3530              	.LASF91:
 3531 004f 5553424D 		.ascii	"USBMIDI_1_lastPacketSize\000"
 3531      4944495F 
 3531      315F6C61 
 3531      73745061 
 3531      636B6574 
 3532              	.LASF61:
ARM GAS  C:\Users\214016~1\AppData\Local\Temp\ccCw4MGe.s 			page 108


 3533 0068 5553424D 		.ascii	"USBMIDI_1_GetEPCount\000"
 3533      4944495F 
 3533      315F4765 
 3533      74455043 
 3533      6F756E74 
 3534              	.LASF51:
 3535 007d 5553424D 		.ascii	"USBMIDI_1_Start\000"
 3535      4944495F 
 3535      315F5374 
 3535      61727400 
 3536              	.LASF7:
 3537 008d 6C6F6E67 		.ascii	"long long unsigned int\000"
 3537      206C6F6E 
 3537      6720756E 
 3537      7369676E 
 3537      65642069 
 3538              	.LASF100:
 3539 00a4 433A5C55 		.ascii	"C:\\Users\\214016586\\Documents\\PSoC Creator\\APU2"
 3539      73657273 
 3539      5C323134 
 3539      30313635 
 3539      38365C44 
 3540 00d2 4130335C 		.ascii	"A03\\APU2A03.cydsn\000"
 3540      41505532 
 3540      4130332E 
 3540      63796473 
 3540      6E00
 3541              	.LASF80:
 3542 00e4 5553424D 		.ascii	"USBMIDI_1_DisableSofInt\000"
 3542      4944495F 
 3542      315F4469 
 3542      7361626C 
 3542      65536F66 
 3543              	.LASF23:
 3544 00fc 61646472 		.ascii	"addr\000"
 3544      00
 3545              	.LASF76:
 3546 0101 5553424D 		.ascii	"USBMIDI_1_GetConfiguration\000"
 3546      4944495F 
 3546      315F4765 
 3546      74436F6E 
 3546      66696775 
 3547              	.LASF83:
 3548 011c 5553424D 		.ascii	"USBMIDI_1_transferState\000"
 3548      4944495F 
 3548      315F7472 
 3548      616E7366 
 3548      65725374 
 3549              	.LASF33:
 3550 0134 65704366 		.ascii	"epCfg\000"
 3550      6700
 3551              	.LASF60:
 3552 013a 65704E75 		.ascii	"epNumber\000"
 3552      6D626572 
 3552      00
 3553              	.LASF66:
 3554 0143 5553424D 		.ascii	"USBMIDI_1_EnableOutEP\000"
ARM GAS  C:\Users\214016~1\AppData\Local\Temp\ccCw4MGe.s 			page 109


 3554      4944495F 
 3554      315F456E 
 3554      61626C65 
 3554      4F757445 
 3555              	.LASF49:
 3556 0159 64657669 		.ascii	"device\000"
 3556      636500
 3557              	.LASF57:
 3558 0160 5553424D 		.ascii	"USBMIDI_1_GetInterfaceSetting\000"
 3558      4944495F 
 3558      315F4765 
 3558      74496E74 
 3558      65726661 
 3559              	.LASF6:
 3560 017e 6C6F6E67 		.ascii	"long long int\000"
 3560      206C6F6E 
 3560      6720696E 
 3560      7400
 3561              	.LASF0:
 3562 018c 7369676E 		.ascii	"signed char\000"
 3562      65642063 
 3562      68617200 
 3563              	.LASF97:
 3564 0198 5553424D 		.ascii	"USBMIDI_1_Dp_ClearInterrupt\000"
 3564      4944495F 
 3564      315F4470 
 3564      5F436C65 
 3564      6172496E 
 3565              	.LASF56:
 3566 01b4 5553424D 		.ascii	"USBMIDI_1_IsConfigurationChanged\000"
 3566      4944495F 
 3566      315F4973 
 3566      436F6E66 
 3566      69677572 
 3567              	.LASF92:
 3568 01d5 43794465 		.ascii	"CyDelayUs\000"
 3568      6C617955 
 3568      7300
 3569              	.LASF62:
 3570 01df 636E7472 		.ascii	"cntr\000"
 3570      00
 3571              	.LASF4:
 3572 01e4 6C6F6E67 		.ascii	"long int\000"
 3572      20696E74 
 3572      00
 3573              	.LASF9:
 3574 01ed 75696E74 		.ascii	"uint8\000"
 3574      3800
 3575              	.LASF22:
 3576 01f3 6570546F 		.ascii	"epToggle\000"
 3576      67676C65 
 3576      00
 3577              	.LASF37:
 3578 01fc 72775761 		.ascii	"rwWa\000"
 3578      00
 3579              	.LASF47:
 3580 0201 5553424D 		.ascii	"USBMIDI_1_Init\000"
ARM GAS  C:\Users\214016~1\AppData\Local\Temp\ccCw4MGe.s 			page 110


 3580      4944495F 
 3580      315F496E 
 3580      697400
 3581              	.LASF13:
 3582 0210 646F7562 		.ascii	"double\000"
 3582      6C6500
 3583              	.LASF73:
 3584 0217 706F7765 		.ascii	"powerStatus\000"
 3584      72537461 
 3584      74757300 
 3585              	.LASF82:
 3586 0223 5553424D 		.ascii	"USBMIDI_1_device\000"
 3586      4944495F 
 3586      315F6465 
 3586      76696365 
 3586      00
 3587              	.LASF35:
 3588 0234 65705372 		.ascii	"epSr\000"
 3588      00
 3589              	.LASF74:
 3590 0239 5553424D 		.ascii	"USBMIDI_1_RWUEnabled\000"
 3590      4944495F 
 3590      315F5257 
 3590      55456E61 
 3590      626C6564 
 3591              	.LASF11:
 3592 024e 75696E74 		.ascii	"uint32\000"
 3592      333200
 3593              	.LASF87:
 3594 0255 5553424D 		.ascii	"USBMIDI_1_interfaceNumber\000"
 3594      4944495F 
 3594      315F696E 
 3594      74657266 
 3594      6163654E 
 3595              	.LASF64:
 3596 026f 70446174 		.ascii	"pData\000"
 3596      6100
 3597              	.LASF24:
 3598 0275 65704D6F 		.ascii	"epMode\000"
 3598      646500
 3599              	.LASF42:
 3600 027c 5553424D 		.ascii	"USBMIDI_1_arb_ep_struct\000"
 3600      4944495F 
 3600      315F6172 
 3600      625F6570 
 3600      5F737472 
 3601              	.LASF36:
 3602 0294 72657365 		.ascii	"reserved\000"
 3602      72766564 
 3602      00
 3603              	.LASF28:
 3604 029d 545F5553 		.ascii	"T_USBMIDI_1_EP_CTL_BLOCK\000"
 3604      424D4944 
 3604      495F315F 
 3604      45505F43 
 3604      544C5F42 
 3605              	.LASF86:
ARM GAS  C:\Users\214016~1\AppData\Local\Temp\ccCw4MGe.s 			page 111


 3606 02b6 5553424D 		.ascii	"USBMIDI_1_deviceStatus\000"
 3606      4944495F 
 3606      315F6465 
 3606      76696365 
 3606      53746174 
 3607              	.LASF8:
 3608 02cd 756E7369 		.ascii	"unsigned int\000"
 3608      676E6564 
 3608      20696E74 
 3608      00
 3609              	.LASF55:
 3610 02da 5553424D 		.ascii	"USBMIDI_1_CheckActivity\000"
 3610      4944495F 
 3610      315F4368 
 3610      65636B41 
 3610      63746976 
 3611              	.LASF5:
 3612 02f2 6C6F6E67 		.ascii	"long unsigned int\000"
 3612      20756E73 
 3612      69676E65 
 3612      6420696E 
 3612      7400
 3613              	.LASF96:
 3614 0304 4379456E 		.ascii	"CyEnterCriticalSection\000"
 3614      74657243 
 3614      72697469 
 3614      63616C53 
 3614      65637469 
 3615              	.LASF69:
 3616 031b 5553424D 		.ascii	"USBMIDI_1_Force\000"
 3616      4944495F 
 3616      315F466F 
 3616      72636500 
 3617              	.LASF3:
 3618 032b 73686F72 		.ascii	"short unsigned int\000"
 3618      7420756E 
 3618      7369676E 
 3618      65642069 
 3618      6E7400
 3619              	.LASF101:
 3620 033e 4379496E 		.ascii	"CyIntSetVector\000"
 3620      74536574 
 3620      56656374 
 3620      6F7200
 3621              	.LASF45:
 3622 034d 61726245 		.ascii	"arbEp\000"
 3622      7000
 3623              	.LASF27:
 3624 0353 696E7465 		.ascii	"interface\000"
 3624      72666163 
 3624      6500
 3625              	.LASF54:
 3626 035d 63723152 		.ascii	"cr1Reg\000"
 3626      656700
 3627              	.LASF16:
 3628 0364 72656733 		.ascii	"reg32\000"
 3628      3200
ARM GAS  C:\Users\214016~1\AppData\Local\Temp\ccCw4MGe.s 			page 112


 3629              	.LASF44:
 3630 036a 5553424D 		.ascii	"USBMIDI_1_sie_eps_struct\000"
 3630      4944495F 
 3630      315F7369 
 3630      655F6570 
 3630      735F7374 
 3631              	.LASF46:
 3632 0383 5553424D 		.ascii	"USBMIDI_1_arb_eps_struct\000"
 3632      4944495F 
 3632      315F6172 
 3632      625F6570 
 3632      735F7374 
 3633              	.LASF21:
 3634 039c 68774570 		.ascii	"hwEpState\000"
 3634      53746174 
 3634      6500
 3635              	.LASF18:
 3636 03a6 73697A65 		.ascii	"sizetype\000"
 3636      74797065 
 3636      00
 3637              	.LASF43:
 3638 03af 73696545 		.ascii	"sieEp\000"
 3638      7000
 3639              	.LASF99:
 3640 03b5 47656E65 		.ascii	"Generated_Source\\PSoC5\\USBMIDI_1.c\000"
 3640      72617465 
 3640      645F536F 
 3640      75726365 
 3640      5C50536F 
 3641              	.LASF19:
 3642 03d8 61747472 		.ascii	"attrib\000"
 3642      696200
 3643              	.LASF72:
 3644 03df 5553424D 		.ascii	"USBMIDI_1_SetPowerStatus\000"
 3644      4944495F 
 3644      315F5365 
 3644      74506F77 
 3644      65725374 
 3645              	.LASF40:
 3646 03f8 72775261 		.ascii	"rwRaMsb\000"
 3646      4D736200 
 3647              	.LASF29:
 3648 0400 6570436E 		.ascii	"epCnt0\000"
 3648      743000
 3649              	.LASF30:
 3650 0407 6570436E 		.ascii	"epCnt1\000"
 3650      743100
 3651              	.LASF94:
 3652 040e 4379496E 		.ascii	"CyIntSetPriority\000"
 3652      74536574 
 3652      5072696F 
 3652      72697479 
 3652      00
 3653              	.LASF31:
 3654 041f 65704372 		.ascii	"epCr0\000"
 3654      3000
 3655              	.LASF12:
ARM GAS  C:\Users\214016~1\AppData\Local\Temp\ccCw4MGe.s 			page 113


 3656 0425 666C6F61 		.ascii	"float\000"
 3656      7400
 3657              	.LASF20:
 3658 042b 61706945 		.ascii	"apiEpState\000"
 3658      70537461 
 3658      746500
 3659              	.LASF95:
 3660 0436 43794465 		.ascii	"CyDelayCycles\000"
 3660      6C617943 
 3660      79636C65 
 3660      7300
 3661              	.LASF15:
 3662 0444 72656738 		.ascii	"reg8\000"
 3662      00
 3663              	.LASF89:
 3664 0449 5553424D 		.ascii	"USBMIDI_1_deviceAddress\000"
 3664      4944495F 
 3664      315F6465 
 3664      76696365 
 3664      41646472 
 3665              	.LASF1:
 3666 0461 756E7369 		.ascii	"unsigned char\000"
 3666      676E6564 
 3666      20636861 
 3666      7200
 3667              	.LASF2:
 3668 046f 73686F72 		.ascii	"short int\000"
 3668      7420696E 
 3668      7400
 3669              	.LASF71:
 3670 0479 5553424D 		.ascii	"USBMIDI_1_GetEPAckState\000"
 3670      4944495F 
 3670      315F4765 
 3670      74455041 
 3670      636B5374 
 3671              	.LASF39:
 3672 0491 72775261 		.ascii	"rwRa\000"
 3672      00
 3673              	.LASF68:
 3674 0496 5553424D 		.ascii	"USBMIDI_1_DisableOutEP\000"
 3674      4944495F 
 3674      315F4469 
 3674      7361626C 
 3674      654F7574 
 3675              	.LASF38:
 3676 04ad 72775761 		.ascii	"rwWaMsb\000"
 3676      4D736200 
 3677              	.LASF67:
 3678 04b5 5553424D 		.ascii	"USBMIDI_1_ReadOutEP\000"
 3678      4944495F 
 3678      315F5265 
 3678      61644F75 
 3678      74455000 
 3679              	.LASF70:
 3680 04c9 62537461 		.ascii	"bState\000"
 3680      746500
 3681              	.LASF81:
ARM GAS  C:\Users\214016~1\AppData\Local\Temp\ccCw4MGe.s 			page 114


 3682 04d0 5553424D 		.ascii	"USBMIDI_1_initVar\000"
 3682      4944495F 
 3682      315F696E 
 3682      69745661 
 3682      7200
 3683              	.LASF48:
 3684 04e2 5553424D 		.ascii	"USBMIDI_1_InitComponent\000"
 3684      4944495F 
 3684      315F496E 
 3684      6974436F 
 3684      6D706F6E 
 3685              	.LASF84:
 3686 04fa 5553424D 		.ascii	"USBMIDI_1_configuration\000"
 3686      4944495F 
 3686      315F636F 
 3686      6E666967 
 3686      75726174 
 3687              	.LASF65:
 3688 0512 6C656E67 		.ascii	"length\000"
 3688      746800
 3689              	.LASF14:
 3690 0519 63686172 		.ascii	"char\000"
 3690      00
 3691              	.LASF50:
 3692 051e 6D6F6465 		.ascii	"mode\000"
 3692      00
 3693              	.LASF17:
 3694 0523 63796973 		.ascii	"cyisraddress\000"
 3694      72616464 
 3694      72657373 
 3694      00
 3695              	.LASF26:
 3696 0530 62756666 		.ascii	"bufferSize\000"
 3696      65725369 
 3696      7A6500
 3697              	.LASF25:
 3698 053b 62756666 		.ascii	"buffOffset\000"
 3698      4F666673 
 3698      657400
 3699              	.LASF58:
 3700 0546 696E7465 		.ascii	"interfaceNumber\000"
 3700      72666163 
 3700      654E756D 
 3700      62657200 
 3701              	.LASF52:
 3702 0556 5553424D 		.ascii	"USBMIDI_1_Stop\000"
 3702      4944495F 
 3702      315F5374 
 3702      6F7000
 3703              	.LASF53:
 3704 0565 656E6162 		.ascii	"enableInterrupts\000"
 3704      6C65496E 
 3704      74657272 
 3704      75707473 
 3704      00
 3705              	.LASF32:
 3706 0576 5553424D 		.ascii	"USBMIDI_1_sie_ep_struct\000"
ARM GAS  C:\Users\214016~1\AppData\Local\Temp\ccCw4MGe.s 			page 115


 3706      4944495F 
 3706      315F7369 
 3706      655F6570 
 3706      5F737472 
 3707              	.LASF98:
 3708 058e 474E5520 		.ascii	"GNU C 4.9.3 20150303 (release) [ARM/embedded-4_9-br"
 3708      4320342E 
 3708      392E3320 
 3708      32303135 
 3708      30333033 
 3709 05c1 616E6368 		.ascii	"anch revision 221220] -mcpu=cortex-m3 -mthumb -g -O"
 3709      20726576 
 3709      6973696F 
 3709      6E203232 
 3709      31323230 
 3710 05f4 67202D66 		.ascii	"g -ffunction-sections -ffat-lto-objects\000"
 3710      66756E63 
 3710      74696F6E 
 3710      2D736563 
 3710      74696F6E 
 3711              	.LASF41:
 3712 061c 72774472 		.ascii	"rwDr\000"
 3712      00
 3713              	.LASF88:
 3714 0621 5553424D 		.ascii	"USBMIDI_1_interfaceSetting\000"
 3714      4944495F 
 3714      315F696E 
 3714      74657266 
 3714      61636553 
 3715              	.LASF90:
 3716 063c 5553424D 		.ascii	"USBMIDI_1_EP\000"
 3716      4944495F 
 3716      315F4550 
 3716      00
 3717              	.LASF34:
 3718 0649 6570496E 		.ascii	"epIntEn\000"
 3718      74456E00 
 3719              	.LASF59:
 3720 0651 5553424D 		.ascii	"USBMIDI_1_GetEPState\000"
 3720      4944495F 
 3720      315F4765 
 3720      74455053 
 3720      74617465 
 3721              	.LASF78:
 3722 0666 5553424D 		.ascii	"USBMIDI_1_ReInitComponent\000"
 3722      4944495F 
 3722      315F5265 
 3722      496E6974 
 3722      436F6D70 
 3723              	.LASF79:
 3724 0680 5553424D 		.ascii	"USBMIDI_1_EnableSofInt\000"
 3724      4944495F 
 3724      315F456E 
 3724      61626C65 
 3724      536F6649 
 3725              	.LASF75:
 3726 0697 72657375 		.ascii	"result\000"
ARM GAS  C:\Users\214016~1\AppData\Local\Temp\ccCw4MGe.s 			page 116


 3726      6C7400
 3727              	.LASF77:
 3728 069e 5553424D 		.ascii	"USBMIDI_1_GetDeviceAddress\000"
 3728      4944495F 
 3728      315F4765 
 3728      74446576 
 3728      69636541 
 3729              		.ident	"GCC: (GNU Tools for ARM Embedded Processors) 4.9.3 20150303 (release) [ARM/embedded-4_9-br
