ARM GAS  C:\Users\214016~1\AppData\Local\Temp\cclGq4y0.s 			page 1


   1              		.syntax unified
   2              		.cpu cortex-m3
   3              		.fpu softvfp
   4              		.eabi_attribute 20, 1
   5              		.eabi_attribute 21, 1
   6              		.eabi_attribute 23, 3
   7              		.eabi_attribute 24, 1
   8              		.eabi_attribute 25, 1
   9              		.eabi_attribute 26, 1
  10              		.eabi_attribute 30, 1
  11              		.eabi_attribute 34, 1
  12              		.eabi_attribute 18, 4
  13              		.thumb
  14              		.syntax unified
  15              		.file	"LFSR_PM.c"
  16              		.text
  17              	.Ltext0:
  18              		.cfi_sections	.debug_frame
  19              		.section	.text.LFSR_SaveConfig,"ax",%progbits
  20              		.align	2
  21              		.global	LFSR_SaveConfig
  22              		.thumb
  23              		.thumb_func
  24              		.type	LFSR_SaveConfig, %function
  25              	LFSR_SaveConfig:
  26              	.LFB0:
  27              		.file 1 "Generated_Source\\PSoC5\\LFSR_PM.c"
   1:Generated_Source\PSoC5/LFSR_PM.c **** /*******************************************************************************
   2:Generated_Source\PSoC5/LFSR_PM.c **** * File Name: LFSR_PM.c
   3:Generated_Source\PSoC5/LFSR_PM.c **** * Version 2.40
   4:Generated_Source\PSoC5/LFSR_PM.c **** *
   5:Generated_Source\PSoC5/LFSR_PM.c **** * Description:
   6:Generated_Source\PSoC5/LFSR_PM.c **** *  This file provides Sleep APIs for PRS component.
   7:Generated_Source\PSoC5/LFSR_PM.c **** *
   8:Generated_Source\PSoC5/LFSR_PM.c **** * Note:
   9:Generated_Source\PSoC5/LFSR_PM.c **** *  None
  10:Generated_Source\PSoC5/LFSR_PM.c **** *
  11:Generated_Source\PSoC5/LFSR_PM.c **** ********************************************************************************
  12:Generated_Source\PSoC5/LFSR_PM.c **** * Copyright 2008-2013, Cypress Semiconductor Corporation.  All rights reserved.
  13:Generated_Source\PSoC5/LFSR_PM.c **** * You may use this file only in accordance with the license, terms, conditions, 
  14:Generated_Source\PSoC5/LFSR_PM.c **** * disclaimers, and limitations in the end user license agreement accompanying 
  15:Generated_Source\PSoC5/LFSR_PM.c **** * the software package with which this file was provided.
  16:Generated_Source\PSoC5/LFSR_PM.c **** *******************************************************************************/
  17:Generated_Source\PSoC5/LFSR_PM.c **** 
  18:Generated_Source\PSoC5/LFSR_PM.c **** #include "LFSR.h"
  19:Generated_Source\PSoC5/LFSR_PM.c **** 
  20:Generated_Source\PSoC5/LFSR_PM.c **** #if ((LFSR_TIME_MULTIPLEXING_ENABLE) && (LFSR_WAKEUP_BEHAVIOUR == LFSR__RESUMEWORK))
  21:Generated_Source\PSoC5/LFSR_PM.c ****     uint8 LFSR_sleepState = LFSR_NORMAL_SEQUENCE;    
  22:Generated_Source\PSoC5/LFSR_PM.c **** #endif  /* End ((LFSR_TIME_MULTIPLEXING_ENABLE) && 
  23:Generated_Source\PSoC5/LFSR_PM.c ****           (LFSR_WAKEUP_BEHAVIOUR == LFSR__RESUMEWORK)) */
  24:Generated_Source\PSoC5/LFSR_PM.c **** 
  25:Generated_Source\PSoC5/LFSR_PM.c **** 
  26:Generated_Source\PSoC5/LFSR_PM.c **** /*******************************************************************************
  27:Generated_Source\PSoC5/LFSR_PM.c **** * Function Name: LFSR_SaveConfig
  28:Generated_Source\PSoC5/LFSR_PM.c **** ********************************************************************************
  29:Generated_Source\PSoC5/LFSR_PM.c **** *
  30:Generated_Source\PSoC5/LFSR_PM.c **** * Summary:
ARM GAS  C:\Users\214016~1\AppData\Local\Temp\cclGq4y0.s 			page 2


  31:Generated_Source\PSoC5/LFSR_PM.c **** *  Saves seed and polynomial registers.
  32:Generated_Source\PSoC5/LFSR_PM.c **** *
  33:Generated_Source\PSoC5/LFSR_PM.c **** * Parameters:
  34:Generated_Source\PSoC5/LFSR_PM.c **** *  void
  35:Generated_Source\PSoC5/LFSR_PM.c **** *
  36:Generated_Source\PSoC5/LFSR_PM.c **** * Return:
  37:Generated_Source\PSoC5/LFSR_PM.c **** *  void
  38:Generated_Source\PSoC5/LFSR_PM.c **** *
  39:Generated_Source\PSoC5/LFSR_PM.c **** * Global Variables:
  40:Generated_Source\PSoC5/LFSR_PM.c **** *  LFSR_backup - modified when non-retention registers are saved.
  41:Generated_Source\PSoC5/LFSR_PM.c **** *
  42:Generated_Source\PSoC5/LFSR_PM.c **** *******************************************************************************/
  43:Generated_Source\PSoC5/LFSR_PM.c **** void LFSR_SaveConfig(void) 
  44:Generated_Source\PSoC5/LFSR_PM.c **** {    
  28              		.loc 1 44 0
  29              		.cfi_startproc
  30              		@ args = 0, pretend = 0, frame = 0
  31              		@ frame_needed = 0, uses_anonymous_args = 0
  32 0000 08B5     		push	{r3, lr}
  33              		.cfi_def_cfa_offset 8
  34              		.cfi_offset 3, -8
  35              		.cfi_offset 14, -4
  45:Generated_Source\PSoC5/LFSR_PM.c ****     #if (LFSR_WAKEUP_BEHAVIOUR == LFSR__RESUMEWORK)
  46:Generated_Source\PSoC5/LFSR_PM.c ****         /* Save dff register for time mult */
  47:Generated_Source\PSoC5/LFSR_PM.c ****         #if (LFSR_TIME_MULTIPLEXING_ENABLE)
  48:Generated_Source\PSoC5/LFSR_PM.c ****             LFSR_backup.dffStatus = LFSR_STATUS;
  49:Generated_Source\PSoC5/LFSR_PM.c ****             /* Clear normal dff sequence set */
  50:Generated_Source\PSoC5/LFSR_PM.c ****             LFSR_sleepState &= ((uint8)~LFSR_NORMAL_SEQUENCE);
  51:Generated_Source\PSoC5/LFSR_PM.c ****         #endif  /* End LFSR_TIME_MULTIPLEXING_ENABLE */
  52:Generated_Source\PSoC5/LFSR_PM.c ****         
  53:Generated_Source\PSoC5/LFSR_PM.c ****         /* Save A0 and A1 registers */
  54:Generated_Source\PSoC5/LFSR_PM.c ****         #if (LFSR_PRS_SIZE <= 32u)
  55:Generated_Source\PSoC5/LFSR_PM.c ****             LFSR_backup.seed = LFSR_Read();
  36              		.loc 1 55 0
  37 0002 FFF7FEFF 		bl	LFSR_Read
  38              	.LVL0:
  39 0006 014B     		ldr	r3, .L3
  40 0008 5880     		strh	r0, [r3, #2]	@ movhi
  41 000a 08BD     		pop	{r3, pc}
  42              	.L4:
  43              		.align	2
  44              	.L3:
  45 000c 00000000 		.word	LFSR_backup
  46              		.cfi_endproc
  47              	.LFE0:
  48              		.size	LFSR_SaveConfig, .-LFSR_SaveConfig
  49              		.section	.text.LFSR_Sleep,"ax",%progbits
  50              		.align	2
  51              		.global	LFSR_Sleep
  52              		.thumb
  53              		.thumb_func
  54              		.type	LFSR_Sleep, %function
  55              	LFSR_Sleep:
  56              	.LFB1:
  56:Generated_Source\PSoC5/LFSR_PM.c ****             
  57:Generated_Source\PSoC5/LFSR_PM.c ****         #else
  58:Generated_Source\PSoC5/LFSR_PM.c ****             LFSR_backup.seedUpper = LFSR_ReadUpper();
ARM GAS  C:\Users\214016~1\AppData\Local\Temp\cclGq4y0.s 			page 3


  59:Generated_Source\PSoC5/LFSR_PM.c ****             LFSR_backup.seedLower = LFSR_ReadLower();
  60:Generated_Source\PSoC5/LFSR_PM.c ****             
  61:Generated_Source\PSoC5/LFSR_PM.c ****         #endif     /* End (LFSR_PRS_SIZE <= 32u) */
  62:Generated_Source\PSoC5/LFSR_PM.c ****         
  63:Generated_Source\PSoC5/LFSR_PM.c ****     #endif  /* End (LFSR_WAKEUP_BEHAVIOUR == LFSR__RESUMEWORK) */
  64:Generated_Source\PSoC5/LFSR_PM.c **** }
  65:Generated_Source\PSoC5/LFSR_PM.c **** 
  66:Generated_Source\PSoC5/LFSR_PM.c **** 
  67:Generated_Source\PSoC5/LFSR_PM.c **** /*******************************************************************************
  68:Generated_Source\PSoC5/LFSR_PM.c **** * Function Name: LFSR_Sleep
  69:Generated_Source\PSoC5/LFSR_PM.c **** ********************************************************************************
  70:Generated_Source\PSoC5/LFSR_PM.c **** *
  71:Generated_Source\PSoC5/LFSR_PM.c **** * Summary:
  72:Generated_Source\PSoC5/LFSR_PM.c **** *  Stops PRS computation and saves PRS configuration.
  73:Generated_Source\PSoC5/LFSR_PM.c **** *
  74:Generated_Source\PSoC5/LFSR_PM.c **** * Parameters:
  75:Generated_Source\PSoC5/LFSR_PM.c **** *  void
  76:Generated_Source\PSoC5/LFSR_PM.c **** *
  77:Generated_Source\PSoC5/LFSR_PM.c **** * Return:
  78:Generated_Source\PSoC5/LFSR_PM.c **** *  void
  79:Generated_Source\PSoC5/LFSR_PM.c **** *
  80:Generated_Source\PSoC5/LFSR_PM.c **** * Global Variables:
  81:Generated_Source\PSoC5/LFSR_PM.c **** *  LFSR_backup - modified when non-retention registers are saved.
  82:Generated_Source\PSoC5/LFSR_PM.c **** *
  83:Generated_Source\PSoC5/LFSR_PM.c **** *******************************************************************************/
  84:Generated_Source\PSoC5/LFSR_PM.c **** void LFSR_Sleep(void) 
  85:Generated_Source\PSoC5/LFSR_PM.c **** {
  57              		.loc 1 85 0
  58              		.cfi_startproc
  59              		@ args = 0, pretend = 0, frame = 0
  60              		@ frame_needed = 0, uses_anonymous_args = 0
  61 0000 08B5     		push	{r3, lr}
  62              		.cfi_def_cfa_offset 8
  63              		.cfi_offset 3, -8
  64              		.cfi_offset 14, -4
  86:Generated_Source\PSoC5/LFSR_PM.c ****     /* Store PRS enable state */
  87:Generated_Source\PSoC5/LFSR_PM.c ****     if(LFSR_IS_PRS_ENABLE(LFSR_CONTROL_REG))
  65              		.loc 1 87 0
  66 0002 084B     		ldr	r3, .L9
  67 0004 1B78     		ldrb	r3, [r3]	@ zero_extendqisi2
  68 0006 13F0010F 		tst	r3, #1
  69 000a 05D0     		beq	.L6
  88:Generated_Source\PSoC5/LFSR_PM.c ****     {
  89:Generated_Source\PSoC5/LFSR_PM.c ****         LFSR_backup.enableState = 1u;
  70              		.loc 1 89 0
  71 000c 0122     		movs	r2, #1
  72 000e 064B     		ldr	r3, .L9+4
  73 0010 1A70     		strb	r2, [r3]
  90:Generated_Source\PSoC5/LFSR_PM.c ****         LFSR_Stop();
  74              		.loc 1 90 0
  75 0012 FFF7FEFF 		bl	LFSR_Stop
  76              	.LVL1:
  77 0016 02E0     		b	.L7
  78              	.L6:
  91:Generated_Source\PSoC5/LFSR_PM.c ****     }
  92:Generated_Source\PSoC5/LFSR_PM.c ****     else
  93:Generated_Source\PSoC5/LFSR_PM.c ****     {
ARM GAS  C:\Users\214016~1\AppData\Local\Temp\cclGq4y0.s 			page 4


  94:Generated_Source\PSoC5/LFSR_PM.c ****         LFSR_backup.enableState = 0u;
  79              		.loc 1 94 0
  80 0018 0022     		movs	r2, #0
  81 001a 034B     		ldr	r3, .L9+4
  82 001c 1A70     		strb	r2, [r3]
  83              	.L7:
  95:Generated_Source\PSoC5/LFSR_PM.c ****     }
  96:Generated_Source\PSoC5/LFSR_PM.c ****     
  97:Generated_Source\PSoC5/LFSR_PM.c ****     LFSR_SaveConfig();
  84              		.loc 1 97 0
  85 001e FFF7FEFF 		bl	LFSR_SaveConfig
  86              	.LVL2:
  87 0022 08BD     		pop	{r3, pc}
  88              	.L10:
  89              		.align	2
  90              	.L9:
  91 0024 75640040 		.word	1073767541
  92 0028 00000000 		.word	LFSR_backup
  93              		.cfi_endproc
  94              	.LFE1:
  95              		.size	LFSR_Sleep, .-LFSR_Sleep
  96              		.section	.text.LFSR_RestoreConfig,"ax",%progbits
  97              		.align	2
  98              		.global	LFSR_RestoreConfig
  99              		.thumb
 100              		.thumb_func
 101              		.type	LFSR_RestoreConfig, %function
 102              	LFSR_RestoreConfig:
 103              	.LFB2:
  98:Generated_Source\PSoC5/LFSR_PM.c **** }
  99:Generated_Source\PSoC5/LFSR_PM.c **** 
 100:Generated_Source\PSoC5/LFSR_PM.c **** 
 101:Generated_Source\PSoC5/LFSR_PM.c **** /*******************************************************************************
 102:Generated_Source\PSoC5/LFSR_PM.c **** * Function Name: LFSR_RestoreConfig
 103:Generated_Source\PSoC5/LFSR_PM.c **** ********************************************************************************
 104:Generated_Source\PSoC5/LFSR_PM.c **** *
 105:Generated_Source\PSoC5/LFSR_PM.c **** * Summary:
 106:Generated_Source\PSoC5/LFSR_PM.c **** *  Restores seed and polynomial registers.
 107:Generated_Source\PSoC5/LFSR_PM.c **** *
 108:Generated_Source\PSoC5/LFSR_PM.c **** * Parameters:
 109:Generated_Source\PSoC5/LFSR_PM.c **** *  void
 110:Generated_Source\PSoC5/LFSR_PM.c **** *
 111:Generated_Source\PSoC5/LFSR_PM.c **** * Return:
 112:Generated_Source\PSoC5/LFSR_PM.c **** *  void
 113:Generated_Source\PSoC5/LFSR_PM.c **** *
 114:Generated_Source\PSoC5/LFSR_PM.c **** *******************************************************************************/
 115:Generated_Source\PSoC5/LFSR_PM.c **** #if (LFSR_WAKEUP_BEHAVIOUR == LFSR__RESUMEWORK)
 116:Generated_Source\PSoC5/LFSR_PM.c ****     #if (LFSR_TIME_MULTIPLEXING_ENABLE)
 117:Generated_Source\PSoC5/LFSR_PM.c ****         void LFSR_RestoreConfig(void) 
 118:Generated_Source\PSoC5/LFSR_PM.c ****         {   
 119:Generated_Source\PSoC5/LFSR_PM.c ****             /* Restore A0 and A1 registers */
 120:Generated_Source\PSoC5/LFSR_PM.c ****             #if (LFSR_PRS_SIZE <= 32u)
 121:Generated_Source\PSoC5/LFSR_PM.c ****                 LFSR_WriteSeed(LFSR_backup.seed);
 122:Generated_Source\PSoC5/LFSR_PM.c ****             #else
 123:Generated_Source\PSoC5/LFSR_PM.c ****                 LFSR_WriteSeedUpper(LFSR_backup.seedUpper);
 124:Generated_Source\PSoC5/LFSR_PM.c ****                 LFSR_WriteSeedLower(LFSR_backup.seedLower);
 125:Generated_Source\PSoC5/LFSR_PM.c ****             #endif  /* End (LFSR_PRS_SIZE <= 32u) */
ARM GAS  C:\Users\214016~1\AppData\Local\Temp\cclGq4y0.s 			page 5


 126:Generated_Source\PSoC5/LFSR_PM.c ****             
 127:Generated_Source\PSoC5/LFSR_PM.c ****             #if (LFSR_RUN_MODE == LFSR__CLOCKED)
 128:Generated_Source\PSoC5/LFSR_PM.c ****                 #if (LFSR_PRS_SIZE <= 32u)
 129:Generated_Source\PSoC5/LFSR_PM.c ****                     LFSR_ResetSeedInit(LFSR_DEFAULT_SEED);                        
 130:Generated_Source\PSoC5/LFSR_PM.c ****                 #else
 131:Generated_Source\PSoC5/LFSR_PM.c ****                     LFSR_ResetSeedInitUpper(LFSR_DEFAULT_SEED_UPPER);
 132:Generated_Source\PSoC5/LFSR_PM.c ****                     LFSR_ResetSeedInitLower(LFSR_DEFAULT_SEED_LOWER); 
 133:Generated_Source\PSoC5/LFSR_PM.c ****                 #endif  /* End (LFSR_PRS_SIZE <= 32u) */ 
 134:Generated_Source\PSoC5/LFSR_PM.c ****             #endif  /* End (LFSR_RUN_MODE == LFSR__CLOCKED) */
 135:Generated_Source\PSoC5/LFSR_PM.c ****             
 136:Generated_Source\PSoC5/LFSR_PM.c ****             /* Restore dff state for time mult: use async set/reest */
 137:Generated_Source\PSoC5/LFSR_PM.c ****             /* Set CI, SI, SO, STATE0, STATE1 */
 138:Generated_Source\PSoC5/LFSR_PM.c ****             LFSR_CONTROL_REG = LFSR_backup.dffStatus;
 139:Generated_Source\PSoC5/LFSR_PM.c ****             
 140:Generated_Source\PSoC5/LFSR_PM.c ****             /* Make pulse, to set trigger to defined state */
 141:Generated_Source\PSoC5/LFSR_PM.c ****             LFSR_EXECUTE_DFF_SET;
 142:Generated_Source\PSoC5/LFSR_PM.c ****             
 143:Generated_Source\PSoC5/LFSR_PM.c ****             /* Set normal dff sequence set */
 144:Generated_Source\PSoC5/LFSR_PM.c ****             LFSR_sleepState |= LFSR_NORMAL_SEQUENCE;
 145:Generated_Source\PSoC5/LFSR_PM.c ****         }
 146:Generated_Source\PSoC5/LFSR_PM.c ****         
 147:Generated_Source\PSoC5/LFSR_PM.c ****     #else
 148:Generated_Source\PSoC5/LFSR_PM.c ****         void LFSR_RestoreConfig(void) 
 149:Generated_Source\PSoC5/LFSR_PM.c ****         {   
 104              		.loc 1 149 0
 105              		.cfi_startproc
 106              		@ args = 0, pretend = 0, frame = 0
 107              		@ frame_needed = 0, uses_anonymous_args = 0
 108 0000 08B5     		push	{r3, lr}
 109              		.cfi_def_cfa_offset 8
 110              		.cfi_offset 3, -8
 111              		.cfi_offset 14, -4
 150:Generated_Source\PSoC5/LFSR_PM.c ****             /* Restore A0 and A1 registers */
 151:Generated_Source\PSoC5/LFSR_PM.c ****             #if (LFSR_PRS_SIZE <= 32u)
 152:Generated_Source\PSoC5/LFSR_PM.c ****                 LFSR_WriteSeed(LFSR_backup.seed);
 112              		.loc 1 152 0
 113 0002 044B     		ldr	r3, .L13
 114 0004 5888     		ldrh	r0, [r3, #2]
 115 0006 FFF7FEFF 		bl	LFSR_WriteSeed
 116              	.LVL3:
 153:Generated_Source\PSoC5/LFSR_PM.c ****             #else
 154:Generated_Source\PSoC5/LFSR_PM.c ****                 LFSR_WriteSeedUpper(LFSR_backup.seedUpper);
 155:Generated_Source\PSoC5/LFSR_PM.c ****                 LFSR_WriteSeedLower(LFSR_backup.seedLower);
 156:Generated_Source\PSoC5/LFSR_PM.c ****             #endif  /* End (LFSR_PRS_SIZE <= 32u) */
 157:Generated_Source\PSoC5/LFSR_PM.c ****             
 158:Generated_Source\PSoC5/LFSR_PM.c ****             #if (LFSR_RUN_MODE == LFSR__CLOCKED)
 159:Generated_Source\PSoC5/LFSR_PM.c ****                 #if (LFSR_PRS_SIZE <= 32u)
 160:Generated_Source\PSoC5/LFSR_PM.c ****                     LFSR_ResetSeedInit(LFSR_DEFAULT_SEED);                        
 117              		.loc 1 160 0
 118 000a 43F6FF70 		movw	r0, #16383
 119 000e FFF7FEFF 		bl	LFSR_ResetSeedInit
 120              	.LVL4:
 121 0012 08BD     		pop	{r3, pc}
 122              	.L14:
 123              		.align	2
 124              	.L13:
 125 0014 00000000 		.word	LFSR_backup
ARM GAS  C:\Users\214016~1\AppData\Local\Temp\cclGq4y0.s 			page 6


 126              		.cfi_endproc
 127              	.LFE2:
 128              		.size	LFSR_RestoreConfig, .-LFSR_RestoreConfig
 129              		.section	.text.LFSR_Wakeup,"ax",%progbits
 130              		.align	2
 131              		.global	LFSR_Wakeup
 132              		.thumb
 133              		.thumb_func
 134              		.type	LFSR_Wakeup, %function
 135              	LFSR_Wakeup:
 136              	.LFB3:
 161:Generated_Source\PSoC5/LFSR_PM.c ****                 #else
 162:Generated_Source\PSoC5/LFSR_PM.c ****                     LFSR_ResetSeedInitUpper(LFSR_DEFAULT_SEED_UPPER);
 163:Generated_Source\PSoC5/LFSR_PM.c ****                     LFSR_ResetSeedInitLower(LFSR_DEFAULT_SEED_LOWER); 
 164:Generated_Source\PSoC5/LFSR_PM.c ****                 #endif  /* End (LFSR_PRS_SIZE <= 32u) */ 
 165:Generated_Source\PSoC5/LFSR_PM.c ****             #endif  /* End (LFSR_RUN_MODE == LFSR__CLOCKED) */
 166:Generated_Source\PSoC5/LFSR_PM.c ****         }
 167:Generated_Source\PSoC5/LFSR_PM.c ****         
 168:Generated_Source\PSoC5/LFSR_PM.c ****     #endif  /* End (LFSR_TIME_MULTIPLEXING_ENABLE) */
 169:Generated_Source\PSoC5/LFSR_PM.c ****     
 170:Generated_Source\PSoC5/LFSR_PM.c **** #else
 171:Generated_Source\PSoC5/LFSR_PM.c ****     void LFSR_RestoreConfig(void) 
 172:Generated_Source\PSoC5/LFSR_PM.c ****     {
 173:Generated_Source\PSoC5/LFSR_PM.c ****         LFSR_Init();
 174:Generated_Source\PSoC5/LFSR_PM.c ****     }
 175:Generated_Source\PSoC5/LFSR_PM.c ****     
 176:Generated_Source\PSoC5/LFSR_PM.c **** #endif  /* End (LFSR_WAKEUP_BEHAVIOUR == LFSR__RESUMEWORK) */
 177:Generated_Source\PSoC5/LFSR_PM.c **** 
 178:Generated_Source\PSoC5/LFSR_PM.c **** 
 179:Generated_Source\PSoC5/LFSR_PM.c **** /*******************************************************************************
 180:Generated_Source\PSoC5/LFSR_PM.c **** * Function Name: LFSR_Wakeup
 181:Generated_Source\PSoC5/LFSR_PM.c **** ********************************************************************************
 182:Generated_Source\PSoC5/LFSR_PM.c **** *
 183:Generated_Source\PSoC5/LFSR_PM.c **** * Summary:
 184:Generated_Source\PSoC5/LFSR_PM.c **** *  Restores PRS configuration and starts PRS computation. 
 185:Generated_Source\PSoC5/LFSR_PM.c **** *
 186:Generated_Source\PSoC5/LFSR_PM.c **** * Parameters:
 187:Generated_Source\PSoC5/LFSR_PM.c **** *  void
 188:Generated_Source\PSoC5/LFSR_PM.c **** *
 189:Generated_Source\PSoC5/LFSR_PM.c **** * Return:
 190:Generated_Source\PSoC5/LFSR_PM.c **** *  void
 191:Generated_Source\PSoC5/LFSR_PM.c **** *
 192:Generated_Source\PSoC5/LFSR_PM.c **** *******************************************************************************/
 193:Generated_Source\PSoC5/LFSR_PM.c **** #if ((LFSR_WAKEUP_BEHAVIOUR == LFSR__RESUMEWORK) && (LFSR_TIME_MULTIPLEXING_ENABLE))
 194:Generated_Source\PSoC5/LFSR_PM.c ****     void LFSR_Wakeup(void) 
 195:Generated_Source\PSoC5/LFSR_PM.c **** #else
 196:Generated_Source\PSoC5/LFSR_PM.c ****     void LFSR_Wakeup(void) 
 197:Generated_Source\PSoC5/LFSR_PM.c **** #endif  /* End ((LFSR_WAKEUP_BEHAVIOUR == LFSR__RESUMEWORK) && 
 198:Generated_Source\PSoC5/LFSR_PM.c ****                 (LFSR_TIME_MULTIPLEXING_ENABLE)) */
 199:Generated_Source\PSoC5/LFSR_PM.c **** {
 137              		.loc 1 199 0
 138              		.cfi_startproc
 139              		@ args = 0, pretend = 0, frame = 0
 140              		@ frame_needed = 0, uses_anonymous_args = 0
 141 0000 08B5     		push	{r3, lr}
 142              		.cfi_def_cfa_offset 8
 143              		.cfi_offset 3, -8
ARM GAS  C:\Users\214016~1\AppData\Local\Temp\cclGq4y0.s 			page 7


 144              		.cfi_offset 14, -4
 200:Generated_Source\PSoC5/LFSR_PM.c ****     LFSR_RestoreConfig();
 145              		.loc 1 200 0
 146 0002 FFF7FEFF 		bl	LFSR_RestoreConfig
 147              	.LVL5:
 201:Generated_Source\PSoC5/LFSR_PM.c ****     
 202:Generated_Source\PSoC5/LFSR_PM.c ****     /* Restore PRS enable state */
 203:Generated_Source\PSoC5/LFSR_PM.c ****     if (LFSR_backup.enableState != 0u)
 148              		.loc 1 203 0
 149 0006 034B     		ldr	r3, .L18
 150 0008 1B78     		ldrb	r3, [r3]	@ zero_extendqisi2
 151 000a 0BB1     		cbz	r3, .L15
 204:Generated_Source\PSoC5/LFSR_PM.c ****     {
 205:Generated_Source\PSoC5/LFSR_PM.c ****         LFSR_Enable();
 152              		.loc 1 205 0
 153 000c FFF7FEFF 		bl	LFSR_Enable
 154              	.LVL6:
 155              	.L15:
 156 0010 08BD     		pop	{r3, pc}
 157              	.L19:
 158 0012 00BF     		.align	2
 159              	.L18:
 160 0014 00000000 		.word	LFSR_backup
 161              		.cfi_endproc
 162              	.LFE3:
 163              		.size	LFSR_Wakeup, .-LFSR_Wakeup
 164              		.text
 165              	.Letext0:
 166              		.file 2 "Generated_Source\\PSoC5\\cytypes.h"
 167              		.file 3 "Generated_Source\\PSoC5\\LFSR.h"